EXPORTS 
	?$TSS0@?1??get@?$placeholder@$00@detail@placeholders@asio@boost@@SAAAU?$arg@$00@6@XZ@4HA 	 DATA
	?$TSS0@?1??get@?$placeholder@$01@detail@placeholders@asio@boost@@SAAAU?$arg@$01@6@XZ@4HA 	 DATA
	?$TSS0@?1??get_misc_category@error@asio@boost@@YAABVerror_category@system@4@XZ@4HA 	 DATA
	?$TSS0@?1??watchImpl@Watchdog@@KAXABVpath@filesystem@boost@@ABV?$function@$$A6AXABVpath@filesystem@boost@@@Z@std@@ABV?$function@$$A6AXABV?$vector@Vpath@filesystem@boost@@V?$allocator@Vpath@filesystem@boost@@@std@@@std@@@Z@7@@Z@4HA 	 DATA
	??_R0?AU?$error_info_injector@Vbad_format_string@io@boost@@@exception_detail@boost@@@8 	 DATA
	??_R0?AU?$error_info_injector@Vbad_get@boost@@@exception_detail@boost@@@8 	 DATA
	??_R0?AU?$error_info_injector@Vbad_lexical_cast@boost@@@exception_detail@boost@@@8 	 DATA
	??_R0?AU?$error_info_injector@Vbad_weak_ptr@boost@@@exception_detail@boost@@@8 	 DATA
	??_R0?AU?$error_info_injector@Vptree_bad_data@property_tree@boost@@@exception_detail@boost@@@8 	 DATA
	??_R0?AU?$error_info_injector@Vptree_bad_path@property_tree@boost@@@exception_detail@boost@@@8 	 DATA
	??_R0?AU?$error_info_injector@Vsystem_error@system@boost@@@exception_detail@boost@@@8 	 DATA
	??_R0?AU?$error_info_injector@Vtoo_few_args@io@boost@@@exception_detail@boost@@@8 	 DATA
	??_R0?AU?$error_info_injector@Vtoo_many_args@io@boost@@@exception_detail@boost@@@8 	 DATA
	??_R0?AU_Crt_new_delete@std@@@8 	 DATA
	??_R0?AV?$CellHandler@VCell@Core@@@Core@@@8 	 DATA
	??_R0?AV?$DbWorkerPool@VCharaDbConnection@Db@Core@@@Db@Core@@@8 	 DATA
	??_R0?AV?$GamePacketNew@UFFXIVARR_IPC_UNK320@Server@Packets@Network@Core@@W4ServerZoneIpcType@345@@Packets@Network@Core@@@8 	 DATA
	??_R0?AV?$GamePacketNew@UFFXIVARR_IPC_UNK322@Server@Packets@Network@Core@@W4ServerZoneIpcType@345@@Packets@Network@Core@@@8 	 DATA
	??_R0?AV?$GamePacketNew@UFFXIVGCAffiliation@Server@Packets@Network@Core@@W4ServerZoneIpcType@345@@Packets@Network@Core@@@8 	 DATA
	??_R0?AV?$GamePacketNew@UFFXIVIpcActorCast@Server@Packets@Network@Core@@W4ServerZoneIpcType@345@@Packets@Network@Core@@@8 	 DATA
	??_R0?AV?$GamePacketNew@UFFXIVIpcActorControl142@Server@Packets@Network@Core@@W4ServerZoneIpcType@345@@Packets@Network@Core@@@8 	 DATA
	??_R0?AV?$GamePacketNew@UFFXIVIpcActorControl143@Server@Packets@Network@Core@@W4ServerZoneIpcType@345@@Packets@Network@Core@@@8 	 DATA
	??_R0?AV?$GamePacketNew@UFFXIVIpcActorControl144@Server@Packets@Network@Core@@W4ServerZoneIpcType@345@@Packets@Network@Core@@@8 	 DATA
	??_R0?AV?$GamePacketNew@UFFXIVIpcActorFreeSpawn@Server@Packets@Network@Core@@W4ServerZoneIpcType@345@@Packets@Network@Core@@@8 	 DATA
	??_R0?AV?$GamePacketNew@UFFXIVIpcActorMove@Server@Packets@Network@Core@@W4ServerZoneIpcType@345@@Packets@Network@Core@@@8 	 DATA
	??_R0?AV?$GamePacketNew@UFFXIVIpcActorSetPos@Server@Packets@Network@Core@@W4ServerZoneIpcType@345@@Packets@Network@Core@@@8 	 DATA
	??_R0?AV?$GamePacketNew@UFFXIVIpcAddStatusEffect@Server@Packets@Network@Core@@W4ServerZoneIpcType@345@@Packets@Network@Core@@@8 	 DATA
	??_R0?AV?$GamePacketNew@UFFXIVIpcBlackList@Server@Packets@Network@Core@@W4ServerZoneIpcType@345@@Packets@Network@Core@@@8 	 DATA
	??_R0?AV?$GamePacketNew@UFFXIVIpcCFAvailableContents@Server@Packets@Network@Core@@W4ServerZoneIpcType@345@@Packets@Network@Core@@@8 	 DATA
	??_R0?AV?$GamePacketNew@UFFXIVIpcCFDutyInfo@Server@Packets@Network@Core@@W4ServerZoneIpcType@345@@Packets@Network@Core@@@8 	 DATA
	??_R0?AV?$GamePacketNew@UFFXIVIpcCFNotify@Server@Packets@Network@Core@@W4ServerZoneIpcType@345@@Packets@Network@Core@@@8 	 DATA
	??_R0?AV?$GamePacketNew@UFFXIVIpcCFPlayerInNeed@Server@Packets@Network@Core@@W4ServerZoneIpcType@345@@Packets@Network@Core@@@8 	 DATA
	??_R0?AV?$GamePacketNew@UFFXIVIpcChat@Server@Packets@Network@Core@@W4ServerZoneIpcType@345@@Packets@Network@Core@@@8 	 DATA
	??_R0?AV?$GamePacketNew@UFFXIVIpcContainerInfo@Server@Packets@Network@Core@@W4ServerZoneIpcType@345@@Packets@Network@Core@@@8 	 DATA
	??_R0?AV?$GamePacketNew@UFFXIVIpcCurrencyCrystalInfo@Server@Packets@Network@Core@@W4ServerZoneIpcType@345@@Packets@Network@Core@@@8 	 DATA
	??_R0?AV?$GamePacketNew@UFFXIVIpcDirectorPlayScene@Server@Packets@Network@Core@@W4ServerZoneIpcType@345@@Packets@Network@Core@@@8 	 DATA
	??_R0?AV?$GamePacketNew@UFFXIVIpcDirectorVars@Server@Packets@Network@Core@@W4ServerZoneIpcType@345@@Packets@Network@Core@@@8 	 DATA
	??_R0?AV?$GamePacketNew@UFFXIVIpcDiscovery@Server@Packets@Network@Core@@W4ServerZoneIpcType@345@@Packets@Network@Core@@@8 	 DATA
	??_R0?AV?$GamePacketNew@UFFXIVIpcEffect@Server@Packets@Network@Core@@W4ServerZoneIpcType@345@@Packets@Network@Core@@@8 	 DATA
	??_R0?AV?$GamePacketNew@UFFXIVIpcEorzeaTimeOffset@Server@Packets@Network@Core@@W4ServerZoneIpcType@345@@Packets@Network@Core@@@8 	 DATA
	??_R0?AV?$GamePacketNew@UFFXIVIpcEquipDisplayFlags@Server@Packets@Network@Core@@W4ServerZoneIpcType@345@@Packets@Network@Core@@@8 	 DATA
	??_R0?AV?$GamePacketNew@UFFXIVIpcEventFinish@Server@Packets@Network@Core@@W4ServerZoneIpcType@345@@Packets@Network@Core@@@8 	 DATA
	??_R0?AV?$GamePacketNew@UFFXIVIpcEventLinkshell@Server@Packets@Network@Core@@W4ServerZoneIpcType@345@@Packets@Network@Core@@@8 	 DATA
	??_R0?AV?$GamePacketNew@UFFXIVIpcEventPlay@Server@Packets@Network@Core@@W4ServerZoneIpcType@345@@Packets@Network@Core@@@8 	 DATA
	??_R0?AV?$GamePacketNew@UFFXIVIpcEventStart@Server@Packets@Network@Core@@W4ServerZoneIpcType@345@@Packets@Network@Core@@@8 	 DATA
	??_R0?AV?$GamePacketNew@UFFXIVIpcHateList@Server@Packets@Network@Core@@W4ServerZoneIpcType@345@@Packets@Network@Core@@@8 	 DATA
	??_R0?AV?$GamePacketNew@UFFXIVIpcInit@Server@Packets@Network@Core@@W4ServerZoneIpcType@345@@Packets@Network@Core@@@8 	 DATA
	??_R0?AV?$GamePacketNew@UFFXIVIpcInitSearchInfo@Server@Packets@Network@Core@@W4ServerZoneIpcType@345@@Packets@Network@Core@@@8 	 DATA
	??_R0?AV?$GamePacketNew@UFFXIVIpcInitUI@Server@Packets@Network@Core@@W4ServerZoneIpcType@345@@Packets@Network@Core@@@8 	 DATA
	??_R0?AV?$GamePacketNew@UFFXIVIpcInitZone@Server@Packets@Network@Core@@W4ServerZoneIpcType@345@@Packets@Network@Core@@@8 	 DATA
	??_R0?AV?$GamePacketNew@UFFXIVIpcInventoryActionAck@Server@Packets@Network@Core@@W4ServerZoneIpcType@345@@Packets@Network@Core@@@8 	 DATA
	??_R0?AV?$GamePacketNew@UFFXIVIpcInventoryTransaction@Server@Packets@Network@Core@@W4ServerZoneIpcType@345@@Packets@Network@Core@@@8 	 DATA
	??_R0?AV?$GamePacketNew@UFFXIVIpcInventoryTransactionFinish@Server@Packets@Network@Core@@W4ServerZoneIpcType@345@@Packets@Network@Core@@@8 	 DATA
	??_R0?AV?$GamePacketNew@UFFXIVIpcItemInfo@Server@Packets@Network@Core@@W4ServerZoneIpcType@345@@Packets@Network@Core@@@8 	 DATA
	??_R0?AV?$GamePacketNew@UFFXIVIpcLinkshellList@Server@Packets@Network@Core@@W4ServerZoneIpcType@345@@Packets@Network@Core@@@8 	 DATA
	??_R0?AV?$GamePacketNew@UFFXIVIpcLogout@Server@Packets@Network@Core@@W4ServerZoneIpcType@345@@Packets@Network@Core@@@8 	 DATA
	??_R0?AV?$GamePacketNew@UFFXIVIpcMSQTrackerComplete@Server@Packets@Network@Core@@W4ServerZoneIpcType@345@@Packets@Network@Core@@@8 	 DATA
	??_R0?AV?$GamePacketNew@UFFXIVIpcMSQTrackerProgress@Server@Packets@Network@Core@@W4ServerZoneIpcType@345@@Packets@Network@Core@@@8 	 DATA
	??_R0?AV?$GamePacketNew@UFFXIVIpcModelEquip@Server@Packets@Network@Core@@W4ServerZoneIpcType@345@@Packets@Network@Core@@@8 	 DATA
	??_R0?AV?$GamePacketNew@UFFXIVIpcMount@Server@Packets@Network@Core@@W4ServerZoneIpcType@345@@Packets@Network@Core@@@8 	 DATA
	??_R0?AV?$GamePacketNew@UFFXIVIpcObjectDespawn@Server@Packets@Network@Core@@W4ServerZoneIpcType@345@@Packets@Network@Core@@@8 	 DATA
	??_R0?AV?$GamePacketNew@UFFXIVIpcObjectSpawn@Server@Packets@Network@Core@@W4ServerZoneIpcType@345@@Packets@Network@Core@@@8 	 DATA
	??_R0?AV?$GamePacketNew@UFFXIVIpcPerformNote@Server@Packets@Network@Core@@W4ServerZoneIpcType@345@@Packets@Network@Core@@@8 	 DATA
	??_R0?AV?$GamePacketNew@UFFXIVIpcPing@Server@Packets@Network@Core@@W4ServerZoneIpcType@345@@Packets@Network@Core@@@8 	 DATA
	??_R0?AV?$GamePacketNew@UFFXIVIpcPlayTime@Server@Packets@Network@Core@@W4ServerZoneIpcType@345@@Packets@Network@Core@@@8 	 DATA
	??_R0?AV?$GamePacketNew@UFFXIVIpcPlayerClassInfo@Server@Packets@Network@Core@@W4ServerZoneIpcType@345@@Packets@Network@Core@@@8 	 DATA
	??_R0?AV?$GamePacketNew@UFFXIVIpcPlayerSpawn@Server@Packets@Network@Core@@W4ServerZoneIpcType@345@@Packets@Network@Core@@@8 	 DATA
	??_R0?AV?$GamePacketNew@UFFXIVIpcPlayerStateFlags@Server@Packets@Network@Core@@W4ServerZoneIpcType@345@@Packets@Network@Core@@@8 	 DATA
	??_R0?AV?$GamePacketNew@UFFXIVIpcPlayerStats@Server@Packets@Network@Core@@W4ServerZoneIpcType@345@@Packets@Network@Core@@@8 	 DATA
	??_R0?AV?$GamePacketNew@UFFXIVIpcPlayerTitleList@Server@Packets@Network@Core@@W4ServerZoneIpcType@345@@Packets@Network@Core@@@8 	 DATA
	??_R0?AV?$GamePacketNew@UFFXIVIpcPrepareZoning@Server@Packets@Network@Core@@W4ServerZoneIpcType@345@@Packets@Network@Core@@@8 	 DATA
	??_R0?AV?$GamePacketNew@UFFXIVIpcQuestActiveList@Server@Packets@Network@Core@@W4ServerZoneIpcType@345@@Packets@Network@Core@@@8 	 DATA
	??_R0?AV?$GamePacketNew@UFFXIVIpcQuestCompleteList@Server@Packets@Network@Core@@W4ServerZoneIpcType@345@@Packets@Network@Core@@@8 	 DATA
	??_R0?AV?$GamePacketNew@UFFXIVIpcQuestFinish@Server@Packets@Network@Core@@W4ServerZoneIpcType@345@@Packets@Network@Core@@@8 	 DATA
	??_R0?AV?$GamePacketNew@UFFXIVIpcQuestMessage@Server@Packets@Network@Core@@W4ServerZoneIpcType@345@@Packets@Network@Core@@@8 	 DATA
	??_R0?AV?$GamePacketNew@UFFXIVIpcQuestTracker@Server@Packets@Network@Core@@W4ServerZoneIpcType@345@@Packets@Network@Core@@@8 	 DATA
	??_R0?AV?$GamePacketNew@UFFXIVIpcQuestUpdate@Server@Packets@Network@Core@@W4ServerZoneIpcType@345@@Packets@Network@Core@@@8 	 DATA
	??_R0?AV?$GamePacketNew@UFFXIVIpcServerNotice@Server@Packets@Network@Core@@W4ServerZoneIpcType@345@@Packets@Network@Core@@@8 	 DATA
	??_R0?AV?$GamePacketNew@UFFXIVIpcSetOnlineStatus@Server@Packets@Network@Core@@W4ServerZoneIpcType@345@@Packets@Network@Core@@@8 	 DATA
	??_R0?AV?$GamePacketNew@UFFXIVIpcSetSearchInfo@Server@Packets@Network@Core@@W4ServerZoneIpcType@345@@Packets@Network@Core@@@8 	 DATA
	??_R0?AV?$GamePacketNew@UFFXIVIpcSocialList@Server@Packets@Network@Core@@W4ServerZoneIpcType@345@@Packets@Network@Core@@@8 	 DATA
	??_R0?AV?$GamePacketNew@UFFXIVIpcStatusEffectList@Server@Packets@Network@Core@@W4ServerZoneIpcType@345@@Packets@Network@Core@@@8 	 DATA
	??_R0?AV?$GamePacketNew@UFFXIVIpcTell@Server@Packets@Network@Core@@W4ServerChatIpcType@345@@Packets@Network@Core@@@8 	 DATA
	??_R0?AV?$GamePacketNew@UFFXIVIpcTellErrNotFound@Server@Packets@Network@Core@@W4ServerChatIpcType@345@@Packets@Network@Core@@@8 	 DATA
	??_R0?AV?$GamePacketNew@UFFXIVIpcUpdateClassInfo@Server@Packets@Network@Core@@W4ServerZoneIpcType@345@@Packets@Network@Core@@@8 	 DATA
	??_R0?AV?$GamePacketNew@UFFXIVIpcUpdateHpMpTp@Server@Packets@Network@Core@@W4ServerZoneIpcType@345@@Packets@Network@Core@@@8 	 DATA
	??_R0?AV?$GamePacketNew@UFFXIVIpcUpdateInventorySlot@Server@Packets@Network@Core@@W4ServerZoneIpcType@345@@Packets@Network@Core@@@8 	 DATA
	??_R0?AV?$GamePacketNew@UFFXIVIpcWeatherChange@Server@Packets@Network@Core@@W4ServerZoneIpcType@345@@Packets@Network@Core@@@8 	 DATA
	??_R0?AV?$GamePacketNewBase@W4ServerChatIpcType@Packets@Network@Core@@@Packets@Network@Core@@@8 	 DATA
	??_R0?AV?$GamePacketNewBase@W4ServerZoneIpcType@Packets@Network@Core@@@Packets@Network@Core@@@8 	 DATA
	??_R0?AV?$_Func_base@XABV?$vector@Vpath@filesystem@boost@@V?$allocator@Vpath@filesystem@boost@@@std@@@std@@@std@@@8 	 DATA
	??_R0?AV?$_Func_base@_NABVpath@filesystem@boost@@@std@@@8 	 DATA
	??_R0?AV?$_Iosb@H@std@@@8 	 DATA
	??_R0?AV?$_LaunchPad@V?$unique_ptr@V?$tuple@V?$_Binder@U_Unforced@std@@P8Hive@Network@Core@@AEXXZPAV345@@std@@@std@@U?$default_delete@V?$tuple@V?$_Binder@U_Unforced@std@@P8Hive@Network@Core@@AEXXZPAV345@@std@@@std@@@2@@std@@@std@@@8 	 DATA
	??_R0?AV?$base_from_member@V?$shared_ptr@V?$basic_altstringbuf@DU?$char_traits@D@std@@V?$allocator@D@2@@io@boost@@@boost@@$0A@@boost@@@8 	 DATA
	??_R0?AV?$basic_altstringbuf@DU?$char_traits@D@std@@V?$allocator@D@2@@io@boost@@@8 	 DATA
	??_R0?AV?$basic_ios@DU?$char_traits@D@std@@@std@@@8 	 DATA
	??_R0?AV?$basic_istream@DU?$char_traits@D@std@@@std@@@8 	 DATA
	??_R0?AV?$basic_istringstream@DU?$char_traits@D@std@@V?$allocator@D@2@@std@@@8 	 DATA
	??_R0?AV?$basic_oaltstringstream@DU?$char_traits@D@std@@V?$allocator@D@2@@io@boost@@@8 	 DATA
	??_R0?AV?$basic_ostream@DU?$char_traits@D@std@@@std@@@8 	 DATA
	??_R0?AV?$basic_ostringstream@DU?$char_traits@D@std@@V?$allocator@D@2@@std@@@8 	 DATA
	??_R0?AV?$basic_streambuf@DU?$char_traits@D@std@@@std@@@8 	 DATA
	??_R0?AV?$basic_string@DU?$char_traits@D@std@@V?$allocator@D@2@@std@@@8 	 DATA
	??_R0?AV?$basic_stringbuf@DU?$char_traits@D@std@@V?$allocator@D@2@@std@@@8 	 DATA
	??_R0?AV?$clone_impl@U?$error_info_injector@Vbad_format_string@io@boost@@@exception_detail@boost@@@exception_detail@boost@@@8 	 DATA
	??_R0?AV?$clone_impl@U?$error_info_injector@Vbad_get@boost@@@exception_detail@boost@@@exception_detail@boost@@@8 	 DATA
	??_R0?AV?$clone_impl@U?$error_info_injector@Vbad_lexical_cast@boost@@@exception_detail@boost@@@exception_detail@boost@@@8 	 DATA
	??_R0?AV?$clone_impl@U?$error_info_injector@Vbad_weak_ptr@boost@@@exception_detail@boost@@@exception_detail@boost@@@8 	 DATA
	??_R0?AV?$clone_impl@U?$error_info_injector@Vptree_bad_data@property_tree@boost@@@exception_detail@boost@@@exception_detail@boost@@@8 	 DATA
	??_R0?AV?$clone_impl@U?$error_info_injector@Vptree_bad_path@property_tree@boost@@@exception_detail@boost@@@exception_detail@boost@@@8 	 DATA
	??_R0?AV?$clone_impl@U?$error_info_injector@Vsystem_error@system@boost@@@exception_detail@boost@@@exception_detail@boost@@@8 	 DATA
	??_R0?AV?$clone_impl@U?$error_info_injector@Vtoo_few_args@io@boost@@@exception_detail@boost@@@exception_detail@boost@@@8 	 DATA
	??_R0?AV?$clone_impl@U?$error_info_injector@Vtoo_many_args@io@boost@@@exception_detail@boost@@@exception_detail@boost@@@8 	 DATA
	??_R0?AV?$enable_shared_from_this@VActor@Entity@Core@@@boost@@@8 	 DATA
	??_R0?AV?$enable_shared_from_this@VConnection@Network@Core@@@boost@@@8 	 DATA
	??_R0?AV?$enable_shared_from_this@VZone@Core@@@boost@@@8 	 DATA
	??_R0?AV?$holder@V?$basic_string@DU?$char_traits@D@std@@V?$allocator@D@2@@std@@@any@boost@@@8 	 DATA
	??_R0?AV?$holder@V?$string_path@V?$basic_string@DU?$char_traits@D@std@@V?$allocator@D@2@@std@@U?$id_translator@V?$basic_string@DU?$char_traits@D@std@@V?$allocator@D@2@@std@@@property_tree@boost@@@property_tree@boost@@@any@boost@@@8 	 DATA
	??_R0?AV?$numpunct@D@std@@@8 	 DATA
	??_R0?AV?$sp_counted_impl_p@UQuestActive@Common@Core@@@detail@boost@@@8 	 DATA
	??_R0?AV?$sp_counted_impl_p@Udir_itr_imp@detail@filesystem@boost@@@detail@boost@@@8 	 DATA
	??_R0?AV?$sp_counted_impl_p@VAcceptor@Network@Core@@@detail@boost@@@8 	 DATA
	??_R0?AV?$sp_counted_impl_p@VGameConnection@Network@Core@@@detail@boost@@@8 	 DATA
	??_R0?AV?$sp_counted_impl_p@VGamePacket@Packets@Network@Core@@@detail@boost@@@8 	 DATA
	??_R0?AV?$sp_counted_impl_p@VHive@Network@Core@@@detail@boost@@@8 	 DATA
	??_R0?AV?$sp_counted_impl_p@VItem@Core@@@detail@boost@@@8 	 DATA
	??_R0?AV?$sp_counted_impl_p@VSession@Core@@@detail@boost@@@8 	 DATA
	??_R0?AV?$sp_counted_impl_pd@PAUAction@Data@Core@@V?$sp_ms_deleter@UAction@Data@Core@@@detail@boost@@@detail@boost@@@8 	 DATA
	??_R0?AV?$sp_counted_impl_pd@PAUAetheryte@Data@Core@@V?$sp_ms_deleter@UAetheryte@Data@Core@@@detail@boost@@@detail@boost@@@8 	 DATA
	??_R0?AV?$sp_counted_impl_pd@PAUClassJob@Data@Core@@V?$sp_ms_deleter@UClassJob@Data@Core@@@detail@boost@@@detail@boost@@@8 	 DATA
	??_R0?AV?$sp_counted_impl_pd@PAUContentFinderCondition@Data@Core@@V?$sp_ms_deleter@UContentFinderCondition@Data@Core@@@detail@boost@@@detail@boost@@@8 	 DATA
	??_R0?AV?$sp_counted_impl_pd@PAUCustomTalk@Data@Core@@V?$sp_ms_deleter@UCustomTalk@Data@Core@@@detail@boost@@@detail@boost@@@8 	 DATA
	??_R0?AV?$sp_counted_impl_pd@PAUEObj@Data@Core@@V?$sp_ms_deleter@UEObj@Data@Core@@@detail@boost@@@detail@boost@@@8 	 DATA
	??_R0?AV?$sp_counted_impl_pd@PAUEventAction@Data@Core@@V?$sp_ms_deleter@UEventAction@Data@Core@@@detail@boost@@@detail@boost@@@8 	 DATA
	??_R0?AV?$sp_counted_impl_pd@PAUEventItem@Data@Core@@V?$sp_ms_deleter@UEventItem@Data@Core@@@detail@boost@@@detail@boost@@@8 	 DATA
	??_R0?AV?$sp_counted_impl_pd@PAUInstanceContent@Data@Core@@V?$sp_ms_deleter@UInstanceContent@Data@Core@@@detail@boost@@@detail@boost@@@8 	 DATA
	??_R0?AV?$sp_counted_impl_pd@PAUItem@Data@Core@@V?$sp_ms_deleter@UItem@Data@Core@@@detail@boost@@@detail@boost@@@8 	 DATA
	??_R0?AV?$sp_counted_impl_pd@PAULevel@Data@Core@@V?$sp_ms_deleter@ULevel@Data@Core@@@detail@boost@@@detail@boost@@@8 	 DATA
	??_R0?AV?$sp_counted_impl_pd@PAUMap@Data@Core@@V?$sp_ms_deleter@UMap@Data@Core@@@detail@boost@@@detail@boost@@@8 	 DATA
	??_R0?AV?$sp_counted_impl_pd@PAUOnlineStatus@Data@Core@@V?$sp_ms_deleter@UOnlineStatus@Data@Core@@@detail@boost@@@detail@boost@@@8 	 DATA
	??_R0?AV?$sp_counted_impl_pd@PAUOpening@Data@Core@@V?$sp_ms_deleter@UOpening@Data@Core@@@detail@boost@@@detail@boost@@@8 	 DATA
	??_R0?AV?$sp_counted_impl_pd@PAUParamGrow@Data@Core@@V?$sp_ms_deleter@UParamGrow@Data@Core@@@detail@boost@@@detail@boost@@@8 	 DATA
	??_R0?AV?$sp_counted_impl_pd@PAUPlaceName@Data@Core@@V?$sp_ms_deleter@UPlaceName@Data@Core@@@detail@boost@@@detail@boost@@@8 	 DATA
	??_R0?AV?$sp_counted_impl_pd@PAUQuest@Data@Core@@V?$sp_ms_deleter@UQuest@Data@Core@@@detail@boost@@@detail@boost@@@8 	 DATA
	??_R0?AV?$sp_counted_impl_pd@PAUQueuedZoning@Entity@Core@@V?$sp_ms_deleter@UQueuedZoning@Entity@Core@@@detail@boost@@@detail@boost@@@8 	 DATA
	??_R0?AV?$sp_counted_impl_pd@PAUStatus@Data@Core@@V?$sp_ms_deleter@UStatus@Data@Core@@@detail@boost@@@detail@boost@@@8 	 DATA
	??_R0?AV?$sp_counted_impl_pd@PAUTerritoryType@Data@Core@@V?$sp_ms_deleter@UTerritoryType@Data@Core@@@detail@boost@@@detail@boost@@@8 	 DATA
	??_R0?AV?$sp_counted_impl_pd@PAUTribe@Data@Core@@V?$sp_ms_deleter@UTribe@Data@Core@@@detail@boost@@@detail@boost@@@8 	 DATA
	??_R0?AV?$sp_counted_impl_pd@PAV?$DbWorkerPool@VCharaDbConnection@Db@Core@@@Db@Core@@V?$sp_ms_deleter@V?$DbWorkerPool@VCharaDbConnection@Db@Core@@@Db@Core@@@detail@boost@@@detail@boost@@@8 	 DATA
	??_R0?AV?$sp_counted_impl_pd@PAV?$basic_altstringbuf@DU?$char_traits@D@std@@V?$allocator@D@2@@io@boost@@VNo_Op@?$basic_oaltstringstream@DU?$char_traits@D@std@@V?$allocator@D@2@@23@@detail@boost@@@8 	 DATA
	??_R0?AV?$sp_counted_impl_pd@PAVActionCast@Action@Core@@V?$sp_ms_deleter@VActionCast@Action@Core@@@detail@boost@@@detail@boost@@@8 	 DATA
	??_R0?AV?$sp_counted_impl_pd@PAVActionMount@Action@Core@@V?$sp_ms_deleter@VActionMount@Action@Core@@@detail@boost@@@detail@boost@@@8 	 DATA
	??_R0?AV?$sp_counted_impl_pd@PAVActionTeleport@Action@Core@@V?$sp_ms_deleter@VActionTeleport@Action@Core@@@detail@boost@@@detail@boost@@@8 	 DATA
	??_R0?AV?$sp_counted_impl_pd@PAVDebugCommand@Core@@V?$sp_ms_deleter@VDebugCommand@Core@@@detail@boost@@@detail@boost@@@8 	 DATA
	??_R0?AV?$sp_counted_impl_pd@PAVDebugCommandHandler@Core@@V?$sp_ms_deleter@VDebugCommandHandler@Core@@@detail@boost@@@detail@boost@@@8 	 DATA
	??_R0?AV?$sp_counted_impl_pd@PAVEventAction@Action@Core@@V?$sp_ms_deleter@VEventAction@Action@Core@@@detail@boost@@@detail@boost@@@8 	 DATA
	??_R0?AV?$sp_counted_impl_pd@PAVEventHandler@Event@Core@@V?$sp_ms_deleter@VEventHandler@Event@Core@@@detail@boost@@@detail@boost@@@8 	 DATA
	??_R0?AV?$sp_counted_impl_pd@PAVEventItemAction@Action@Core@@V?$sp_ms_deleter@VEventItemAction@Action@Core@@@detail@boost@@@detail@boost@@@8 	 DATA
	??_R0?AV?$sp_counted_impl_pd@PAVEventObject@Entity@Core@@V?$sp_ms_deleter@VEventObject@Entity@Core@@@detail@boost@@@detail@boost@@@8 	 DATA
	??_R0?AV?$sp_counted_impl_pd@PAVExdDataGenerated@Data@Core@@V?$sp_ms_deleter@VExdDataGenerated@Data@Core@@@detail@boost@@@detail@boost@@@8 	 DATA
	??_R0?AV?$sp_counted_impl_pd@PAVGamePacket@Packets@Network@Core@@V?$sp_ms_deleter@VGamePacket@Packets@Network@Core@@@detail@boost@@@detail@boost@@@8 	 DATA
	??_R0?AV?$sp_counted_impl_pd@PAVInstanceContent@Core@@V?$sp_ms_deleter@VInstanceContent@Core@@@detail@boost@@@detail@boost@@@8 	 DATA
	??_R0?AV?$sp_counted_impl_pd@PAVInventory@Core@@V?$sp_ms_deleter@VInventory@Core@@@detail@boost@@@detail@boost@@@8 	 DATA
	??_R0?AV?$sp_counted_impl_pd@PAVItemContainer@Core@@V?$sp_ms_deleter@VItemContainer@Core@@@detail@boost@@@detail@boost@@@8 	 DATA
	??_R0?AV?$sp_counted_impl_pd@PAVLinkshell@Core@@V?$sp_ms_deleter@VLinkshell@Core@@@detail@boost@@@detail@boost@@@8 	 DATA
	??_R0?AV?$sp_counted_impl_pd@PAVLinkshellMgr@Core@@V?$sp_ms_deleter@VLinkshellMgr@Core@@@detail@boost@@@detail@boost@@@8 	 DATA
	??_R0?AV?$sp_counted_impl_pd@PAVLogger@Core@@V?$sp_ms_deleter@VLogger@Core@@@detail@boost@@@detail@boost@@@8 	 DATA
	??_R0?AV?$sp_counted_impl_pd@PAVNativeScriptMgr@Scripting@Core@@V?$sp_ms_deleter@VNativeScriptMgr@Scripting@Core@@@detail@boost@@@detail@boost@@@8 	 DATA
	??_R0?AV?$sp_counted_impl_pd@PAVPlayer@Entity@Core@@V?$sp_ms_deleter@VPlayer@Entity@Core@@@detail@boost@@@detail@boost@@@8 	 DATA
	??_R0?AV?$sp_counted_impl_pd@PAVScriptMgr@Scripting@Core@@V?$sp_ms_deleter@VScriptMgr@Scripting@Core@@@detail@boost@@@detail@boost@@@8 	 DATA
	??_R0?AV?$sp_counted_impl_pd@PAVServerZone@Core@@V?$sp_ms_deleter@VServerZone@Core@@@detail@boost@@@detail@boost@@@8 	 DATA
	??_R0?AV?$sp_counted_impl_pd@PAVStatusEffect@1Core@@V?$sp_ms_deleter@VStatusEffect@1Core@@@detail@boost@@@detail@boost@@@8 	 DATA
	??_R0?AV?$sp_counted_impl_pd@PAVTerritoryMgr@Core@@V?$sp_ms_deleter@VTerritoryMgr@Core@@@detail@boost@@@detail@boost@@@8 	 DATA
	??_R0?AV?$sp_counted_impl_pd@PAVXMLConfig@Core@@V?$sp_ms_deleter@VXMLConfig@Core@@@detail@boost@@@detail@boost@@@8 	 DATA
	??_R0?AV?$sp_counted_impl_pd@PAVZone@Core@@V?$sp_ms_deleter@VZone@Core@@@detail@boost@@@detail@boost@@@8 	 DATA
	??_R0?AV?$sp_counted_impl_pd@PAVZonePosition@Core@@V?$sp_ms_deleter@VZonePosition@Core@@@detail@boost@@@detail@boost@@@8 	 DATA
	??_R0?AV?$sp_ms_deleter@UAction@Data@Core@@@detail@boost@@@8 	 DATA
	??_R0?AV?$sp_ms_deleter@UAetheryte@Data@Core@@@detail@boost@@@8 	 DATA
	??_R0?AV?$sp_ms_deleter@UClassJob@Data@Core@@@detail@boost@@@8 	 DATA
	??_R0?AV?$sp_ms_deleter@UContentFinderCondition@Data@Core@@@detail@boost@@@8 	 DATA
	??_R0?AV?$sp_ms_deleter@UCustomTalk@Data@Core@@@detail@boost@@@8 	 DATA
	??_R0?AV?$sp_ms_deleter@UEObj@Data@Core@@@detail@boost@@@8 	 DATA
	??_R0?AV?$sp_ms_deleter@UEventAction@Data@Core@@@detail@boost@@@8 	 DATA
	??_R0?AV?$sp_ms_deleter@UEventItem@Data@Core@@@detail@boost@@@8 	 DATA
	??_R0?AV?$sp_ms_deleter@UInstanceContent@Data@Core@@@detail@boost@@@8 	 DATA
	??_R0?AV?$sp_ms_deleter@UItem@Data@Core@@@detail@boost@@@8 	 DATA
	??_R0?AV?$sp_ms_deleter@ULevel@Data@Core@@@detail@boost@@@8 	 DATA
	??_R0?AV?$sp_ms_deleter@UMap@Data@Core@@@detail@boost@@@8 	 DATA
	??_R0?AV?$sp_ms_deleter@UOnlineStatus@Data@Core@@@detail@boost@@@8 	 DATA
	??_R0?AV?$sp_ms_deleter@UOpening@Data@Core@@@detail@boost@@@8 	 DATA
	??_R0?AV?$sp_ms_deleter@UParamGrow@Data@Core@@@detail@boost@@@8 	 DATA
	??_R0?AV?$sp_ms_deleter@UPlaceName@Data@Core@@@detail@boost@@@8 	 DATA
	??_R0?AV?$sp_ms_deleter@UQuest@Data@Core@@@detail@boost@@@8 	 DATA
	??_R0?AV?$sp_ms_deleter@UQueuedZoning@Entity@Core@@@detail@boost@@@8 	 DATA
	??_R0?AV?$sp_ms_deleter@UStatus@Data@Core@@@detail@boost@@@8 	 DATA
	??_R0?AV?$sp_ms_deleter@UTerritoryType@Data@Core@@@detail@boost@@@8 	 DATA
	??_R0?AV?$sp_ms_deleter@UTribe@Data@Core@@@detail@boost@@@8 	 DATA
	??_R0?AV?$sp_ms_deleter@V?$DbWorkerPool@VCharaDbConnection@Db@Core@@@Db@Core@@@detail@boost@@@8 	 DATA
	??_R0?AV?$sp_ms_deleter@VActionCast@Action@Core@@@detail@boost@@@8 	 DATA
	??_R0?AV?$sp_ms_deleter@VActionMount@Action@Core@@@detail@boost@@@8 	 DATA
	??_R0?AV?$sp_ms_deleter@VActionTeleport@Action@Core@@@detail@boost@@@8 	 DATA
	??_R0?AV?$sp_ms_deleter@VDebugCommand@Core@@@detail@boost@@@8 	 DATA
	??_R0?AV?$sp_ms_deleter@VDebugCommandHandler@Core@@@detail@boost@@@8 	 DATA
	??_R0?AV?$sp_ms_deleter@VEventAction@Action@Core@@@detail@boost@@@8 	 DATA
	??_R0?AV?$sp_ms_deleter@VEventHandler@Event@Core@@@detail@boost@@@8 	 DATA
	??_R0?AV?$sp_ms_deleter@VEventItemAction@Action@Core@@@detail@boost@@@8 	 DATA
	??_R0?AV?$sp_ms_deleter@VEventObject@Entity@Core@@@detail@boost@@@8 	 DATA
	??_R0?AV?$sp_ms_deleter@VExdDataGenerated@Data@Core@@@detail@boost@@@8 	 DATA
	??_R0?AV?$sp_ms_deleter@VGamePacket@Packets@Network@Core@@@detail@boost@@@8 	 DATA
	??_R0?AV?$sp_ms_deleter@VInstanceContent@Core@@@detail@boost@@@8 	 DATA
	??_R0?AV?$sp_ms_deleter@VInventory@Core@@@detail@boost@@@8 	 DATA
	??_R0?AV?$sp_ms_deleter@VItemContainer@Core@@@detail@boost@@@8 	 DATA
	??_R0?AV?$sp_ms_deleter@VLinkshell@Core@@@detail@boost@@@8 	 DATA
	??_R0?AV?$sp_ms_deleter@VLinkshellMgr@Core@@@detail@boost@@@8 	 DATA
	??_R0?AV?$sp_ms_deleter@VLogger@Core@@@detail@boost@@@8 	 DATA
	??_R0?AV?$sp_ms_deleter@VNativeScriptMgr@Scripting@Core@@@detail@boost@@@8 	 DATA
	??_R0?AV?$sp_ms_deleter@VPlayer@Entity@Core@@@detail@boost@@@8 	 DATA
	??_R0?AV?$sp_ms_deleter@VScriptMgr@Scripting@Core@@@detail@boost@@@8 	 DATA
	??_R0?AV?$sp_ms_deleter@VServerZone@Core@@@detail@boost@@@8 	 DATA
	??_R0?AV?$sp_ms_deleter@VStatusEffect@1Core@@@detail@boost@@@8 	 DATA
	??_R0?AV?$sp_ms_deleter@VTerritoryMgr@Core@@@detail@boost@@@8 	 DATA
	??_R0?AV?$sp_ms_deleter@VXMLConfig@Core@@@detail@boost@@@8 	 DATA
	??_R0?AV?$sp_ms_deleter@VZone@Core@@@detail@boost@@@8 	 DATA
	??_R0?AV?$sp_ms_deleter@VZonePosition@Core@@@detail@boost@@@8 	 DATA
	??_R0?AV?$string_path@V?$basic_string@DU?$char_traits@D@std@@V?$allocator@D@2@@std@@U?$id_translator@V?$basic_string@DU?$char_traits@D@std@@V?$allocator@D@2@@std@@@property_tree@boost@@@property_tree@boost@@@8 	 DATA
	??_R0?AVAction@0Core@@@8 	 DATA
	??_R0?AVActionCast@Action@Core@@@8 	 DATA
	??_R0?AVActionMount@Action@Core@@@8 	 DATA
	??_R0?AVActionScript@@@8 	 DATA
	??_R0?AVActionTeleport@Action@Core@@@8 	 DATA
	??_R0?AVActor@Entity@Core@@@8 	 DATA
	??_R0?AVActorControlPacket142@Server@Packets@Network@Core@@@8 	 DATA
	??_R0?AVActorControlPacket143@Server@Packets@Network@Core@@@8 	 DATA
	??_R0?AVActorControlPacket144@Server@Packets@Network@Core@@@8 	 DATA
	??_R0?AVChara@Entity@Core@@@8 	 DATA
	??_R0?AVChatPacket@Server@Packets@Network@Core@@@8 	 DATA
	??_R0?AVConnection@Network@Core@@@8 	 DATA
	??_R0?AVDebugCommandHandler@Core@@@8 	 DATA
	??_R0?AVDirector@Event@Core@@@8 	 DATA
	??_R0?AVDirectorPlayScenePacket@Server@Packets@Network@Core@@@8 	 DATA
	??_R0?AVEventAction@Action@Core@@@8 	 DATA
	??_R0?AVEventFinishPacket@Server@Packets@Network@Core@@@8 	 DATA
	??_R0?AVEventItemAction@Action@Core@@@8 	 DATA
	??_R0?AVEventObject@Entity@Core@@@8 	 DATA
	??_R0?AVEventPlayPacket@Server@Packets@Network@Core@@@8 	 DATA
	??_R0?AVEventScript@@@8 	 DATA
	??_R0?AVEventStartPacket@Server@Packets@Network@Core@@@8 	 DATA
	??_R0?AVExdDataGenerated@Data@Core@@@8 	 DATA
	??_R0?AVGameConnection@Network@Core@@@8 	 DATA
	??_R0?AVInitUIPacket@Server@Packets@Network@Core@@@8 	 DATA
	??_R0?AVInstanceContent@Core@@@8 	 DATA
	??_R0?AVInstanceContentScript@@@8 	 DATA
	??_R0?AVLinkshellMgr@Core@@@8 	 DATA
	??_R0?AVLogger@Core@@@8 	 DATA
	??_R0?AVModelEquipPacket@Server@Packets@Network@Core@@@8 	 DATA
	??_R0?AVMoveActorPacket@Server@Packets@Network@Core@@@8 	 DATA
	??_R0?AVNo_Op@?$basic_oaltstringstream@DU?$char_traits@D@std@@V?$allocator@D@2@@io@boost@@@8 	 DATA
	??_R0?AVPingPacket@Server@Packets@Network@Core@@@8 	 DATA
	??_R0?AVPlayer@Entity@Core@@@8 	 DATA
	??_R0?AVPlayerSpawnPacket@Server@Packets@Network@Core@@@8 	 DATA
	??_R0?AVPlayerStateFlagsPacket@Server@Packets@Network@Core@@@8 	 DATA
	??_R0?AVQuestMessagePacket@Server@Packets@Network@Core@@@8 	 DATA
	??_R0?AVScriptMgr@Scripting@Core@@@8 	 DATA
	??_R0?AVScriptObject@@@8 	 DATA
	??_R0?AVServerNoticePacket@Server@Packets@Network@Core@@@8 	 DATA
	??_R0?AVServerZone@Core@@@8 	 DATA
	??_R0?AVStatusEffectScript@@@8 	 DATA
	??_R0?AVTerritoryMgr@Core@@@8 	 DATA
	??_R0?AVUpdateHpMpTpPacket@Server@Packets@Network@Core@@@8 	 DATA
	??_R0?AVWatchedFileSystemExc@@@8 	 DATA
	??_R0?AVXMLConfig@Core@@@8 	 DATA
	??_R0?AVZone@Core@@@8 	 DATA
	??_R0?AVZonePosition@Core@@@8 	 DATA
	??_R0?AVZoneScript@@@8 	 DATA
	??_R0?AV_Facet_base@std@@@8 	 DATA
	??_R0?AV_Pad@std@@@8 	 DATA
	??_R0?AVbad_cast@std@@@8 	 DATA
	??_R0?AVbad_format_string@io@boost@@@8 	 DATA
	??_R0?AVbad_get@boost@@@8 	 DATA
	??_R0?AVbad_lexical_cast@boost@@@8 	 DATA
	??_R0?AVbad_weak_ptr@boost@@@8 	 DATA
	??_R0?AVclone_base@exception_detail@boost@@@8 	 DATA
	??_R0?AVerror_category@system@boost@@@8 	 DATA
	??_R0?AVexception@boost@@@8 	 DATA
	??_R0?AVexception@std@@@8 	 DATA
	??_R0?AVfacet@locale@std@@@8 	 DATA
	??_R0?AVfilesystem_error@filesystem@boost@@@8 	 DATA
	??_R0?AVformat_error@io@boost@@@8 	 DATA
	??_R0?AVios_base@std@@@8 	 DATA
	??_R0?AVmisc_category@detail@error@asio@boost@@@8 	 DATA
	??_R0?AVnoncopyable@noncopyable_@boost@@@8 	 DATA
	??_R0?AVplaceholder@any@boost@@@8 	 DATA
	??_R0?AVptree_bad_data@property_tree@boost@@@8 	 DATA
	??_R0?AVptree_bad_path@property_tree@boost@@@8 	 DATA
	??_R0?AVptree_error@property_tree@boost@@@8 	 DATA
	??_R0?AVruntime_error@std@@@8 	 DATA
	??_R0?AVsp_counted_base@detail@boost@@@8 	 DATA
	??_R0?AVsystem_error@system@boost@@@8 	 DATA
	??_R0?AVtoo_few_args@io@boost@@@8 	 DATA
	??_R0?AVtoo_many_args@io@boost@@@8 	 DATA
	??_R0E@8 	 DATA
	??_R0G@8 	 DATA
	??_R0I@8 	 DATA
	??_R0PAD@8 	 DATA
	??_R0_N@8 	 DATA
	?_OptionsStorage@?1??__local_stdio_printf_options@@9@4_KA 	 DATA
	?_OptionsStorage@?1??__local_stdio_scanf_options@@9@4_KA 	 DATA
	?_Psave@?$_Facetptr@V?$ctype@D@std@@@std@@2PBVfacet@locale@2@B 	 DATA
	?_Psave@?$_Facetptr@V?$numpunct@D@std@@@std@@2PBVfacet@locale@2@B 	 DATA
	?bytes_transferred@?A0x04f05224@placeholders@asio@boost@@3AAU?$arg@$01@4@A 	 DATA
	?bytes_transferred@?A0x09a5c628@placeholders@asio@boost@@3AAU?$arg@$01@4@A 	 DATA
	?bytes_transferred@?A0x0ca58bb3@placeholders@asio@boost@@3AAU?$arg@$01@4@A 	 DATA
	?bytes_transferred@?A0x0ef27b67@placeholders@asio@boost@@3AAU?$arg@$01@4@A 	 DATA
	?bytes_transferred@?A0x1ff7cc77@placeholders@asio@boost@@3AAU?$arg@$01@4@A 	 DATA
	?bytes_transferred@?A0x48d189a2@placeholders@asio@boost@@3AAU?$arg@$01@4@A 	 DATA
	?bytes_transferred@?A0x5ff7ce98@placeholders@asio@boost@@3AAU?$arg@$01@4@A 	 DATA
	?bytes_transferred@?A0x61820861@placeholders@asio@boost@@3AAU?$arg@$01@4@A 	 DATA
	?bytes_transferred@?A0x64a20eff@placeholders@asio@boost@@3AAU?$arg@$01@4@A 	 DATA
	?bytes_transferred@?A0x68453791@placeholders@asio@boost@@3AAU?$arg@$01@4@A 	 DATA
	?bytes_transferred@?A0x6a8bc411@placeholders@asio@boost@@3AAU?$arg@$01@4@A 	 DATA
	?bytes_transferred@?A0x7043e838@placeholders@asio@boost@@3AAU?$arg@$01@4@A 	 DATA
	?bytes_transferred@?A0x8de0ce92@placeholders@asio@boost@@3AAU?$arg@$01@4@A 	 DATA
	?bytes_transferred@?A0xb2d73f6d@placeholders@asio@boost@@3AAU?$arg@$01@4@A 	 DATA
	?bytes_transferred@?A0xbc44eeb7@placeholders@asio@boost@@3AAU?$arg@$01@4@A 	 DATA
	?bytes_transferred@?A0xcfecebff@placeholders@asio@boost@@3AAU?$arg@$01@4@A 	 DATA
	?bytes_transferred@?A0xfbf80bc1@placeholders@asio@boost@@3AAU?$arg@$01@4@A 	 DATA
	?bytes_transferred@?A0xfe5c176b@placeholders@asio@boost@@3AAU?$arg@$01@4@A 	 DATA
	?data_@?$winsock_init@$01$0A@@detail@asio@boost@@0Udata@winsock_init_base@234@A 	 DATA
	?error@?A0x04f05224@placeholders@asio@boost@@3AAU?$arg@$00@4@A 	 DATA
	?error@?A0x09a5c628@placeholders@asio@boost@@3AAU?$arg@$00@4@A 	 DATA
	?error@?A0x0ca58bb3@placeholders@asio@boost@@3AAU?$arg@$00@4@A 	 DATA
	?error@?A0x0ef27b67@placeholders@asio@boost@@3AAU?$arg@$00@4@A 	 DATA
	?error@?A0x1ff7cc77@placeholders@asio@boost@@3AAU?$arg@$00@4@A 	 DATA
	?error@?A0x48d189a2@placeholders@asio@boost@@3AAU?$arg@$00@4@A 	 DATA
	?error@?A0x5ff7ce98@placeholders@asio@boost@@3AAU?$arg@$00@4@A 	 DATA
	?error@?A0x61820861@placeholders@asio@boost@@3AAU?$arg@$00@4@A 	 DATA
	?error@?A0x64a20eff@placeholders@asio@boost@@3AAU?$arg@$00@4@A 	 DATA
	?error@?A0x68453791@placeholders@asio@boost@@3AAU?$arg@$00@4@A 	 DATA
	?error@?A0x6a8bc411@placeholders@asio@boost@@3AAU?$arg@$00@4@A 	 DATA
	?error@?A0x7043e838@placeholders@asio@boost@@3AAU?$arg@$00@4@A 	 DATA
	?error@?A0x8de0ce92@placeholders@asio@boost@@3AAU?$arg@$00@4@A 	 DATA
	?error@?A0xb2d73f6d@placeholders@asio@boost@@3AAU?$arg@$00@4@A 	 DATA
	?error@?A0xbc44eeb7@placeholders@asio@boost@@3AAU?$arg@$00@4@A 	 DATA
	?error@?A0xcfecebff@placeholders@asio@boost@@3AAU?$arg@$00@4@A 	 DATA
	?error@?A0xfbf80bc1@placeholders@asio@boost@@3AAU?$arg@$00@4@A 	 DATA
	?error@?A0xfe5c176b@placeholders@asio@boost@@3AAU?$arg@$00@4@A 	 DATA
	?g_fw@@3VFramework@Core@@A 	 DATA
	?id@?$service_base@Vselect_reactor@detail@asio@boost@@@detail@asio@boost@@2V?$service_id@Vselect_reactor@detail@asio@boost@@@234@A 	 DATA
	?id@?$service_base@Vstrand_service@detail@asio@boost@@@detail@asio@boost@@2V?$service_id@Vstrand_service@detail@asio@boost@@@234@A 	 DATA
	?id@?$service_base@Vwin_iocp_io_service@detail@asio@boost@@@detail@asio@boost@@2V?$service_id@Vwin_iocp_io_service@detail@asio@boost@@@234@A 	 DATA
	?instance@?1??get_misc_category@error@asio@boost@@YAABVerror_category@system@4@XZ@4Vmisc_category@detail@234@A 	 DATA
	?iterator@?A0x04f05224@placeholders@asio@boost@@3AAU?$arg@$01@4@A 	 DATA
	?iterator@?A0x09a5c628@placeholders@asio@boost@@3AAU?$arg@$01@4@A 	 DATA
	?iterator@?A0x0ca58bb3@placeholders@asio@boost@@3AAU?$arg@$01@4@A 	 DATA
	?iterator@?A0x0ef27b67@placeholders@asio@boost@@3AAU?$arg@$01@4@A 	 DATA
	?iterator@?A0x1ff7cc77@placeholders@asio@boost@@3AAU?$arg@$01@4@A 	 DATA
	?iterator@?A0x48d189a2@placeholders@asio@boost@@3AAU?$arg@$01@4@A 	 DATA
	?iterator@?A0x5ff7ce98@placeholders@asio@boost@@3AAU?$arg@$01@4@A 	 DATA
	?iterator@?A0x61820861@placeholders@asio@boost@@3AAU?$arg@$01@4@A 	 DATA
	?iterator@?A0x64a20eff@placeholders@asio@boost@@3AAU?$arg@$01@4@A 	 DATA
	?iterator@?A0x68453791@placeholders@asio@boost@@3AAU?$arg@$01@4@A 	 DATA
	?iterator@?A0x6a8bc411@placeholders@asio@boost@@3AAU?$arg@$01@4@A 	 DATA
	?iterator@?A0x7043e838@placeholders@asio@boost@@3AAU?$arg@$01@4@A 	 DATA
	?iterator@?A0x8de0ce92@placeholders@asio@boost@@3AAU?$arg@$01@4@A 	 DATA
	?iterator@?A0xb2d73f6d@placeholders@asio@boost@@3AAU?$arg@$01@4@A 	 DATA
	?iterator@?A0xbc44eeb7@placeholders@asio@boost@@3AAU?$arg@$01@4@A 	 DATA
	?iterator@?A0xcfecebff@placeholders@asio@boost@@3AAU?$arg@$01@4@A 	 DATA
	?iterator@?A0xfbf80bc1@placeholders@asio@boost@@3AAU?$arg@$01@4@A 	 DATA
	?iterator@?A0xfe5c176b@placeholders@asio@boost@@3AAU?$arg@$01@4@A 	 DATA
	?result@?1??get@?$placeholder@$00@detail@placeholders@asio@boost@@SAAAU?$arg@$00@6@XZ@4U76@A 	 DATA
	?result@?1??get@?$placeholder@$01@detail@placeholders@asio@boost@@SAAAU?$arg@$01@6@XZ@4U76@A 	 DATA
	?severity@?A0x04f05224@keywords@v2s_mt_nt6@log@boost@@3ABU?$keyword@Useverity@tag@keywords@v2s_mt_nt6@log@boost@@@parameter@5@B 	 DATA
	?severity@?A0x09a5c628@keywords@v2s_mt_nt6@log@boost@@3ABU?$keyword@Useverity@tag@keywords@v2s_mt_nt6@log@boost@@@parameter@5@B 	 DATA
	?severity@?A0x0ca58bb3@keywords@v2s_mt_nt6@log@boost@@3ABU?$keyword@Useverity@tag@keywords@v2s_mt_nt6@log@boost@@@parameter@5@B 	 DATA
	?severity@?A0x0ef27b67@keywords@v2s_mt_nt6@log@boost@@3ABU?$keyword@Useverity@tag@keywords@v2s_mt_nt6@log@boost@@@parameter@5@B 	 DATA
	?severity@?A0x131c31d0@keywords@v2s_mt_nt6@log@boost@@3ABU?$keyword@Useverity@tag@keywords@v2s_mt_nt6@log@boost@@@parameter@5@B 	 DATA
	?severity@?A0x1ff7cc77@keywords@v2s_mt_nt6@log@boost@@3ABU?$keyword@Useverity@tag@keywords@v2s_mt_nt6@log@boost@@@parameter@5@B 	 DATA
	?severity@?A0x24a825f3@keywords@v2s_mt_nt6@log@boost@@3ABU?$keyword@Useverity@tag@keywords@v2s_mt_nt6@log@boost@@@parameter@5@B 	 DATA
	?severity@?A0x48d189a2@keywords@v2s_mt_nt6@log@boost@@3ABU?$keyword@Useverity@tag@keywords@v2s_mt_nt6@log@boost@@@parameter@5@B 	 DATA
	?severity@?A0x5de537c7@keywords@v2s_mt_nt6@log@boost@@3ABU?$keyword@Useverity@tag@keywords@v2s_mt_nt6@log@boost@@@parameter@5@B 	 DATA
	?severity@?A0x5ff7ce98@keywords@v2s_mt_nt6@log@boost@@3ABU?$keyword@Useverity@tag@keywords@v2s_mt_nt6@log@boost@@@parameter@5@B 	 DATA
	?severity@?A0x6448883d@keywords@v2s_mt_nt6@log@boost@@3ABU?$keyword@Useverity@tag@keywords@v2s_mt_nt6@log@boost@@@parameter@5@B 	 DATA
	?severity@?A0x64a20eff@keywords@v2s_mt_nt6@log@boost@@3ABU?$keyword@Useverity@tag@keywords@v2s_mt_nt6@log@boost@@@parameter@5@B 	 DATA
	?severity@?A0x66b3fb6b@keywords@v2s_mt_nt6@log@boost@@3ABU?$keyword@Useverity@tag@keywords@v2s_mt_nt6@log@boost@@@parameter@5@B 	 DATA
	?severity@?A0x6a8bc411@keywords@v2s_mt_nt6@log@boost@@3ABU?$keyword@Useverity@tag@keywords@v2s_mt_nt6@log@boost@@@parameter@5@B 	 DATA
	?severity@?A0x6be2b8b1@keywords@v2s_mt_nt6@log@boost@@3ABU?$keyword@Useverity@tag@keywords@v2s_mt_nt6@log@boost@@@parameter@5@B 	 DATA
	?severity@?A0x6c4b20d1@keywords@v2s_mt_nt6@log@boost@@3ABU?$keyword@Useverity@tag@keywords@v2s_mt_nt6@log@boost@@@parameter@5@B 	 DATA
	?severity@?A0x6cab3477@keywords@v2s_mt_nt6@log@boost@@3ABU?$keyword@Useverity@tag@keywords@v2s_mt_nt6@log@boost@@@parameter@5@B 	 DATA
	?severity@?A0x7043e838@keywords@v2s_mt_nt6@log@boost@@3ABU?$keyword@Useverity@tag@keywords@v2s_mt_nt6@log@boost@@@parameter@5@B 	 DATA
	?severity@?A0x8de0ce92@keywords@v2s_mt_nt6@log@boost@@3ABU?$keyword@Useverity@tag@keywords@v2s_mt_nt6@log@boost@@@parameter@5@B 	 DATA
	?severity@?A0x990a3737@keywords@v2s_mt_nt6@log@boost@@3ABU?$keyword@Useverity@tag@keywords@v2s_mt_nt6@log@boost@@@parameter@5@B 	 DATA
	?severity@?A0x9d7746b4@keywords@v2s_mt_nt6@log@boost@@3ABU?$keyword@Useverity@tag@keywords@v2s_mt_nt6@log@boost@@@parameter@5@B 	 DATA
	?severity@?A0xa2aba0dd@keywords@v2s_mt_nt6@log@boost@@3ABU?$keyword@Useverity@tag@keywords@v2s_mt_nt6@log@boost@@@parameter@5@B 	 DATA
	?severity@?A0xac2d8bad@keywords@v2s_mt_nt6@log@boost@@3ABU?$keyword@Useverity@tag@keywords@v2s_mt_nt6@log@boost@@@parameter@5@B 	 DATA
	?severity@?A0xb052613a@keywords@v2s_mt_nt6@log@boost@@3ABU?$keyword@Useverity@tag@keywords@v2s_mt_nt6@log@boost@@@parameter@5@B 	 DATA
	?severity@?A0xb2d73f6d@keywords@v2s_mt_nt6@log@boost@@3ABU?$keyword@Useverity@tag@keywords@v2s_mt_nt6@log@boost@@@parameter@5@B 	 DATA
	?severity@?A0xb9c6a895@keywords@v2s_mt_nt6@log@boost@@3ABU?$keyword@Useverity@tag@keywords@v2s_mt_nt6@log@boost@@@parameter@5@B 	 DATA
	?severity@?A0xbc44eeb7@keywords@v2s_mt_nt6@log@boost@@3ABU?$keyword@Useverity@tag@keywords@v2s_mt_nt6@log@boost@@@parameter@5@B 	 DATA
	?severity@?A0xcb11f8fd@keywords@v2s_mt_nt6@log@boost@@3ABU?$keyword@Useverity@tag@keywords@v2s_mt_nt6@log@boost@@@parameter@5@B 	 DATA
	?severity@?A0xcb94fe82@keywords@v2s_mt_nt6@log@boost@@3ABU?$keyword@Useverity@tag@keywords@v2s_mt_nt6@log@boost@@@parameter@5@B 	 DATA
	?severity@?A0xf3c5214a@keywords@v2s_mt_nt6@log@boost@@3ABU?$keyword@Useverity@tag@keywords@v2s_mt_nt6@log@boost@@@parameter@5@B 	 DATA
	?severity@?A0xfbf80bc1@keywords@v2s_mt_nt6@log@boost@@3ABU?$keyword@Useverity@tag@keywords@v2s_mt_nt6@log@boost@@@parameter@5@B 	 DATA
	?signal_number@?A0x04f05224@placeholders@asio@boost@@3AAU?$arg@$01@4@A 	 DATA
	?signal_number@?A0x09a5c628@placeholders@asio@boost@@3AAU?$arg@$01@4@A 	 DATA
	?signal_number@?A0x0ca58bb3@placeholders@asio@boost@@3AAU?$arg@$01@4@A 	 DATA
	?signal_number@?A0x0ef27b67@placeholders@asio@boost@@3AAU?$arg@$01@4@A 	 DATA
	?signal_number@?A0x1ff7cc77@placeholders@asio@boost@@3AAU?$arg@$01@4@A 	 DATA
	?signal_number@?A0x48d189a2@placeholders@asio@boost@@3AAU?$arg@$01@4@A 	 DATA
	?signal_number@?A0x5ff7ce98@placeholders@asio@boost@@3AAU?$arg@$01@4@A 	 DATA
	?signal_number@?A0x61820861@placeholders@asio@boost@@3AAU?$arg@$01@4@A 	 DATA
	?signal_number@?A0x64a20eff@placeholders@asio@boost@@3AAU?$arg@$01@4@A 	 DATA
	?signal_number@?A0x68453791@placeholders@asio@boost@@3AAU?$arg@$01@4@A 	 DATA
	?signal_number@?A0x6a8bc411@placeholders@asio@boost@@3AAU?$arg@$01@4@A 	 DATA
	?signal_number@?A0x7043e838@placeholders@asio@boost@@3AAU?$arg@$01@4@A 	 DATA
	?signal_number@?A0x8de0ce92@placeholders@asio@boost@@3AAU?$arg@$01@4@A 	 DATA
	?signal_number@?A0xb2d73f6d@placeholders@asio@boost@@3AAU?$arg@$01@4@A 	 DATA
	?signal_number@?A0xbc44eeb7@placeholders@asio@boost@@3AAU?$arg@$01@4@A 	 DATA
	?signal_number@?A0xcfecebff@placeholders@asio@boost@@3AAU?$arg@$01@4@A 	 DATA
	?signal_number@?A0xfbf80bc1@placeholders@asio@boost@@3AAU?$arg@$01@4@A 	 DATA
	?signal_number@?A0xfe5c176b@placeholders@asio@boost@@3AAU?$arg@$01@4@A 	 DATA
	?state@?1??get_signal_state@detail@asio@boost@@YAPAUsignal_state@234@XZ@4U5234@A 	 DATA
	?t@?1???$to_ptr@U?$pair@Vdirectory_iterator@filesystem@boost@@V123@@std@@@foreach_detail_@boost@@YAAAPAU?$pair@Vdirectory_iterator@filesystem@boost@@V123@@std@@ABU34@@Z@4PAU34@A 	 DATA
	?top_@?$call_stack@Vstrand_impl@strand_service@detail@asio@boost@@E@detail@asio@boost@@0V?$tss_ptr@Vcontext@?$call_stack@Vstrand_impl@strand_service@detail@asio@boost@@E@detail@asio@boost@@@234@A 	 DATA
	?top_@?$call_stack@Vwin_iocp_io_service@detail@asio@boost@@Uwin_iocp_thread_info@234@@detail@asio@boost@@0V?$tss_ptr@Vcontext@?$call_stack@Vwin_iocp_io_service@detail@asio@boost@@Uwin_iocp_thread_info@234@@detail@asio@boost@@@234@A 	 DATA
	?wd@?1??watchImpl@Watchdog@@KAXABVpath@filesystem@boost@@ABV?$function@$$A6AXABVpath@filesystem@boost@@@Z@std@@ABV?$function@$$A6AXABV?$vector@Vpath@filesystem@boost@@V?$allocator@Vpath@filesystem@boost@@@std@@@std@@@Z@7@@Z@4V2@A 	 DATA
	??$?0$$CBI@?$put_holder@DU?$char_traits@D@std@@@detail@io@boost@@QAE@ABI@Z
	??$?0$$CBV?$basic_string@DU?$char_traits@D@std@@V?$allocator@D@2@@std@@@?$_Tuple_val@V?$basic_string@DU?$char_traits@D@std@@V?$allocator@D@2@@std@@@std@@QAE@$$QBV?$basic_string@DU?$char_traits@D@std@@V?$allocator@D@2@@1@@Z
	??$?0$$CBV?$basic_string@DU?$char_traits@D@std@@V?$allocator@D@2@@std@@AAPAVScriptInfo@Scripting@Core@@X$0A@@?$pair@V?$basic_string@DU?$char_traits@D@std@@V?$allocator@D@2@@std@@PAVScriptInfo@Scripting@Core@@@std@@QAE@$$QBV?$basic_string@DU?$char_traits@D@std@@V?$allocator@D@2@@1@AAPAVScriptInfo@Scripting@Core@@@Z
	??$?0$$CB_K@?$put_holder@DU?$char_traits@D@std@@@detail@io@boost@@QAE@AB_K@Z
	??$?0$$QAE$$Z$$V@?$pair@$$CBEV?$shared_ptr@VItem@Core@@@boost@@@std@@QAE@Upiecewise_construct_t@1@V?$tuple@$$QAE@1@V?$tuple@$$V@1@@Z
	??$?0$$QAG$$Z$$V@?$pair@$$CBGV?$shared_ptr@VItemContainer@Core@@@boost@@@std@@QAE@Upiecewise_construct_t@1@V?$tuple@$$QAG@1@V?$tuple@$$V@1@@Z
	??$?0$$QAG$$Z$$V@?$pair@$$CBGV?$unordered_map@IV?$shared_ptr@VZone@Core@@@boost@@U?$hash@I@std@@U?$equal_to@I@4@V?$allocator@U?$pair@$$CBIV?$shared_ptr@VZone@Core@@@boost@@@std@@@4@@std@@@std@@QAE@Upiecewise_construct_t@1@V?$tuple@$$QAG@1@V?$tuple@$$V@1@@Z
	??$?0$$QAH$$Z$$V@?$pair@$$CBHV?$shared_ptr@VEventObject@Entity@Core@@@boost@@@std@@QAE@Upiecewise_construct_t@1@V?$tuple@$$QAH@1@V?$tuple@$$V@1@@Z
	??$?0$$QAH$$Z$$V@?$pair@$$CBHV?$shared_ptr@VPlayer@Entity@Core@@@boost@@@std@@QAE@Upiecewise_construct_t@1@V?$tuple@$$QAH@1@V?$tuple@$$V@1@@Z
	??$?0$$QAI$$Z$$V@?$pair@$$CBII@std@@QAE@Upiecewise_construct_t@1@V?$tuple@$$QAI@1@V?$tuple@$$V@1@@Z
	??$?0$$QAI$$Z$$V@?$pair@$$CBIPAVScriptObject@@@std@@QAE@Upiecewise_construct_t@1@V?$tuple@$$QAI@1@V?$tuple@$$V@1@@Z
	??$?0$$QAI$$Z$$V@?$pair@$$CBIV?$shared_ptr@VEventHandler@Event@Core@@@boost@@@std@@QAE@Upiecewise_construct_t@1@V?$tuple@$$QAI@1@V?$tuple@$$V@1@@Z
	??$?0$$QAI$$Z$$V@?$pair@$$CBIV?$shared_ptr@VZone@Core@@@boost@@@std@@QAE@Upiecewise_construct_t@1@V?$tuple@$$QAI@1@V?$tuple@$$V@1@@Z
	??$?0$$QAI$$Z$$V@?$pair@$$CBIV?$unordered_map@IPAVScriptObject@@U?$hash@I@std@@U?$equal_to@I@3@V?$allocator@U?$pair@$$CBIPAVScriptObject@@@std@@@3@@std@@@std@@QAE@Upiecewise_construct_t@1@V?$tuple@$$QAI@1@V?$tuple@$$V@1@@Z
	??$?0$$QAV?$basic_string@DU?$char_traits@D@std@@V?$allocator@D@2@@std@@$$Z$$V@?$pair@$$CBV?$basic_string@DU?$char_traits@D@std@@V?$allocator@D@2@@std@@V?$shared_ptr@VDebugCommand@Core@@@boost@@@std@@QAE@Upiecewise_construct_t@1@V?$tuple@$$QAV?$basic_string@DU?$char_traits@D@std@@V?$allocator@D@2@@std@@@1@V?$tuple@$$V@1@@Z
	??$?0$$QAV?$basic_string@DU?$char_traits@D@std@@V?$allocator@D@2@@std@@$$Z$$V@?$pair@$$CBV?$basic_string@DU?$char_traits@D@std@@V?$allocator@D@2@@std@@V?$shared_ptr@VSession@Core@@@boost@@@std@@QAE@Upiecewise_construct_t@1@V?$tuple@$$QAV?$basic_string@DU?$char_traits@D@std@@V?$allocator@D@2@@std@@@1@V?$tuple@$$V@1@@Z
	??$?0$$QAVtype_index@std@@$$Z$$V@?$pair@$$CBVtype_index@std@@V?$shared_ptr@X@boost@@@std@@QAE@Upiecewise_construct_t@1@V?$tuple@$$QAVtype_index@std@@@1@V?$tuple@$$V@1@@Z
	??$?0$$V@?$_Compressed_pair@V?$allocator@D@std@@V?$_Deque_val@U?$_Deque_simple_types@D@std@@@2@$00@std@@QAE@U_Zero_then_variadic_args_t@1@@Z
	??$?0$$V@?$_Compressed_pair@V?$allocator@D@std@@V?$_String_val@U?$_Simple_types@D@std@@@2@$00@std@@QAE@U_Zero_then_variadic_args_t@1@@Z
	??$?0$$V@?$_Compressed_pair@V?$allocator@D@std@@V?$_Vector_val@U?$_Simple_types@D@std@@@2@$00@std@@QAE@U_Zero_then_variadic_args_t@1@@Z
	??$?0$$V@?$_Compressed_pair@V?$allocator@E@std@@V?$_Deque_val@U?$_Deque_simple_types@E@std@@@2@$00@std@@QAE@U_Zero_then_variadic_args_t@1@@Z
	??$?0$$V@?$_Compressed_pair@V?$allocator@E@std@@V?$_Vector_val@U?$_Simple_types@E@std@@@2@$00@std@@QAE@U_Zero_then_variadic_args_t@1@@Z
	??$?0$$V@?$_Compressed_pair@V?$allocator@G@std@@V?$_Vector_val@U?$_Simple_types@G@std@@@2@$00@std@@QAE@U_Zero_then_variadic_args_t@1@@Z
	??$?0$$V@?$_Compressed_pair@V?$allocator@I@std@@V?$_Vector_val@U?$_Simple_types@I@std@@@2@$00@std@@QAE@U_Zero_then_variadic_args_t@1@@Z
	??$?0$$V@?$_Compressed_pair@V?$allocator@PAVScriptObject@@@std@@V?$_Vector_val@U?$_Simple_types@PAVScriptObject@@@std@@@2@$00@std@@QAE@U_Zero_then_variadic_args_t@1@@Z
	??$?0$$V@?$_Compressed_pair@V?$allocator@U?$_Tree_node@IPAX@std@@@std@@V?$_Tree_val@U?$_Tree_simple_types@I@std@@@2@$00@std@@QAE@U_Zero_then_variadic_args_t@1@@Z
	??$?0$$V@?$_Compressed_pair@V?$allocator@U?$_Tree_node@PAVScriptInfo@Scripting@Core@@PAX@std@@@std@@V?$_Tree_val@U?$_Tree_simple_types@PAVScriptInfo@Scripting@Core@@@std@@@2@$00@std@@QAE@U_Zero_then_variadic_args_t@1@@Z
	??$?0$$V@?$_Compressed_pair@V?$allocator@U?$_Tree_node@U?$pair@$$CBEH@std@@PAX@std@@@std@@V?$_Tree_val@U?$_Tree_simple_types@U?$pair@$$CBEH@std@@@std@@@2@$00@std@@QAE@U_Zero_then_variadic_args_t@1@@Z
	??$?0$$V@?$_Compressed_pair@V?$allocator@U?$_Tree_node@U?$pair@$$CBEI@std@@PAX@std@@@std@@V?$_Tree_val@U?$_Tree_simple_types@U?$pair@$$CBEI@std@@@std@@@2@$00@std@@QAE@U_Zero_then_variadic_args_t@1@@Z
	??$?0$$V@?$_Compressed_pair@V?$allocator@U?$_Tree_node@U?$pair@$$CBEV?$shared_ptr@VItem@Core@@@boost@@@std@@PAX@std@@@std@@V?$_Tree_val@U?$_Tree_simple_types@U?$pair@$$CBEV?$shared_ptr@VItem@Core@@@boost@@@std@@@std@@@2@$00@std@@QAE@U_Zero_then_variadic_args_t@1@@Z
	??$?0$$V@?$_Compressed_pair@V?$allocator@U?$_Tree_node@U?$pair@$$CBEV?$shared_ptr@VStatusEffect@1Core@@@boost@@@std@@PAX@std@@@std@@V?$_Tree_val@U?$_Tree_simple_types@U?$pair@$$CBEV?$shared_ptr@VStatusEffect@1Core@@@boost@@@std@@@std@@@2@$00@std@@QAE@U_Zero_then_variadic_args_t@1@@Z
	??$?0$$V@?$_Compressed_pair@V?$allocator@U?$_Tree_node@U?$pair@$$CBGP8GameConnection@Network@Core@@AEXABVGamePacket@Packets@23@AAVPlayer@Entity@3@@Z@std@@PAX@std@@@std@@V?$_Tree_val@U?$_Tree_simple_types@U?$pair@$$CBGP8GameConnection@Network@Core@@AEXABVGamePacket@Packets@23@AAVPlayer@Entity@3@@Z@std@@@std@@@2@$00@std@@QAE@U_Zero_then_variadic_args_t@1@@Z
	??$?0$$V@?$_Compressed_pair@V?$allocator@U?$_Tree_node@U?$pair@$$CBGV?$basic_string@DU?$char_traits@D@std@@V?$allocator@D@2@@std@@@std@@PAX@std@@@std@@V?$_Tree_val@U?$_Tree_simple_types@U?$pair@$$CBGV?$basic_string@DU?$char_traits@D@std@@V?$allocator@D@2@@std@@@std@@@std@@@2@$00@std@@QAE@U_Zero_then_variadic_args_t@1@@Z
	??$?0$$V@?$_Compressed_pair@V?$allocator@U?$_Tree_node@U?$pair@$$CBGV?$shared_ptr@VItemContainer@Core@@@boost@@@std@@PAX@std@@@std@@V?$_Tree_val@U?$_Tree_simple_types@U?$pair@$$CBGV?$shared_ptr@VItemContainer@Core@@@boost@@@std@@@std@@@2@$00@std@@QAE@U_Zero_then_variadic_args_t@1@@Z
	??$?0$$V@?$_Compressed_pair@V?$allocator@U?$_Tree_node@U?$pair@$$CBIE@std@@PAX@std@@@std@@V?$_Tree_val@U?$_Tree_simple_types@U?$pair@$$CBIE@std@@@std@@@2@$00@std@@QAE@U_Zero_then_variadic_args_t@1@@Z
	??$?0$$V@?$_Compressed_pair@V?$allocator@U?$_Tree_node@U?$pair@$$CBII@std@@PAX@std@@@std@@V?$_Tree_val@U?$_Tree_simple_types@U?$pair@$$CBII@std@@@std@@@2@$00@std@@QAE@U_Zero_then_variadic_args_t@1@@Z
	??$?0$$V@?$_Compressed_pair@V?$allocator@U?$_Tree_node@U?$pair@$$CBIV?$shared_ptr@VEventHandler@Event@Core@@@boost@@@std@@PAX@std@@@std@@V?$_Tree_val@U?$_Tree_simple_types@U?$pair@$$CBIV?$shared_ptr@VEventHandler@Event@Core@@@boost@@@std@@@std@@@2@$00@std@@QAE@U_Zero_then_variadic_args_t@1@@Z
	??$?0$$V@?$_Compressed_pair@V?$allocator@U?$_Tree_node@U?$pair@$$CBIV?$shared_ptr@VSession@Core@@@boost@@@std@@PAX@std@@@std@@V?$_Tree_val@U?$_Tree_simple_types@U?$pair@$$CBIV?$shared_ptr@VSession@Core@@@boost@@@std@@@std@@@2@$00@std@@QAE@U_Zero_then_variadic_args_t@1@@Z
	??$?0$$V@?$_Compressed_pair@V?$allocator@U?$_Tree_node@U?$pair@$$CBV?$basic_string@DU?$char_traits@D@std@@V?$allocator@D@2@@std@@V?$shared_ptr@VDebugCommand@Core@@@boost@@@std@@PAX@std@@@std@@V?$_Tree_val@U?$_Tree_simple_types@U?$pair@$$CBV?$basic_string@DU?$char_traits@D@std@@V?$allocator@D@2@@std@@V?$shared_ptr@VDebugCommand@Core@@@boost@@@std@@@std@@@2@$00@std@@QAE@U_Zero_then_variadic_args_t@1@@Z
	??$?0$$V@?$_Compressed_pair@V?$allocator@U?$_Tree_node@U?$pair@$$CBV?$basic_string@DU?$char_traits@D@std@@V?$allocator@D@2@@std@@V?$shared_ptr@VEventObject@Entity@Core@@@boost@@@std@@PAX@std@@@std@@V?$_Tree_val@U?$_Tree_simple_types@U?$pair@$$CBV?$basic_string@DU?$char_traits@D@std@@V?$allocator@D@2@@std@@V?$shared_ptr@VEventObject@Entity@Core@@@boost@@@std@@@std@@@2@$00@std@@QAE@U_Zero_then_variadic_args_t@1@@Z
	??$?0$$V@?$_Compressed_pair@V?$allocator@U?$_Tree_node@U?$pair@$$CBV?$basic_string@DU?$char_traits@D@std@@V?$allocator@D@2@@std@@V?$shared_ptr@VLinkshell@Core@@@boost@@@std@@PAX@std@@@std@@V?$_Tree_val@U?$_Tree_simple_types@U?$pair@$$CBV?$basic_string@DU?$char_traits@D@std@@V?$allocator@D@2@@std@@V?$shared_ptr@VLinkshell@Core@@@boost@@@std@@@std@@@2@$00@std@@QAE@U_Zero_then_variadic_args_t@1@@Z
	??$?0$$V@?$_Compressed_pair@V?$allocator@U?$_Tree_node@U?$pair@$$CBV?$basic_string@DU?$char_traits@D@std@@V?$allocator@D@2@@std@@V?$shared_ptr@VSession@Core@@@boost@@@std@@PAX@std@@@std@@V?$_Tree_val@U?$_Tree_simple_types@U?$pair@$$CBV?$basic_string@DU?$char_traits@D@std@@V?$allocator@D@2@@std@@V?$shared_ptr@VSession@Core@@@boost@@@std@@@std@@@2@$00@std@@QAE@U_Zero_then_variadic_args_t@1@@Z
	??$?0$$V@?$_Compressed_pair@V?$allocator@U?$_Tree_node@U?$pair@$$CBV?$basic_string@DU?$char_traits@D@std@@V?$allocator@D@2@@std@@VWatcher@Watchdog@@@std@@PAX@std@@@std@@V?$_Tree_val@U?$_Tree_simple_types@U?$pair@$$CBV?$basic_string@DU?$char_traits@D@std@@V?$allocator@D@2@@std@@VWatcher@Watchdog@@@std@@@std@@@2@$00@std@@QAE@U_Zero_then_variadic_args_t@1@@Z
	??$?0$$V@?$_Compressed_pair@V?$allocator@U?$_Tree_node@U?$pair@$$CBV?$basic_string@DU?$char_traits@D@std@@V?$allocator@D@2@@std@@_J@std@@PAX@std@@@std@@V?$_Tree_val@U?$_Tree_simple_types@U?$pair@$$CBV?$basic_string@DU?$char_traits@D@std@@V?$allocator@D@2@@std@@_J@std@@@std@@@2@$00@std@@QAE@U_Zero_then_variadic_args_t@1@@Z
	??$?0$$V@?$_Compressed_pair@V?$allocator@U?$_Tree_node@U?$pair@$$CBVtype_index@std@@V?$shared_ptr@X@boost@@@std@@PAX@std@@@std@@V?$_Tree_val@U?$_Tree_simple_types@U?$pair@$$CBVtype_index@std@@V?$shared_ptr@X@boost@@@std@@@std@@@2@$00@std@@QAE@U_Zero_then_variadic_args_t@1@@Z
	??$?0$$V@?$_Compressed_pair@V?$allocator@U?$_Tree_node@U?$pair@$$CB_KV?$shared_ptr@VLinkshell@Core@@@boost@@@std@@PAX@std@@@std@@V?$_Tree_val@U?$_Tree_simple_types@U?$pair@$$CB_KV?$shared_ptr@VLinkshell@Core@@@boost@@@std@@@std@@@2@$00@std@@QAE@U_Zero_then_variadic_args_t@1@@Z
	??$?0$$V@?$_Compressed_pair@V?$allocator@U?$_Tree_node@V?$basic_string@DU?$char_traits@D@std@@V?$allocator@D@2@@std@@PAX@std@@@std@@V?$_Tree_val@U?$_Tree_simple_types@V?$basic_string@DU?$char_traits@D@std@@V?$allocator@D@2@@std@@@std@@@2@$00@std@@QAE@U_Zero_then_variadic_args_t@1@@Z
	??$?0$$V@?$_Compressed_pair@V?$allocator@U?$_Tree_node@V?$shared_ptr@VActor@Entity@Core@@@boost@@PAX@std@@@std@@V?$_Tree_val@U?$_Tree_simple_types@V?$shared_ptr@VActor@Entity@Core@@@boost@@@std@@@2@$00@std@@QAE@U_Zero_then_variadic_args_t@1@@Z
	??$?0$$V@?$_Compressed_pair@V?$allocator@U?$_Tree_node@V?$shared_ptr@VPlayer@Entity@Core@@@boost@@PAX@std@@@std@@V?$_Tree_val@U?$_Tree_simple_types@V?$shared_ptr@VPlayer@Entity@Core@@@boost@@@std@@@2@$00@std@@QAE@U_Zero_then_variadic_args_t@1@@Z
	??$?0$$V@?$_Compressed_pair@V?$allocator@U?$_Tree_node@V?$shared_ptr@VSession@Core@@@boost@@PAX@std@@@std@@V?$_Tree_val@U?$_Tree_simple_types@V?$shared_ptr@VSession@Core@@@boost@@@std@@@2@$00@std@@QAE@U_Zero_then_variadic_args_t@1@@Z
	??$?0$$V@?$_Compressed_pair@V?$allocator@U?$_Tree_node@V?$shared_ptr@VZone@Core@@@boost@@PAX@std@@@std@@V?$_Tree_val@U?$_Tree_simple_types@V?$shared_ptr@VZone@Core@@@boost@@@std@@@2@$00@std@@QAE@U_Zero_then_variadic_args_t@1@@Z
	??$?0$$V@?$_Compressed_pair@V?$allocator@U?$_Tree_node@_KPAX@std@@@std@@V?$_Tree_val@U?$_Tree_simple_types@_K@std@@@2@$00@std@@QAE@U_Zero_then_variadic_args_t@1@@Z
	??$?0$$V@?$_Compressed_pair@V?$allocator@U?$format_item@DU?$char_traits@D@std@@V?$allocator@D@2@@detail@io@boost@@@std@@V?$_Vector_val@U?$_Simple_types@U?$format_item@DU?$char_traits@D@std@@V?$allocator@D@2@@detail@io@boost@@@std@@@2@$00@std@@QAE@U_Zero_then_variadic_args_t@1@@Z
	??$?0$$V@?$_Compressed_pair@V?$allocator@U?$pair@EI@std@@@std@@V?$_Vector_val@U?$_Simple_types@U?$pair@EI@std@@@std@@@2@$00@std@@QAE@U_Zero_then_variadic_args_t@1@@Z
	??$?0$$V@?$_Compressed_pair@V?$allocator@U?$pair@GC@std@@@std@@V?$_Vector_val@U?$_Simple_types@U?$pair@GC@std@@@std@@@2@$00@std@@QAE@U_Zero_then_variadic_args_t@1@@Z
	??$?0$$V@?$_Compressed_pair@V?$allocator@UFFXIVARR_PACKET_RAW@Packets@Network@Core@@@std@@V?$_Vector_val@U?$_Simple_types@UFFXIVARR_PACKET_RAW@Packets@Network@Core@@@std@@@2@$00@std@@QAE@U_Zero_then_variadic_args_t@1@@Z
	??$?0$$V@?$_Compressed_pair@V?$allocator@V?$basic_string@DU?$char_traits@D@std@@V?$allocator@D@2@@std@@@std@@V?$_Deque_val@U?$_Deque_simple_types@V?$basic_string@DU?$char_traits@D@std@@V?$allocator@D@2@@std@@@std@@@2@$00@std@@QAE@U_Zero_then_variadic_args_t@1@@Z
	??$?0$$V@?$_Compressed_pair@V?$allocator@V?$basic_string@DU?$char_traits@D@std@@V?$allocator@D@2@@std@@@std@@V?$_Vector_val@U?$_Simple_types@V?$basic_string@DU?$char_traits@D@std@@V?$allocator@D@2@@std@@@std@@@2@$00@std@@QAE@U_Zero_then_variadic_args_t@1@@Z
	??$?0$$V@?$_Compressed_pair@V?$allocator@V?$shared_ptr@VGamePacket@Packets@Network@Core@@@boost@@@std@@V?$_Deque_val@U?$_Deque_simple_types@V?$shared_ptr@VGamePacket@Packets@Network@Core@@@boost@@@std@@@2@$00@std@@QAE@U_Zero_then_variadic_args_t@1@@Z
	??$?0$$V@?$_Compressed_pair@V?$allocator@V?$tuple@_KV?$basic_string@DU?$char_traits@D@std@@V?$allocator@D@2@@std@@@std@@@std@@V?$_Vector_val@U?$_Simple_types@V?$tuple@_KV?$basic_string@DU?$char_traits@D@std@@V?$allocator@D@2@@std@@@std@@@std@@@2@$00@std@@QAE@U_Zero_then_variadic_args_t@1@@Z
	??$?0$$V@?$_Compressed_pair@V?$allocator@Vpath@filesystem@boost@@@std@@V?$_Vector_val@U?$_Simple_types@Vpath@filesystem@boost@@@std@@@2@$00@std@@QAE@U_Zero_then_variadic_args_t@1@@Z
	??$?0$$V@?$_Compressed_pair@V?$allocator@Vthread@std@@@std@@V?$_Vector_val@U?$_Simple_types@Vthread@std@@@std@@@2@$00@std@@QAE@U_Zero_then_variadic_args_t@1@@Z
	??$?0$$V@?$_Compressed_pair@V?$allocator@_W@std@@V?$_String_val@U?$_Simple_types@_W@std@@@2@$00@std@@QAE@U_Zero_then_variadic_args_t@1@@Z
	??$?0AAEAAIX$0A@@?$pair@EI@std@@QAE@AAEAAI@Z
	??$?0AAPADAAPADX$0A@@?$pair@PADPAD@std@@QAE@AAPAD0@Z
	??$?0AAPAU?$copy_map_entry@U?$sequenced_index_node@U?$ordered_index_node@Unull_augment_policy@detail@multi_index@boost@@U?$index_node_base@U?$pair@$$CBV?$basic_string@DU?$char_traits@D@std@@V?$allocator@D@2@@std@@V?$basic_ptree@V?$basic_string@DU?$char_traits@D@std@@V?$allocator@D@2@@std@@V12@U?$less@V?$basic_string@DU?$char_traits@D@std@@V?$allocator@D@2@@std@@@2@@property_tree@boost@@@std@@V?$allocator@U?$pair@$$CBV?$basic_string@DU?$char_traits@D@std@@V?$allocator@D@2@@std@@V?$basic_ptree@V?$basic_string@DU?$char_traits@D@std@@V?$allocator@D@2@@std@@V12@U?$less@V?$basic_string@DU?$char_traits@D@std@@V?$allocator@D@2@@std@@@2@@property_tree@boost@@@std@@@2@@234@@detail@multi_index@boost@@@detail@multi_index@boost@@@detail@multi_index@boost@@AAPAU0123@X$0A@@?$pair@PAU?$copy_map_entry@U?$sequenced_index_node@U?$ordered_index_node@Unull_augment_policy@detail@multi_index@boost@@U?$index_node_base@U?$pair@$$CBV?$basic_string@DU?$char_traits@D@std@@V?$allocator@D@2@@std@@V?$basic_ptree@V?$basic_string@DU?$char_traits@D@std@@V?$allocator@D@2@@std@@V12@U?$less@V?$basic_string@DU?$char_traits@D@std@@V?$allocator@D@2@@std@@@2@@property_tree@boost@@@std@@V?$allocator@U?$pair@$$CBV?$basic_string@DU?$char_traits@D@std@@V?$allocator@D@2@@std@@V?$basic_ptree@V?$basic_string@DU?$char_traits@D@std@@V?$allocator@D@2@@std@@V12@U?$less@V?$basic_string@DU?$char_traits@D@std@@V?$allocator@D@2@@std@@@2@@property_tree@boost@@@std@@@2@@234@@detail@multi_index@boost@@@detail@multi_index@boost@@@detail@multi_index@boost@@PAU1234@@std@@QAE@AAPAU?$copy_map_entry@U?$sequenced_index_node@U?$ordered_index_node@Unull_augment_policy@detail@multi_index@boost@@U?$index_node_base@U?$pair@$$CBV?$basic_string@DU?$char_traits@D@std@@V?$allocator@D@2@@std@@V?$basic_ptree@V?$basic_string@DU?$char_traits@D@std@@V?$allocator@D@2@@std@@V12@U?$less@V?$basic_string@DU?$char_traits@D@std@@V?$allocator@D@2@@std@@@2@@property_tree@boost@@@std@@V?$allocator@U?$pair@$$CBV?$basic_string@DU?$char_traits@D@std@@V?$allocator@D@2@@std@@V?$basic_ptree@V?$basic_string@DU?$char_traits@D@std@@V?$allocator@D@2@@std@@V12@U?$less@V?$basic_string@DU?$char_traits@D@std@@V?$allocator@D@2@@std@@@2@@property_tree@boost@@@std@@@2@@234@@detail@multi_index@boost@@@detail@multi_index@boost@@@detail@multi_index@boost@@0@Z
	??$?0AAPAU?$sequenced_index_node@U?$ordered_index_node@Unull_augment_policy@detail@multi_index@boost@@U?$index_node_base@U?$pair@$$CBV?$basic_string@DU?$char_traits@D@std@@V?$allocator@D@2@@std@@V?$basic_ptree@V?$basic_string@DU?$char_traits@D@std@@V?$allocator@D@2@@std@@V12@U?$less@V?$basic_string@DU?$char_traits@D@std@@V?$allocator@D@2@@std@@@2@@property_tree@boost@@@std@@V?$allocator@U?$pair@$$CBV?$basic_string@DU?$char_traits@D@std@@V?$allocator@D@2@@std@@V?$basic_ptree@V?$basic_string@DU?$char_traits@D@std@@V?$allocator@D@2@@std@@V12@U?$less@V?$basic_string@DU?$char_traits@D@std@@V?$allocator@D@2@@std@@@2@@property_tree@boost@@@std@@@2@@234@@detail@multi_index@boost@@@detail@multi_index@boost@@_NX$0A@@?$pair@PAU?$sequenced_index_node@U?$ordered_index_node@Unull_augment_policy@detail@multi_index@boost@@U?$index_node_base@U?$pair@$$CBV?$basic_string@DU?$char_traits@D@std@@V?$allocator@D@2@@std@@V?$basic_ptree@V?$basic_string@DU?$char_traits@D@std@@V?$allocator@D@2@@std@@V12@U?$less@V?$basic_string@DU?$char_traits@D@std@@V?$allocator@D@2@@std@@@2@@property_tree@boost@@@std@@V?$allocator@U?$pair@$$CBV?$basic_string@DU?$char_traits@D@std@@V?$allocator@D@2@@std@@V?$basic_ptree@V?$basic_string@DU?$char_traits@D@std@@V?$allocator@D@2@@std@@V12@U?$less@V?$basic_string@DU?$char_traits@D@std@@V?$allocator@D@2@@std@@@2@@property_tree@boost@@@std@@@2@@234@@detail@multi_index@boost@@@detail@multi_index@boost@@_N@std@@QAE@AAPAU?$sequenced_index_node@U?$ordered_index_node@Unull_augment_policy@detail@multi_index@boost@@U?$index_node_base@U?$pair@$$CBV?$basic_string@DU?$char_traits@D@std@@V?$allocator@D@2@@std@@V?$basic_ptree@V?$basic_string@DU?$char_traits@D@std@@V?$allocator@D@2@@std@@V12@U?$less@V?$basic_string@DU?$char_traits@D@std@@V?$allocator@D@2@@std@@@2@@property_tree@boost@@@std@@V?$allocator@U?$pair@$$CBV?$basic_string@DU?$char_traits@D@std@@V?$allocator@D@2@@std@@V?$basic_ptree@V?$basic_string@DU?$char_traits@D@std@@V?$allocator@D@2@@std@@V12@U?$less@V?$basic_string@DU?$char_traits@D@std@@V?$allocator@D@2@@std@@@2@@property_tree@boost@@@std@@@2@@234@@detail@multi_index@boost@@@detail@multi_index@boost@@$$QA_N@Z
	??$?0AAPAV?$basic_altstringbuf@DU?$char_traits@D@std@@V?$allocator@D@2@@io@boost@@VNo_Op@?$basic_oaltstringstream@DU?$char_traits@D@std@@V?$allocator@D@2@@12@X@?$base_from_member@V?$shared_ptr@V?$basic_altstringbuf@DU?$char_traits@D@std@@V?$allocator@D@2@@io@boost@@@boost@@$0A@@boost@@IAE@AAPAV?$basic_altstringbuf@DU?$char_traits@D@std@@V?$allocator@D@2@@io@1@$$QAVNo_Op@?$basic_oaltstringstream@DU?$char_traits@D@std@@V?$allocator@D@2@@31@@Z
	??$?0AAPAV?$tuple@V?$_Binder@U_Unforced@std@@P8Hive@Network@Core@@AEXXZPAV345@@std@@@std@@@?$_Compressed_pair@U?$default_delete@V?$tuple@V?$_Binder@U_Unforced@std@@P8Hive@Network@Core@@AEXXZPAV345@@std@@@std@@@std@@PAV?$tuple@V?$_Binder@U_Unforced@std@@P8Hive@Network@Core@@AEXXZPAV345@@std@@@2@$00@std@@QAE@U_Zero_then_variadic_args_t@1@AAPAV?$tuple@V?$_Binder@U_Unforced@std@@P8Hive@Network@Core@@AEXXZPAV345@@std@@@1@@Z
	??$?0AAPAV?$tuple@_KV?$basic_string@DU?$char_traits@D@std@@V?$allocator@D@2@@std@@@std@@AAPAV01@X$0A@@?$pair@PAV?$tuple@_KV?$basic_string@DU?$char_traits@D@std@@V?$allocator@D@2@@std@@@std@@PAV12@@std@@QAE@AAPAV?$tuple@_KV?$basic_string@DU?$char_traits@D@std@@V?$allocator@D@2@@std@@@1@0@Z
	??$?0AAPAVthread@std@@@?$_Compressed_pair@U?$default_delete@Vthread@std@@@std@@PAVthread@2@$00@std@@QAE@U_Zero_then_variadic_args_t@1@AAPAVthread@1@@Z
	??$?0AAU?$equal_to@G@std@@M@?$_Compressed_pair@U?$equal_to@G@std@@M$00@std@@QAE@U_One_then_variadic_args_t@1@AAU?$equal_to@G@1@$$QAM@Z
	??$?0AAU?$equal_to@H@std@@M@?$_Compressed_pair@U?$equal_to@H@std@@M$00@std@@QAE@U_One_then_variadic_args_t@1@AAU?$equal_to@H@1@$$QAM@Z
	??$?0AAU?$equal_to@I@std@@M@?$_Compressed_pair@U?$equal_to@I@std@@M$00@std@@QAE@U_One_then_variadic_args_t@1@AAU?$equal_to@I@1@$$QAM@Z
	??$?0AAU?$equal_to@V?$basic_string@DU?$char_traits@D@std@@V?$allocator@D@2@@std@@@std@@M@?$_Compressed_pair@U?$equal_to@V?$basic_string@DU?$char_traits@D@std@@V?$allocator@D@2@@std@@@std@@M$00@std@@QAE@U_One_then_variadic_args_t@1@AAU?$equal_to@V?$basic_string@DU?$char_traits@D@std@@V?$allocator@D@2@@std@@@1@$$QAM@Z
	??$?0AAU?$hash@G@std@@U_One_then_variadic_args_t@1@AAU?$equal_to@G@1@M@?$_Compressed_pair@U?$hash@G@std@@V?$_Compressed_pair@U?$equal_to@G@std@@M$00@2@$00@std@@QAE@U_One_then_variadic_args_t@1@AAU?$hash@G@1@$$QAU21@AAU?$equal_to@G@1@$$QAM@Z
	??$?0AAU?$hash@H@std@@U_One_then_variadic_args_t@1@AAU?$equal_to@H@1@M@?$_Compressed_pair@U?$hash@H@std@@V?$_Compressed_pair@U?$equal_to@H@std@@M$00@2@$00@std@@QAE@U_One_then_variadic_args_t@1@AAU?$hash@H@1@$$QAU21@AAU?$equal_to@H@1@$$QAM@Z
	??$?0AAU?$hash@I@std@@U_One_then_variadic_args_t@1@AAU?$equal_to@I@1@M@?$_Compressed_pair@U?$hash@I@std@@V?$_Compressed_pair@U?$equal_to@I@std@@M$00@2@$00@std@@QAE@U_One_then_variadic_args_t@1@AAU?$hash@I@1@$$QAU21@AAU?$equal_to@I@1@$$QAM@Z
	??$?0AAU?$hash@V?$basic_string@DU?$char_traits@D@std@@V?$allocator@D@2@@std@@@std@@U_One_then_variadic_args_t@1@AAU?$equal_to@V?$basic_string@DU?$char_traits@D@std@@V?$allocator@D@2@@std@@@1@M@?$_Compressed_pair@U?$hash@V?$basic_string@DU?$char_traits@D@std@@V?$allocator@D@2@@std@@@std@@V?$_Compressed_pair@U?$equal_to@V?$basic_string@DU?$char_traits@D@std@@V?$allocator@D@2@@std@@@std@@M$00@2@$00@std@@QAE@U_One_then_variadic_args_t@1@AAU?$hash@V?$basic_string@DU?$char_traits@D@std@@V?$allocator@D@2@@std@@@1@$$QAU21@AAU?$equal_to@V?$basic_string@DU?$char_traits@D@std@@V?$allocator@D@2@@std@@@1@$$QAM@Z
	??$?0AAV?$_List_iterator@V?$_List_val@U?$_List_simple_types@U?$pair@$$CBGV?$shared_ptr@UTerritoryType@Data@Core@@@boost@@@std@@@std@@@std@@@std@@_NX$0A@@?$pair@V?$_List_iterator@V?$_List_val@U?$_List_simple_types@U?$pair@$$CBGV?$shared_ptr@UTerritoryType@Data@Core@@@boost@@@std@@@std@@@std@@@std@@_N@std@@QAE@AAV?$_List_iterator@V?$_List_val@U?$_List_simple_types@U?$pair@$$CBGV?$shared_ptr@UTerritoryType@Data@Core@@@boost@@@std@@@std@@@std@@@1@$$QA_N@Z
	??$?0AAV?$_List_iterator@V?$_List_val@U?$_List_simple_types@U?$pair@$$CBGV?$unordered_map@IV?$shared_ptr@VZone@Core@@@boost@@U?$hash@I@std@@U?$equal_to@I@4@V?$allocator@U?$pair@$$CBIV?$shared_ptr@VZone@Core@@@boost@@@std@@@4@@std@@@std@@@std@@@std@@@std@@_NX$0A@@?$pair@V?$_List_iterator@V?$_List_val@U?$_List_simple_types@U?$pair@$$CBGV?$unordered_map@IV?$shared_ptr@VZone@Core@@@boost@@U?$hash@I@std@@U?$equal_to@I@4@V?$allocator@U?$pair@$$CBIV?$shared_ptr@VZone@Core@@@boost@@@std@@@4@@std@@@std@@@std@@@std@@@std@@_N@std@@QAE@AAV?$_List_iterator@V?$_List_val@U?$_List_simple_types@U?$pair@$$CBGV?$unordered_map@IV?$shared_ptr@VZone@Core@@@boost@@U?$hash@I@std@@U?$equal_to@I@4@V?$allocator@U?$pair@$$CBIV?$shared_ptr@VZone@Core@@@boost@@@std@@@4@@std@@@std@@@std@@@std@@@1@$$QA_N@Z
	??$?0AAV?$_List_iterator@V?$_List_val@U?$_List_simple_types@U?$pair@$$CBHV?$shared_ptr@VEventObject@Entity@Core@@@boost@@@std@@@std@@@std@@@std@@_NX$0A@@?$pair@V?$_List_iterator@V?$_List_val@U?$_List_simple_types@U?$pair@$$CBHV?$shared_ptr@VEventObject@Entity@Core@@@boost@@@std@@@std@@@std@@@std@@_N@std@@QAE@AAV?$_List_iterator@V?$_List_val@U?$_List_simple_types@U?$pair@$$CBHV?$shared_ptr@VEventObject@Entity@Core@@@boost@@@std@@@std@@@std@@@1@$$QA_N@Z
	??$?0AAV?$_List_iterator@V?$_List_val@U?$_List_simple_types@U?$pair@$$CBHV?$shared_ptr@VPlayer@Entity@Core@@@boost@@@std@@@std@@@std@@@std@@_NX$0A@@?$pair@V?$_List_iterator@V?$_List_val@U?$_List_simple_types@U?$pair@$$CBHV?$shared_ptr@VPlayer@Entity@Core@@@boost@@@std@@@std@@@std@@@std@@_N@std@@QAE@AAV?$_List_iterator@V?$_List_val@U?$_List_simple_types@U?$pair@$$CBHV?$shared_ptr@VPlayer@Entity@Core@@@boost@@@std@@@std@@@std@@@1@$$QA_N@Z
	??$?0AAV?$_List_iterator@V?$_List_val@U?$_List_simple_types@U?$pair@$$CBHV?$shared_ptr@VZonePosition@Core@@@boost@@@std@@@std@@@std@@@std@@_NX$0A@@?$pair@V?$_List_iterator@V?$_List_val@U?$_List_simple_types@U?$pair@$$CBHV?$shared_ptr@VZonePosition@Core@@@boost@@@std@@@std@@@std@@@std@@_N@std@@QAE@AAV?$_List_iterator@V?$_List_val@U?$_List_simple_types@U?$pair@$$CBHV?$shared_ptr@VZonePosition@Core@@@boost@@@std@@@std@@@std@@@1@$$QA_N@Z
	??$?0AAV?$_List_iterator@V?$_List_val@U?$_List_simple_types@U?$pair@$$CBIE@std@@@std@@@std@@@std@@_NX$0A@@?$pair@V?$_List_iterator@V?$_List_val@U?$_List_simple_types@U?$pair@$$CBIE@std@@@std@@@std@@@std@@_N@std@@QAE@AAV?$_List_iterator@V?$_List_val@U?$_List_simple_types@U?$pair@$$CBIE@std@@@std@@@std@@@1@$$QA_N@Z
	??$?0AAV?$_List_iterator@V?$_List_val@U?$_List_simple_types@U?$pair@$$CBII@std@@@std@@@std@@@std@@_NX$0A@@?$pair@V?$_List_iterator@V?$_List_val@U?$_List_simple_types@U?$pair@$$CBII@std@@@std@@@std@@@std@@_N@std@@QAE@AAV?$_List_iterator@V?$_List_val@U?$_List_simple_types@U?$pair@$$CBII@std@@@std@@@std@@@1@$$QA_N@Z
	??$?0AAV?$_List_iterator@V?$_List_val@U?$_List_simple_types@U?$pair@$$CBIPAVScriptObject@@@std@@@std@@@std@@@std@@_NX$0A@@?$pair@V?$_List_iterator@V?$_List_val@U?$_List_simple_types@U?$pair@$$CBIPAVScriptObject@@@std@@@std@@@std@@@std@@_N@std@@QAE@AAV?$_List_iterator@V?$_List_val@U?$_List_simple_types@U?$pair@$$CBIPAVScriptObject@@@std@@@std@@@std@@@1@$$QA_N@Z
	??$?0AAV?$_List_iterator@V?$_List_val@U?$_List_simple_types@U?$pair@$$CBIV?$shared_ptr@VEventObject@Entity@Core@@@boost@@@std@@@std@@@std@@@std@@_NX$0A@@?$pair@V?$_List_iterator@V?$_List_val@U?$_List_simple_types@U?$pair@$$CBIV?$shared_ptr@VEventObject@Entity@Core@@@boost@@@std@@@std@@@std@@@std@@_N@std@@QAE@AAV?$_List_iterator@V?$_List_val@U?$_List_simple_types@U?$pair@$$CBIV?$shared_ptr@VEventObject@Entity@Core@@@boost@@@std@@@std@@@std@@@1@$$QA_N@Z
	??$?0AAV?$_List_iterator@V?$_List_val@U?$_List_simple_types@U?$pair@$$CBIV?$shared_ptr@VZone@Core@@@boost@@@std@@@std@@@std@@@std@@_NX$0A@@?$pair@V?$_List_iterator@V?$_List_val@U?$_List_simple_types@U?$pair@$$CBIV?$shared_ptr@VZone@Core@@@boost@@@std@@@std@@@std@@@std@@_N@std@@QAE@AAV?$_List_iterator@V?$_List_val@U?$_List_simple_types@U?$pair@$$CBIV?$shared_ptr@VZone@Core@@@boost@@@std@@@std@@@std@@@1@$$QA_N@Z
	??$?0AAV?$_List_iterator@V?$_List_val@U?$_List_simple_types@U?$pair@$$CBIV?$unordered_map@IPAVScriptObject@@U?$hash@I@std@@U?$equal_to@I@3@V?$allocator@U?$pair@$$CBIPAVScriptObject@@@std@@@3@@std@@@std@@@std@@@std@@@std@@_NX$0A@@?$pair@V?$_List_iterator@V?$_List_val@U?$_List_simple_types@U?$pair@$$CBIV?$unordered_map@IPAVScriptObject@@U?$hash@I@std@@U?$equal_to@I@3@V?$allocator@U?$pair@$$CBIPAVScriptObject@@@std@@@3@@std@@@std@@@std@@@std@@@std@@_N@std@@QAE@AAV?$_List_iterator@V?$_List_val@U?$_List_simple_types@U?$pair@$$CBIV?$unordered_map@IPAVScriptObject@@U?$hash@I@std@@U?$equal_to@I@3@V?$allocator@U?$pair@$$CBIPAVScriptObject@@@std@@@3@@std@@@std@@@std@@@std@@@1@$$QA_N@Z
	??$?0AAV?$_Tree_const_iterator@V?$_Tree_val@U?$_Tree_simple_types@I@std@@@std@@@std@@AAV01@X$0A@@?$pair@V?$_Tree_const_iterator@V?$_Tree_val@U?$_Tree_simple_types@I@std@@@std@@@std@@V12@@std@@QAE@AAV?$_Tree_const_iterator@V?$_Tree_val@U?$_Tree_simple_types@I@std@@@std@@@1@0@Z
	??$?0AAV?$_Tree_const_iterator@V?$_Tree_val@U?$_Tree_simple_types@I@std@@@std@@@std@@_NX$0A@@?$pair@V?$_Tree_const_iterator@V?$_Tree_val@U?$_Tree_simple_types@I@std@@@std@@@std@@_N@std@@QAE@AAV?$_Tree_const_iterator@V?$_Tree_val@U?$_Tree_simple_types@I@std@@@std@@@1@$$QA_N@Z
	??$?0AAV?$_Tree_const_iterator@V?$_Tree_val@U?$_Tree_simple_types@PAVScriptInfo@Scripting@Core@@@std@@@std@@@std@@_NX$0A@@?$pair@V?$_Tree_const_iterator@V?$_Tree_val@U?$_Tree_simple_types@PAVScriptInfo@Scripting@Core@@@std@@@std@@@std@@_N@std@@QAE@AAV?$_Tree_const_iterator@V?$_Tree_val@U?$_Tree_simple_types@PAVScriptInfo@Scripting@Core@@@std@@@std@@@1@$$QA_N@Z
	??$?0AAV?$_Tree_const_iterator@V?$_Tree_val@U?$_Tree_simple_types@U?$pair@$$CBEI@std@@@std@@@std@@@std@@AAV01@X$0A@@?$pair@V?$_Tree_const_iterator@V?$_Tree_val@U?$_Tree_simple_types@U?$pair@$$CBEI@std@@@std@@@std@@@std@@V12@@std@@QAE@AAV?$_Tree_const_iterator@V?$_Tree_val@U?$_Tree_simple_types@U?$pair@$$CBEI@std@@@std@@@std@@@1@0@Z
	??$?0AAV?$_Tree_const_iterator@V?$_Tree_val@U?$_Tree_simple_types@U?$pair@$$CBEV?$shared_ptr@VStatusEffect@1Core@@@boost@@@std@@@std@@@std@@@std@@AAV01@X$0A@@?$pair@V?$_Tree_const_iterator@V?$_Tree_val@U?$_Tree_simple_types@U?$pair@$$CBEV?$shared_ptr@VStatusEffect@1Core@@@boost@@@std@@@std@@@std@@@std@@V12@@std@@QAE@AAV?$_Tree_const_iterator@V?$_Tree_val@U?$_Tree_simple_types@U?$pair@$$CBEV?$shared_ptr@VStatusEffect@1Core@@@boost@@@std@@@std@@@std@@@1@0@Z
	??$?0AAV?$_Tree_const_iterator@V?$_Tree_val@U?$_Tree_simple_types@U?$pair@$$CBIE@std@@@std@@@std@@@std@@AAV01@X$0A@@?$pair@V?$_Tree_const_iterator@V?$_Tree_val@U?$_Tree_simple_types@U?$pair@$$CBIE@std@@@std@@@std@@@std@@V12@@std@@QAE@AAV?$_Tree_const_iterator@V?$_Tree_val@U?$_Tree_simple_types@U?$pair@$$CBIE@std@@@std@@@std@@@1@0@Z
	??$?0AAV?$_Tree_const_iterator@V?$_Tree_val@U?$_Tree_simple_types@U?$pair@$$CBIV?$shared_ptr@VSession@Core@@@boost@@@std@@@std@@@std@@@std@@AAV01@X$0A@@?$pair@V?$_Tree_const_iterator@V?$_Tree_val@U?$_Tree_simple_types@U?$pair@$$CBIV?$shared_ptr@VSession@Core@@@boost@@@std@@@std@@@std@@@std@@V12@@std@@QAE@AAV?$_Tree_const_iterator@V?$_Tree_val@U?$_Tree_simple_types@U?$pair@$$CBIV?$shared_ptr@VSession@Core@@@boost@@@std@@@std@@@std@@@1@0@Z
	??$?0AAV?$_Tree_const_iterator@V?$_Tree_val@U?$_Tree_simple_types@U?$pair@$$CBV?$basic_string@DU?$char_traits@D@std@@V?$allocator@D@2@@std@@V?$shared_ptr@VSession@Core@@@boost@@@std@@@std@@@std@@@std@@AAV01@X$0A@@?$pair@V?$_Tree_const_iterator@V?$_Tree_val@U?$_Tree_simple_types@U?$pair@$$CBV?$basic_string@DU?$char_traits@D@std@@V?$allocator@D@2@@std@@V?$shared_ptr@VSession@Core@@@boost@@@std@@@std@@@std@@@std@@V12@@std@@QAE@AAV?$_Tree_const_iterator@V?$_Tree_val@U?$_Tree_simple_types@U?$pair@$$CBV?$basic_string@DU?$char_traits@D@std@@V?$allocator@D@2@@std@@V?$shared_ptr@VSession@Core@@@boost@@@std@@@std@@@std@@@1@0@Z
	??$?0AAV?$_Tree_const_iterator@V?$_Tree_val@U?$_Tree_simple_types@V?$basic_string@DU?$char_traits@D@std@@V?$allocator@D@2@@std@@@std@@@std@@@std@@_NX$0A@@?$pair@V?$_Tree_const_iterator@V?$_Tree_val@U?$_Tree_simple_types@V?$basic_string@DU?$char_traits@D@std@@V?$allocator@D@2@@std@@@std@@@std@@@std@@_N@std@@QAE@AAV?$_Tree_const_iterator@V?$_Tree_val@U?$_Tree_simple_types@V?$basic_string@DU?$char_traits@D@std@@V?$allocator@D@2@@std@@@std@@@std@@@1@$$QA_N@Z
	??$?0AAV?$_Tree_const_iterator@V?$_Tree_val@U?$_Tree_simple_types@V?$shared_ptr@VActor@Entity@Core@@@boost@@@std@@@std@@@std@@AAV01@X$0A@@?$pair@V?$_Tree_const_iterator@V?$_Tree_val@U?$_Tree_simple_types@V?$shared_ptr@VActor@Entity@Core@@@boost@@@std@@@std@@@std@@V12@@std@@QAE@AAV?$_Tree_const_iterator@V?$_Tree_val@U?$_Tree_simple_types@V?$shared_ptr@VActor@Entity@Core@@@boost@@@std@@@std@@@1@0@Z
	??$?0AAV?$_Tree_const_iterator@V?$_Tree_val@U?$_Tree_simple_types@V?$shared_ptr@VActor@Entity@Core@@@boost@@@std@@@std@@@std@@_NX$0A@@?$pair@V?$_Tree_const_iterator@V?$_Tree_val@U?$_Tree_simple_types@V?$shared_ptr@VActor@Entity@Core@@@boost@@@std@@@std@@@std@@_N@std@@QAE@AAV?$_Tree_const_iterator@V?$_Tree_val@U?$_Tree_simple_types@V?$shared_ptr@VActor@Entity@Core@@@boost@@@std@@@std@@@1@$$QA_N@Z
	??$?0AAV?$_Tree_const_iterator@V?$_Tree_val@U?$_Tree_simple_types@V?$shared_ptr@VPlayer@Entity@Core@@@boost@@@std@@@std@@@std@@AAV01@X$0A@@?$pair@V?$_Tree_const_iterator@V?$_Tree_val@U?$_Tree_simple_types@V?$shared_ptr@VPlayer@Entity@Core@@@boost@@@std@@@std@@@std@@V12@@std@@QAE@AAV?$_Tree_const_iterator@V?$_Tree_val@U?$_Tree_simple_types@V?$shared_ptr@VPlayer@Entity@Core@@@boost@@@std@@@std@@@1@0@Z
	??$?0AAV?$_Tree_const_iterator@V?$_Tree_val@U?$_Tree_simple_types@V?$shared_ptr@VPlayer@Entity@Core@@@boost@@@std@@@std@@@std@@_NX$0A@@?$pair@V?$_Tree_const_iterator@V?$_Tree_val@U?$_Tree_simple_types@V?$shared_ptr@VPlayer@Entity@Core@@@boost@@@std@@@std@@@std@@_N@std@@QAE@AAV?$_Tree_const_iterator@V?$_Tree_val@U?$_Tree_simple_types@V?$shared_ptr@VPlayer@Entity@Core@@@boost@@@std@@@std@@@1@$$QA_N@Z
	??$?0AAV?$_Tree_const_iterator@V?$_Tree_val@U?$_Tree_simple_types@V?$shared_ptr@VSession@Core@@@boost@@@std@@@std@@@std@@_NX$0A@@?$pair@V?$_Tree_const_iterator@V?$_Tree_val@U?$_Tree_simple_types@V?$shared_ptr@VSession@Core@@@boost@@@std@@@std@@@std@@_N@std@@QAE@AAV?$_Tree_const_iterator@V?$_Tree_val@U?$_Tree_simple_types@V?$shared_ptr@VSession@Core@@@boost@@@std@@@std@@@1@$$QA_N@Z
	??$?0AAV?$_Tree_const_iterator@V?$_Tree_val@U?$_Tree_simple_types@V?$shared_ptr@VZone@Core@@@boost@@@std@@@std@@@std@@AAV01@X$0A@@?$pair@V?$_Tree_const_iterator@V?$_Tree_val@U?$_Tree_simple_types@V?$shared_ptr@VZone@Core@@@boost@@@std@@@std@@@std@@V12@@std@@QAE@AAV?$_Tree_const_iterator@V?$_Tree_val@U?$_Tree_simple_types@V?$shared_ptr@VZone@Core@@@boost@@@std@@@std@@@1@0@Z
	??$?0AAV?$_Tree_const_iterator@V?$_Tree_val@U?$_Tree_simple_types@V?$shared_ptr@VZone@Core@@@boost@@@std@@@std@@@std@@_NX$0A@@?$pair@V?$_Tree_const_iterator@V?$_Tree_val@U?$_Tree_simple_types@V?$shared_ptr@VZone@Core@@@boost@@@std@@@std@@@std@@_N@std@@QAE@AAV?$_Tree_const_iterator@V?$_Tree_val@U?$_Tree_simple_types@V?$shared_ptr@VZone@Core@@@boost@@@std@@@std@@@1@$$QA_N@Z
	??$?0AAV?$_Tree_const_iterator@V?$_Tree_val@U?$_Tree_simple_types@_K@std@@@std@@@std@@AAV01@X$0A@@?$pair@V?$_Tree_const_iterator@V?$_Tree_val@U?$_Tree_simple_types@_K@std@@@std@@@std@@V12@@std@@QAE@AAV?$_Tree_const_iterator@V?$_Tree_val@U?$_Tree_simple_types@_K@std@@@std@@@1@0@Z
	??$?0AAV?$_Tree_const_iterator@V?$_Tree_val@U?$_Tree_simple_types@_K@std@@@std@@@std@@_NX$0A@@?$pair@V?$_Tree_const_iterator@V?$_Tree_val@U?$_Tree_simple_types@_K@std@@@std@@@std@@_N@std@@QAE@AAV?$_Tree_const_iterator@V?$_Tree_val@U?$_Tree_simple_types@_K@std@@@std@@@1@$$QA_N@Z
	??$?0AAV?$_Tree_iterator@V?$_Tree_val@U?$_Tree_simple_types@U?$pair@$$CBEH@std@@@std@@@std@@@std@@_NX$0A@@?$pair@V?$_Tree_iterator@V?$_Tree_val@U?$_Tree_simple_types@U?$pair@$$CBEH@std@@@std@@@std@@@std@@_N@std@@QAE@AAV?$_Tree_iterator@V?$_Tree_val@U?$_Tree_simple_types@U?$pair@$$CBEH@std@@@std@@@std@@@1@$$QA_N@Z
	??$?0AAV?$_Tree_iterator@V?$_Tree_val@U?$_Tree_simple_types@U?$pair@$$CBEI@std@@@std@@@std@@@std@@AAV01@X$0A@@?$pair@V?$_Tree_iterator@V?$_Tree_val@U?$_Tree_simple_types@U?$pair@$$CBEI@std@@@std@@@std@@@std@@V12@@std@@QAE@AAV?$_Tree_iterator@V?$_Tree_val@U?$_Tree_simple_types@U?$pair@$$CBEI@std@@@std@@@std@@@1@0@Z
	??$?0AAV?$_Tree_iterator@V?$_Tree_val@U?$_Tree_simple_types@U?$pair@$$CBEI@std@@@std@@@std@@@std@@_NX$0A@@?$pair@V?$_Tree_iterator@V?$_Tree_val@U?$_Tree_simple_types@U?$pair@$$CBEI@std@@@std@@@std@@@std@@_N@std@@QAE@AAV?$_Tree_iterator@V?$_Tree_val@U?$_Tree_simple_types@U?$pair@$$CBEI@std@@@std@@@std@@@1@$$QA_N@Z
	??$?0AAV?$_Tree_iterator@V?$_Tree_val@U?$_Tree_simple_types@U?$pair@$$CBEV?$shared_ptr@VItem@Core@@@boost@@@std@@@std@@@std@@@std@@_NX$0A@@?$pair@V?$_Tree_iterator@V?$_Tree_val@U?$_Tree_simple_types@U?$pair@$$CBEV?$shared_ptr@VItem@Core@@@boost@@@std@@@std@@@std@@@std@@_N@std@@QAE@AAV?$_Tree_iterator@V?$_Tree_val@U?$_Tree_simple_types@U?$pair@$$CBEV?$shared_ptr@VItem@Core@@@boost@@@std@@@std@@@std@@@1@$$QA_N@Z
	??$?0AAV?$_Tree_iterator@V?$_Tree_val@U?$_Tree_simple_types@U?$pair@$$CBEV?$shared_ptr@VStatusEffect@1Core@@@boost@@@std@@@std@@@std@@@std@@AAV01@X$0A@@?$pair@V?$_Tree_iterator@V?$_Tree_val@U?$_Tree_simple_types@U?$pair@$$CBEV?$shared_ptr@VStatusEffect@1Core@@@boost@@@std@@@std@@@std@@@std@@V12@@std@@QAE@AAV?$_Tree_iterator@V?$_Tree_val@U?$_Tree_simple_types@U?$pair@$$CBEV?$shared_ptr@VStatusEffect@1Core@@@boost@@@std@@@std@@@std@@@1@0@Z
	??$?0AAV?$_Tree_iterator@V?$_Tree_val@U?$_Tree_simple_types@U?$pair@$$CBEV?$shared_ptr@VStatusEffect@1Core@@@boost@@@std@@@std@@@std@@@std@@_NX$0A@@?$pair@V?$_Tree_iterator@V?$_Tree_val@U?$_Tree_simple_types@U?$pair@$$CBEV?$shared_ptr@VStatusEffect@1Core@@@boost@@@std@@@std@@@std@@@std@@_N@std@@QAE@AAV?$_Tree_iterator@V?$_Tree_val@U?$_Tree_simple_types@U?$pair@$$CBEV?$shared_ptr@VStatusEffect@1Core@@@boost@@@std@@@std@@@std@@@1@$$QA_N@Z
	??$?0AAV?$_Tree_iterator@V?$_Tree_val@U?$_Tree_simple_types@U?$pair@$$CBGP8GameConnection@Network@Core@@AEXABVGamePacket@Packets@23@AAVPlayer@Entity@3@@Z@std@@@std@@@std@@@std@@_NX$0A@@?$pair@V?$_Tree_iterator@V?$_Tree_val@U?$_Tree_simple_types@U?$pair@$$CBGP8GameConnection@Network@Core@@AEXABVGamePacket@Packets@23@AAVPlayer@Entity@3@@Z@std@@@std@@@std@@@std@@_N@std@@QAE@AAV?$_Tree_iterator@V?$_Tree_val@U?$_Tree_simple_types@U?$pair@$$CBGP8GameConnection@Network@Core@@AEXABVGamePacket@Packets@23@AAVPlayer@Entity@3@@Z@std@@@std@@@std@@@1@$$QA_N@Z
	??$?0AAV?$_Tree_iterator@V?$_Tree_val@U?$_Tree_simple_types@U?$pair@$$CBGV?$basic_string@DU?$char_traits@D@std@@V?$allocator@D@2@@std@@@std@@@std@@@std@@@std@@_NX$0A@@?$pair@V?$_Tree_iterator@V?$_Tree_val@U?$_Tree_simple_types@U?$pair@$$CBGV?$basic_string@DU?$char_traits@D@std@@V?$allocator@D@2@@std@@@std@@@std@@@std@@@std@@_N@std@@QAE@AAV?$_Tree_iterator@V?$_Tree_val@U?$_Tree_simple_types@U?$pair@$$CBGV?$basic_string@DU?$char_traits@D@std@@V?$allocator@D@2@@std@@@std@@@std@@@std@@@1@$$QA_N@Z
	??$?0AAV?$_Tree_iterator@V?$_Tree_val@U?$_Tree_simple_types@U?$pair@$$CBGV?$shared_ptr@VItemContainer@Core@@@boost@@@std@@@std@@@std@@@std@@_NX$0A@@?$pair@V?$_Tree_iterator@V?$_Tree_val@U?$_Tree_simple_types@U?$pair@$$CBGV?$shared_ptr@VItemContainer@Core@@@boost@@@std@@@std@@@std@@@std@@_N@std@@QAE@AAV?$_Tree_iterator@V?$_Tree_val@U?$_Tree_simple_types@U?$pair@$$CBGV?$shared_ptr@VItemContainer@Core@@@boost@@@std@@@std@@@std@@@1@$$QA_N@Z
	??$?0AAV?$_Tree_iterator@V?$_Tree_val@U?$_Tree_simple_types@U?$pair@$$CBIE@std@@@std@@@std@@@std@@AAV01@X$0A@@?$pair@V?$_Tree_iterator@V?$_Tree_val@U?$_Tree_simple_types@U?$pair@$$CBIE@std@@@std@@@std@@@std@@V12@@std@@QAE@AAV?$_Tree_iterator@V?$_Tree_val@U?$_Tree_simple_types@U?$pair@$$CBIE@std@@@std@@@std@@@1@0@Z
	??$?0AAV?$_Tree_iterator@V?$_Tree_val@U?$_Tree_simple_types@U?$pair@$$CBIE@std@@@std@@@std@@@std@@_NX$0A@@?$pair@V?$_Tree_iterator@V?$_Tree_val@U?$_Tree_simple_types@U?$pair@$$CBIE@std@@@std@@@std@@@std@@_N@std@@QAE@AAV?$_Tree_iterator@V?$_Tree_val@U?$_Tree_simple_types@U?$pair@$$CBIE@std@@@std@@@std@@@1@$$QA_N@Z
	??$?0AAV?$_Tree_iterator@V?$_Tree_val@U?$_Tree_simple_types@U?$pair@$$CBIV?$shared_ptr@VEventHandler@Event@Core@@@boost@@@std@@@std@@@std@@@std@@_NX$0A@@?$pair@V?$_Tree_iterator@V?$_Tree_val@U?$_Tree_simple_types@U?$pair@$$CBIV?$shared_ptr@VEventHandler@Event@Core@@@boost@@@std@@@std@@@std@@@std@@_N@std@@QAE@AAV?$_Tree_iterator@V?$_Tree_val@U?$_Tree_simple_types@U?$pair@$$CBIV?$shared_ptr@VEventHandler@Event@Core@@@boost@@@std@@@std@@@std@@@1@$$QA_N@Z
	??$?0AAV?$_Tree_iterator@V?$_Tree_val@U?$_Tree_simple_types@U?$pair@$$CBIV?$shared_ptr@VSession@Core@@@boost@@@std@@@std@@@std@@@std@@AAV01@X$0A@@?$pair@V?$_Tree_iterator@V?$_Tree_val@U?$_Tree_simple_types@U?$pair@$$CBIV?$shared_ptr@VSession@Core@@@boost@@@std@@@std@@@std@@@std@@V12@@std@@QAE@AAV?$_Tree_iterator@V?$_Tree_val@U?$_Tree_simple_types@U?$pair@$$CBIV?$shared_ptr@VSession@Core@@@boost@@@std@@@std@@@std@@@1@0@Z
	??$?0AAV?$_Tree_iterator@V?$_Tree_val@U?$_Tree_simple_types@U?$pair@$$CBIV?$shared_ptr@VSession@Core@@@boost@@@std@@@std@@@std@@@std@@_NX$0A@@?$pair@V?$_Tree_iterator@V?$_Tree_val@U?$_Tree_simple_types@U?$pair@$$CBIV?$shared_ptr@VSession@Core@@@boost@@@std@@@std@@@std@@@std@@_N@std@@QAE@AAV?$_Tree_iterator@V?$_Tree_val@U?$_Tree_simple_types@U?$pair@$$CBIV?$shared_ptr@VSession@Core@@@boost@@@std@@@std@@@std@@@1@$$QA_N@Z
	??$?0AAV?$_Tree_iterator@V?$_Tree_val@U?$_Tree_simple_types@U?$pair@$$CBV?$basic_string@DU?$char_traits@D@std@@V?$allocator@D@2@@std@@V?$shared_ptr@VDebugCommand@Core@@@boost@@@std@@@std@@@std@@@std@@_NX$0A@@?$pair@V?$_Tree_iterator@V?$_Tree_val@U?$_Tree_simple_types@U?$pair@$$CBV?$basic_string@DU?$char_traits@D@std@@V?$allocator@D@2@@std@@V?$shared_ptr@VDebugCommand@Core@@@boost@@@std@@@std@@@std@@@std@@_N@std@@QAE@AAV?$_Tree_iterator@V?$_Tree_val@U?$_Tree_simple_types@U?$pair@$$CBV?$basic_string@DU?$char_traits@D@std@@V?$allocator@D@2@@std@@V?$shared_ptr@VDebugCommand@Core@@@boost@@@std@@@std@@@std@@@1@$$QA_N@Z
	??$?0AAV?$_Tree_iterator@V?$_Tree_val@U?$_Tree_simple_types@U?$pair@$$CBV?$basic_string@DU?$char_traits@D@std@@V?$allocator@D@2@@std@@V?$shared_ptr@VEventObject@Entity@Core@@@boost@@@std@@@std@@@std@@@std@@_NX$0A@@?$pair@V?$_Tree_iterator@V?$_Tree_val@U?$_Tree_simple_types@U?$pair@$$CBV?$basic_string@DU?$char_traits@D@std@@V?$allocator@D@2@@std@@V?$shared_ptr@VEventObject@Entity@Core@@@boost@@@std@@@std@@@std@@@std@@_N@std@@QAE@AAV?$_Tree_iterator@V?$_Tree_val@U?$_Tree_simple_types@U?$pair@$$CBV?$basic_string@DU?$char_traits@D@std@@V?$allocator@D@2@@std@@V?$shared_ptr@VEventObject@Entity@Core@@@boost@@@std@@@std@@@std@@@1@$$QA_N@Z
	??$?0AAV?$_Tree_iterator@V?$_Tree_val@U?$_Tree_simple_types@U?$pair@$$CBV?$basic_string@DU?$char_traits@D@std@@V?$allocator@D@2@@std@@V?$shared_ptr@VLinkshell@Core@@@boost@@@std@@@std@@@std@@@std@@_NX$0A@@?$pair@V?$_Tree_iterator@V?$_Tree_val@U?$_Tree_simple_types@U?$pair@$$CBV?$basic_string@DU?$char_traits@D@std@@V?$allocator@D@2@@std@@V?$shared_ptr@VLinkshell@Core@@@boost@@@std@@@std@@@std@@@std@@_N@std@@QAE@AAV?$_Tree_iterator@V?$_Tree_val@U?$_Tree_simple_types@U?$pair@$$CBV?$basic_string@DU?$char_traits@D@std@@V?$allocator@D@2@@std@@V?$shared_ptr@VLinkshell@Core@@@boost@@@std@@@std@@@std@@@1@$$QA_N@Z
	??$?0AAV?$_Tree_iterator@V?$_Tree_val@U?$_Tree_simple_types@U?$pair@$$CBV?$basic_string@DU?$char_traits@D@std@@V?$allocator@D@2@@std@@V?$shared_ptr@VSession@Core@@@boost@@@std@@@std@@@std@@@std@@AAV01@X$0A@@?$pair@V?$_Tree_iterator@V?$_Tree_val@U?$_Tree_simple_types@U?$pair@$$CBV?$basic_string@DU?$char_traits@D@std@@V?$allocator@D@2@@std@@V?$shared_ptr@VSession@Core@@@boost@@@std@@@std@@@std@@@std@@V12@@std@@QAE@AAV?$_Tree_iterator@V?$_Tree_val@U?$_Tree_simple_types@U?$pair@$$CBV?$basic_string@DU?$char_traits@D@std@@V?$allocator@D@2@@std@@V?$shared_ptr@VSession@Core@@@boost@@@std@@@std@@@std@@@1@0@Z
	??$?0AAV?$_Tree_iterator@V?$_Tree_val@U?$_Tree_simple_types@U?$pair@$$CBV?$basic_string@DU?$char_traits@D@std@@V?$allocator@D@2@@std@@V?$shared_ptr@VSession@Core@@@boost@@@std@@@std@@@std@@@std@@_NX$0A@@?$pair@V?$_Tree_iterator@V?$_Tree_val@U?$_Tree_simple_types@U?$pair@$$CBV?$basic_string@DU?$char_traits@D@std@@V?$allocator@D@2@@std@@V?$shared_ptr@VSession@Core@@@boost@@@std@@@std@@@std@@@std@@_N@std@@QAE@AAV?$_Tree_iterator@V?$_Tree_val@U?$_Tree_simple_types@U?$pair@$$CBV?$basic_string@DU?$char_traits@D@std@@V?$allocator@D@2@@std@@V?$shared_ptr@VSession@Core@@@boost@@@std@@@std@@@std@@@1@$$QA_N@Z
	??$?0AAV?$_Tree_iterator@V?$_Tree_val@U?$_Tree_simple_types@U?$pair@$$CBV?$basic_string@DU?$char_traits@D@std@@V?$allocator@D@2@@std@@VWatcher@Watchdog@@@std@@@std@@@std@@@std@@_NX$0A@@?$pair@V?$_Tree_iterator@V?$_Tree_val@U?$_Tree_simple_types@U?$pair@$$CBV?$basic_string@DU?$char_traits@D@std@@V?$allocator@D@2@@std@@VWatcher@Watchdog@@@std@@@std@@@std@@@std@@_N@std@@QAE@AAV?$_Tree_iterator@V?$_Tree_val@U?$_Tree_simple_types@U?$pair@$$CBV?$basic_string@DU?$char_traits@D@std@@V?$allocator@D@2@@std@@VWatcher@Watchdog@@@std@@@std@@@std@@@1@$$QA_N@Z
	??$?0AAV?$_Tree_iterator@V?$_Tree_val@U?$_Tree_simple_types@U?$pair@$$CBV?$basic_string@DU?$char_traits@D@std@@V?$allocator@D@2@@std@@_J@std@@@std@@@std@@@std@@_NX$0A@@?$pair@V?$_Tree_iterator@V?$_Tree_val@U?$_Tree_simple_types@U?$pair@$$CBV?$basic_string@DU?$char_traits@D@std@@V?$allocator@D@2@@std@@_J@std@@@std@@@std@@@std@@_N@std@@QAE@AAV?$_Tree_iterator@V?$_Tree_val@U?$_Tree_simple_types@U?$pair@$$CBV?$basic_string@DU?$char_traits@D@std@@V?$allocator@D@2@@std@@_J@std@@@std@@@std@@@1@$$QA_N@Z
	??$?0AAV?$_Tree_iterator@V?$_Tree_val@U?$_Tree_simple_types@U?$pair@$$CBVtype_index@std@@V?$shared_ptr@X@boost@@@std@@@std@@@std@@@std@@_NX$0A@@?$pair@V?$_Tree_iterator@V?$_Tree_val@U?$_Tree_simple_types@U?$pair@$$CBVtype_index@std@@V?$shared_ptr@X@boost@@@std@@@std@@@std@@@std@@_N@std@@QAE@AAV?$_Tree_iterator@V?$_Tree_val@U?$_Tree_simple_types@U?$pair@$$CBVtype_index@std@@V?$shared_ptr@X@boost@@@std@@@std@@@std@@@1@$$QA_N@Z
	??$?0AAV?$_Tree_iterator@V?$_Tree_val@U?$_Tree_simple_types@U?$pair@$$CB_KV?$shared_ptr@VLinkshell@Core@@@boost@@@std@@@std@@@std@@@std@@_NX$0A@@?$pair@V?$_Tree_iterator@V?$_Tree_val@U?$_Tree_simple_types@U?$pair@$$CB_KV?$shared_ptr@VLinkshell@Core@@@boost@@@std@@@std@@@std@@@std@@_N@std@@QAE@AAV?$_Tree_iterator@V?$_Tree_val@U?$_Tree_simple_types@U?$pair@$$CB_KV?$shared_ptr@VLinkshell@Core@@@boost@@@std@@@std@@@std@@@1@$$QA_N@Z
	??$?0AAV?$basic_ptree@V?$basic_string@DU?$char_traits@D@std@@V?$allocator@D@2@@std@@V12@U?$less@V?$basic_string@DU?$char_traits@D@std@@V?$allocator@D@2@@std@@@2@@property_tree@boost@@@?$optional@AAV?$basic_ptree@V?$basic_string@DU?$char_traits@D@std@@V?$allocator@D@2@@std@@V12@U?$less@V?$basic_string@DU?$char_traits@D@std@@V?$allocator@D@2@@std@@@2@@property_tree@boost@@@boost@@QAE@AAV?$basic_ptree@V?$basic_string@DU?$char_traits@D@std@@V?$allocator@D@2@@std@@V12@U?$less@V?$basic_string@DU?$char_traits@D@std@@V?$allocator@D@2@@std@@@2@@property_tree@1@PAX@Z
	??$?0AAV?$basic_string@DU?$char_traits@D@std@@V?$allocator@D@2@@std@@@?$_Tuple_val@V?$basic_string@DU?$char_traits@D@std@@V?$allocator@D@2@@std@@@std@@QAE@AAV?$basic_string@DU?$char_traits@D@std@@V?$allocator@D@2@@1@@Z
	??$?0AAV?$basic_string@DU?$char_traits@D@std@@V?$allocator@D@2@@std@@ABV?$basic_ptree@V?$basic_string@DU?$char_traits@D@std@@V?$allocator@D@2@@std@@V12@U?$less@V?$basic_string@DU?$char_traits@D@std@@V?$allocator@D@2@@std@@@2@@property_tree@boost@@X$0A@@?$pair@$$CBV?$basic_string@DU?$char_traits@D@std@@V?$allocator@D@2@@std@@V?$basic_ptree@V?$basic_string@DU?$char_traits@D@std@@V?$allocator@D@2@@std@@V12@U?$less@V?$basic_string@DU?$char_traits@D@std@@V?$allocator@D@2@@std@@@2@@property_tree@boost@@@std@@QAE@AAV?$basic_string@DU?$char_traits@D@std@@V?$allocator@D@2@@1@ABV?$basic_ptree@V?$basic_string@DU?$char_traits@D@std@@V?$allocator@D@2@@std@@V12@U?$less@V?$basic_string@DU?$char_traits@D@std@@V?$allocator@D@2@@std@@@2@@property_tree@boost@@@Z
	??$?0AAV?$basic_string@DU?$char_traits@D@std@@V?$allocator@D@2@@std@@V?$basic_ptree@V?$basic_string@DU?$char_traits@D@std@@V?$allocator@D@2@@std@@V12@U?$less@V?$basic_string@DU?$char_traits@D@std@@V?$allocator@D@2@@std@@@2@@property_tree@boost@@X$0A@@?$pair@$$CBV?$basic_string@DU?$char_traits@D@std@@V?$allocator@D@2@@std@@V?$basic_ptree@V?$basic_string@DU?$char_traits@D@std@@V?$allocator@D@2@@std@@V12@U?$less@V?$basic_string@DU?$char_traits@D@std@@V?$allocator@D@2@@std@@@2@@property_tree@boost@@@std@@QAE@AAV?$basic_string@DU?$char_traits@D@std@@V?$allocator@D@2@@1@$$QAV?$basic_ptree@V?$basic_string@DU?$char_traits@D@std@@V?$allocator@D@2@@std@@V12@U?$less@V?$basic_string@DU?$char_traits@D@std@@V?$allocator@D@2@@std@@@2@@property_tree@boost@@@Z
	??$?0AAVdirectory_iterator@filesystem@boost@@AAV012@X$0A@@?$pair@Vdirectory_iterator@filesystem@boost@@V123@@std@@QAE@AAVdirectory_iterator@filesystem@boost@@0@Z
	??$?0AAVpath@filesystem@boost@@AAV?$basic_string@DU?$char_traits@D@std@@V?$allocator@D@2@@std@@X$0A@@?$pair@Vpath@filesystem@boost@@V?$basic_string@DU?$char_traits@D@std@@V?$allocator@D@2@@std@@@std@@QAE@AAVpath@filesystem@boost@@AAV?$basic_string@DU?$char_traits@D@std@@V?$allocator@D@2@@1@@Z
	??$?0AAW4InventoryType@Inventory@Core@@AACX$0A@@?$pair@W4InventoryType@Inventory@Core@@C@std@@QAE@AAW4InventoryType@Inventory@Core@@AAC@Z
	??$?0AAW4InventoryType@Inventory@Core@@CX$0A@@?$pair@W4InventoryType@Inventory@Core@@C@std@@QAE@AAW4InventoryType@Inventory@Core@@$$QAC@Z
	??$?0AA_K$$CBV?$basic_string@DU?$char_traits@D@std@@V?$allocator@D@2@@std@@$0A@@?$tuple@_KV?$basic_string@DU?$char_traits@D@std@@V?$allocator@D@2@@std@@@std@@QAE@AA_K$$QBV?$basic_string@DU?$char_traits@D@std@@V?$allocator@D@2@@1@@Z
	??$?0AA_K@?$_Tuple_val@_K@std@@QAE@AA_K@Z
	??$?0ABE$$Z$$V@?$pair@$$CBEH@std@@QAE@Upiecewise_construct_t@1@V?$tuple@ABE@1@V?$tuple@$$V@1@@Z
	??$?0ABE$$Z$$V@?$pair@$$CBEI@std@@QAE@Upiecewise_construct_t@1@V?$tuple@ABE@1@V?$tuple@$$V@1@@Z
	??$?0ABE$$Z$$V@?$pair@$$CBEV?$shared_ptr@VItem@Core@@@boost@@@std@@QAE@Upiecewise_construct_t@1@V?$tuple@ABE@1@V?$tuple@$$V@1@@Z
	??$?0ABE$$Z$$V@?$pair@$$CBEV?$shared_ptr@VStatusEffect@1Core@@@boost@@@std@@QAE@Upiecewise_construct_t@1@V?$tuple@ABE@1@V?$tuple@$$V@1@@Z
	??$?0ABE$0A@@?$tuple@ABE@std@@QAE@ABE@Z
	??$?0ABE@?$_Tuple_val@ABE@std@@QAE@ABE@Z
	??$?0ABG$$Z$$V@?$pair@$$CBGP8GameConnection@Network@Core@@AEXABVGamePacket@Packets@23@AAVPlayer@Entity@3@@Z@std@@QAE@Upiecewise_construct_t@1@V?$tuple@ABG@1@V?$tuple@$$V@1@@Z
	??$?0ABG$$Z$$V@?$pair@$$CBGV?$basic_string@DU?$char_traits@D@std@@V?$allocator@D@2@@std@@@std@@QAE@Upiecewise_construct_t@1@V?$tuple@ABG@1@V?$tuple@$$V@1@@Z
	??$?0ABG$$Z$$V@?$pair@$$CBGV?$shared_ptr@UTerritoryType@Data@Core@@@boost@@@std@@QAE@Upiecewise_construct_t@1@V?$tuple@ABG@1@V?$tuple@$$V@1@@Z
	??$?0ABG$$Z$$V@?$pair@$$CBGV?$shared_ptr@VItemContainer@Core@@@boost@@@std@@QAE@Upiecewise_construct_t@1@V?$tuple@ABG@1@V?$tuple@$$V@1@@Z
	??$?0ABG$$Z$$V@?$pair@$$CBGV?$unordered_map@IV?$shared_ptr@VZone@Core@@@boost@@U?$hash@I@std@@U?$equal_to@I@4@V?$allocator@U?$pair@$$CBIV?$shared_ptr@VZone@Core@@@boost@@@std@@@4@@std@@@std@@QAE@Upiecewise_construct_t@1@V?$tuple@ABG@1@V?$tuple@$$V@1@@Z
	??$?0ABG$0A@@?$tuple@ABG@std@@QAE@ABG@Z
	??$?0ABG@?$_Tuple_val@ABG@std@@QAE@ABG@Z
	??$?0ABH$$Z$$V@?$pair@$$CBHV?$shared_ptr@VZonePosition@Core@@@boost@@@std@@QAE@Upiecewise_construct_t@1@V?$tuple@ABH@1@V?$tuple@$$V@1@@Z
	??$?0ABH$0A@@?$tuple@ABH@std@@QAE@ABH@Z
	??$?0ABH@?$_Tuple_val@ABH@std@@QAE@ABH@Z
	??$?0ABI$$Z$$V@?$pair@$$CBIE@std@@QAE@Upiecewise_construct_t@1@V?$tuple@ABI@1@V?$tuple@$$V@1@@Z
	??$?0ABI$$Z$$V@?$pair@$$CBIV?$shared_ptr@VEventObject@Entity@Core@@@boost@@@std@@QAE@Upiecewise_construct_t@1@V?$tuple@ABI@1@V?$tuple@$$V@1@@Z
	??$?0ABI$$Z$$V@?$pair@$$CBIV?$shared_ptr@VSession@Core@@@boost@@@std@@QAE@Upiecewise_construct_t@1@V?$tuple@ABI@1@V?$tuple@$$V@1@@Z
	??$?0ABI$$Z$$V@?$pair@$$CBIV?$shared_ptr@VZone@Core@@@boost@@@std@@QAE@Upiecewise_construct_t@1@V?$tuple@ABI@1@V?$tuple@$$V@1@@Z
	??$?0ABI$$Z$$V@?$pair@$$CBIV?$unordered_map@IPAVScriptObject@@U?$hash@I@std@@U?$equal_to@I@3@V?$allocator@U?$pair@$$CBIPAVScriptObject@@@std@@@3@@std@@@std@@QAE@Upiecewise_construct_t@1@V?$tuple@ABI@1@V?$tuple@$$V@1@@Z
	??$?0ABI$0A@@?$tuple@ABI@std@@QAE@ABI@Z
	??$?0ABI@?$_Tuple_val@ABI@std@@QAE@ABI@Z
	??$?0ABU?$less@E@std@@U_One_then_variadic_args_t@1@V?$allocator@U?$_Tree_node@U?$pair@$$CBEV?$shared_ptr@VItem@Core@@@boost@@@std@@PAX@std@@@1@@?$_Compressed_pair@U?$less@E@std@@V?$_Compressed_pair@V?$allocator@U?$_Tree_node@U?$pair@$$CBEV?$shared_ptr@VItem@Core@@@boost@@@std@@PAX@std@@@std@@V?$_Tree_val@U?$_Tree_simple_types@U?$pair@$$CBEV?$shared_ptr@VItem@Core@@@boost@@@std@@@std@@@2@$00@2@$00@std@@QAE@U_One_then_variadic_args_t@1@ABU?$less@E@1@$$QAU21@$$QAV?$allocator@U?$_Tree_node@U?$pair@$$CBEV?$shared_ptr@VItem@Core@@@boost@@@std@@PAX@std@@@1@@Z
	??$?0ABU?$less@E@std@@U_One_then_variadic_args_t@1@V?$allocator@U?$_Tree_node@U?$pair@$$CBEV?$shared_ptr@VStatusEffect@1Core@@@boost@@@std@@PAX@std@@@1@@?$_Compressed_pair@U?$less@E@std@@V?$_Compressed_pair@V?$allocator@U?$_Tree_node@U?$pair@$$CBEV?$shared_ptr@VStatusEffect@1Core@@@boost@@@std@@PAX@std@@@std@@V?$_Tree_val@U?$_Tree_simple_types@U?$pair@$$CBEV?$shared_ptr@VStatusEffect@1Core@@@boost@@@std@@@std@@@2@$00@2@$00@std@@QAE@U_One_then_variadic_args_t@1@ABU?$less@E@1@$$QAU21@$$QAV?$allocator@U?$_Tree_node@U?$pair@$$CBEV?$shared_ptr@VStatusEffect@1Core@@@boost@@@std@@PAX@std@@@1@@Z
	??$?0ABU?$less@E@std@@U_Zero_then_variadic_args_t@1@@?$_Compressed_pair@U?$less@E@std@@V?$_Compressed_pair@V?$allocator@U?$_Tree_node@U?$pair@$$CBEH@std@@PAX@std@@@std@@V?$_Tree_val@U?$_Tree_simple_types@U?$pair@$$CBEH@std@@@std@@@2@$00@2@$00@std@@QAE@U_One_then_variadic_args_t@1@ABU?$less@E@1@$$QAU_Zero_then_variadic_args_t@1@@Z
	??$?0ABU?$less@E@std@@U_Zero_then_variadic_args_t@1@@?$_Compressed_pair@U?$less@E@std@@V?$_Compressed_pair@V?$allocator@U?$_Tree_node@U?$pair@$$CBEI@std@@PAX@std@@@std@@V?$_Tree_val@U?$_Tree_simple_types@U?$pair@$$CBEI@std@@@std@@@2@$00@2@$00@std@@QAE@U_One_then_variadic_args_t@1@ABU?$less@E@1@$$QAU_Zero_then_variadic_args_t@1@@Z
	??$?0ABU?$less@E@std@@U_Zero_then_variadic_args_t@1@@?$_Compressed_pair@U?$less@E@std@@V?$_Compressed_pair@V?$allocator@U?$_Tree_node@U?$pair@$$CBEV?$shared_ptr@VItem@Core@@@boost@@@std@@PAX@std@@@std@@V?$_Tree_val@U?$_Tree_simple_types@U?$pair@$$CBEV?$shared_ptr@VItem@Core@@@boost@@@std@@@std@@@2@$00@2@$00@std@@QAE@U_One_then_variadic_args_t@1@ABU?$less@E@1@$$QAU_Zero_then_variadic_args_t@1@@Z
	??$?0ABU?$less@E@std@@U_Zero_then_variadic_args_t@1@@?$_Compressed_pair@U?$less@E@std@@V?$_Compressed_pair@V?$allocator@U?$_Tree_node@U?$pair@$$CBEV?$shared_ptr@VStatusEffect@1Core@@@boost@@@std@@PAX@std@@@std@@V?$_Tree_val@U?$_Tree_simple_types@U?$pair@$$CBEV?$shared_ptr@VStatusEffect@1Core@@@boost@@@std@@@std@@@2@$00@2@$00@std@@QAE@U_One_then_variadic_args_t@1@ABU?$less@E@1@$$QAU_Zero_then_variadic_args_t@1@@Z
	??$?0ABU?$less@G@std@@U_Zero_then_variadic_args_t@1@@?$_Compressed_pair@U?$less@G@std@@V?$_Compressed_pair@V?$allocator@U?$_Tree_node@U?$pair@$$CBGP8GameConnection@Network@Core@@AEXABVGamePacket@Packets@23@AAVPlayer@Entity@3@@Z@std@@PAX@std@@@std@@V?$_Tree_val@U?$_Tree_simple_types@U?$pair@$$CBGP8GameConnection@Network@Core@@AEXABVGamePacket@Packets@23@AAVPlayer@Entity@3@@Z@std@@@std@@@2@$00@2@$00@std@@QAE@U_One_then_variadic_args_t@1@ABU?$less@G@1@$$QAU_Zero_then_variadic_args_t@1@@Z
	??$?0ABU?$less@G@std@@U_Zero_then_variadic_args_t@1@@?$_Compressed_pair@U?$less@G@std@@V?$_Compressed_pair@V?$allocator@U?$_Tree_node@U?$pair@$$CBGV?$basic_string@DU?$char_traits@D@std@@V?$allocator@D@2@@std@@@std@@PAX@std@@@std@@V?$_Tree_val@U?$_Tree_simple_types@U?$pair@$$CBGV?$basic_string@DU?$char_traits@D@std@@V?$allocator@D@2@@std@@@std@@@std@@@2@$00@2@$00@std@@QAE@U_One_then_variadic_args_t@1@ABU?$less@G@1@$$QAU_Zero_then_variadic_args_t@1@@Z
	??$?0ABU?$less@G@std@@U_Zero_then_variadic_args_t@1@@?$_Compressed_pair@U?$less@G@std@@V?$_Compressed_pair@V?$allocator@U?$_Tree_node@U?$pair@$$CBGV?$shared_ptr@VItemContainer@Core@@@boost@@@std@@PAX@std@@@std@@V?$_Tree_val@U?$_Tree_simple_types@U?$pair@$$CBGV?$shared_ptr@VItemContainer@Core@@@boost@@@std@@@std@@@2@$00@2@$00@std@@QAE@U_One_then_variadic_args_t@1@ABU?$less@G@1@$$QAU_Zero_then_variadic_args_t@1@@Z
	??$?0ABU?$less@I@std@@U_One_then_variadic_args_t@1@V?$allocator@U?$_Tree_node@IPAX@std@@@1@@?$_Compressed_pair@U?$less@I@std@@V?$_Compressed_pair@V?$allocator@U?$_Tree_node@IPAX@std@@@std@@V?$_Tree_val@U?$_Tree_simple_types@I@std@@@2@$00@2@$00@std@@QAE@U_One_then_variadic_args_t@1@ABU?$less@I@1@$$QAU21@$$QAV?$allocator@U?$_Tree_node@IPAX@std@@@1@@Z
	??$?0ABU?$less@I@std@@U_One_then_variadic_args_t@1@V?$allocator@U?$_Tree_node@U?$pair@$$CBIV?$shared_ptr@VEventHandler@Event@Core@@@boost@@@std@@PAX@std@@@1@@?$_Compressed_pair@U?$less@I@std@@V?$_Compressed_pair@V?$allocator@U?$_Tree_node@U?$pair@$$CBIV?$shared_ptr@VEventHandler@Event@Core@@@boost@@@std@@PAX@std@@@std@@V?$_Tree_val@U?$_Tree_simple_types@U?$pair@$$CBIV?$shared_ptr@VEventHandler@Event@Core@@@boost@@@std@@@std@@@2@$00@2@$00@std@@QAE@U_One_then_variadic_args_t@1@ABU?$less@I@1@$$QAU21@$$QAV?$allocator@U?$_Tree_node@U?$pair@$$CBIV?$shared_ptr@VEventHandler@Event@Core@@@boost@@@std@@PAX@std@@@1@@Z
	??$?0ABU?$less@I@std@@U_Zero_then_variadic_args_t@1@@?$_Compressed_pair@U?$less@I@std@@V?$_Compressed_pair@V?$allocator@U?$_Tree_node@IPAX@std@@@std@@V?$_Tree_val@U?$_Tree_simple_types@I@std@@@2@$00@2@$00@std@@QAE@U_One_then_variadic_args_t@1@ABU?$less@I@1@$$QAU_Zero_then_variadic_args_t@1@@Z
	??$?0ABU?$less@I@std@@U_Zero_then_variadic_args_t@1@@?$_Compressed_pair@U?$less@I@std@@V?$_Compressed_pair@V?$allocator@U?$_Tree_node@U?$pair@$$CBIE@std@@PAX@std@@@std@@V?$_Tree_val@U?$_Tree_simple_types@U?$pair@$$CBIE@std@@@std@@@2@$00@2@$00@std@@QAE@U_One_then_variadic_args_t@1@ABU?$less@I@1@$$QAU_Zero_then_variadic_args_t@1@@Z
	??$?0ABU?$less@I@std@@U_Zero_then_variadic_args_t@1@@?$_Compressed_pair@U?$less@I@std@@V?$_Compressed_pair@V?$allocator@U?$_Tree_node@U?$pair@$$CBII@std@@PAX@std@@@std@@V?$_Tree_val@U?$_Tree_simple_types@U?$pair@$$CBII@std@@@std@@@2@$00@2@$00@std@@QAE@U_One_then_variadic_args_t@1@ABU?$less@I@1@$$QAU_Zero_then_variadic_args_t@1@@Z
	??$?0ABU?$less@I@std@@U_Zero_then_variadic_args_t@1@@?$_Compressed_pair@U?$less@I@std@@V?$_Compressed_pair@V?$allocator@U?$_Tree_node@U?$pair@$$CBIV?$shared_ptr@VEventHandler@Event@Core@@@boost@@@std@@PAX@std@@@std@@V?$_Tree_val@U?$_Tree_simple_types@U?$pair@$$CBIV?$shared_ptr@VEventHandler@Event@Core@@@boost@@@std@@@std@@@2@$00@2@$00@std@@QAE@U_One_then_variadic_args_t@1@ABU?$less@I@1@$$QAU_Zero_then_variadic_args_t@1@@Z
	??$?0ABU?$less@I@std@@U_Zero_then_variadic_args_t@1@@?$_Compressed_pair@U?$less@I@std@@V?$_Compressed_pair@V?$allocator@U?$_Tree_node@U?$pair@$$CBIV?$shared_ptr@VSession@Core@@@boost@@@std@@PAX@std@@@std@@V?$_Tree_val@U?$_Tree_simple_types@U?$pair@$$CBIV?$shared_ptr@VSession@Core@@@boost@@@std@@@std@@@2@$00@2@$00@std@@QAE@U_One_then_variadic_args_t@1@ABU?$less@I@1@$$QAU_Zero_then_variadic_args_t@1@@Z
	??$?0ABU?$less@PAVScriptInfo@Scripting@Core@@@std@@U_Zero_then_variadic_args_t@1@@?$_Compressed_pair@U?$less@PAVScriptInfo@Scripting@Core@@@std@@V?$_Compressed_pair@V?$allocator@U?$_Tree_node@PAVScriptInfo@Scripting@Core@@PAX@std@@@std@@V?$_Tree_val@U?$_Tree_simple_types@PAVScriptInfo@Scripting@Core@@@std@@@2@$00@2@$00@std@@QAE@U_One_then_variadic_args_t@1@ABU?$less@PAVScriptInfo@Scripting@Core@@@1@$$QAU_Zero_then_variadic_args_t@1@@Z
	??$?0ABU?$less@V?$basic_string@DU?$char_traits@D@std@@V?$allocator@D@2@@std@@@std@@U_One_then_variadic_args_t@1@V?$allocator@U?$_Tree_node@U?$pair@$$CBV?$basic_string@DU?$char_traits@D@std@@V?$allocator@D@2@@std@@_J@std@@PAX@std@@@1@@?$_Compressed_pair@U?$less@V?$basic_string@DU?$char_traits@D@std@@V?$allocator@D@2@@std@@@std@@V?$_Compressed_pair@V?$allocator@U?$_Tree_node@U?$pair@$$CBV?$basic_string@DU?$char_traits@D@std@@V?$allocator@D@2@@std@@_J@std@@PAX@std@@@std@@V?$_Tree_val@U?$_Tree_simple_types@U?$pair@$$CBV?$basic_string@DU?$char_traits@D@std@@V?$allocator@D@2@@std@@_J@std@@@std@@@2@$00@2@$00@std@@QAE@U_One_then_variadic_args_t@1@ABU?$less@V?$basic_string@DU?$char_traits@D@std@@V?$allocator@D@2@@std@@@1@$$QAU21@$$QAV?$allocator@U?$_Tree_node@U?$pair@$$CBV?$basic_string@DU?$char_traits@D@std@@V?$allocator@D@2@@std@@_J@std@@PAX@std@@@1@@Z
	??$?0ABU?$less@V?$basic_string@DU?$char_traits@D@std@@V?$allocator@D@2@@std@@@std@@U_Zero_then_variadic_args_t@1@@?$_Compressed_pair@U?$less@V?$basic_string@DU?$char_traits@D@std@@V?$allocator@D@2@@std@@@std@@V?$_Compressed_pair@V?$allocator@U?$_Tree_node@U?$pair@$$CBV?$basic_string@DU?$char_traits@D@std@@V?$allocator@D@2@@std@@V?$shared_ptr@VDebugCommand@Core@@@boost@@@std@@PAX@std@@@std@@V?$_Tree_val@U?$_Tree_simple_types@U?$pair@$$CBV?$basic_string@DU?$char_traits@D@std@@V?$allocator@D@2@@std@@V?$shared_ptr@VDebugCommand@Core@@@boost@@@std@@@std@@@2@$00@2@$00@std@@QAE@U_One_then_variadic_args_t@1@ABU?$less@V?$basic_string@DU?$char_traits@D@std@@V?$allocator@D@2@@std@@@1@$$QAU_Zero_then_variadic_args_t@1@@Z
	??$?0ABU?$less@V?$basic_string@DU?$char_traits@D@std@@V?$allocator@D@2@@std@@@std@@U_Zero_then_variadic_args_t@1@@?$_Compressed_pair@U?$less@V?$basic_string@DU?$char_traits@D@std@@V?$allocator@D@2@@std@@@std@@V?$_Compressed_pair@V?$allocator@U?$_Tree_node@U?$pair@$$CBV?$basic_string@DU?$char_traits@D@std@@V?$allocator@D@2@@std@@V?$shared_ptr@VEventObject@Entity@Core@@@boost@@@std@@PAX@std@@@std@@V?$_Tree_val@U?$_Tree_simple_types@U?$pair@$$CBV?$basic_string@DU?$char_traits@D@std@@V?$allocator@D@2@@std@@V?$shared_ptr@VEventObject@Entity@Core@@@boost@@@std@@@std@@@2@$00@2@$00@std@@QAE@U_One_then_variadic_args_t@1@ABU?$less@V?$basic_string@DU?$char_traits@D@std@@V?$allocator@D@2@@std@@@1@$$QAU_Zero_then_variadic_args_t@1@@Z
	??$?0ABU?$less@V?$basic_string@DU?$char_traits@D@std@@V?$allocator@D@2@@std@@@std@@U_Zero_then_variadic_args_t@1@@?$_Compressed_pair@U?$less@V?$basic_string@DU?$char_traits@D@std@@V?$allocator@D@2@@std@@@std@@V?$_Compressed_pair@V?$allocator@U?$_Tree_node@U?$pair@$$CBV?$basic_string@DU?$char_traits@D@std@@V?$allocator@D@2@@std@@V?$shared_ptr@VLinkshell@Core@@@boost@@@std@@PAX@std@@@std@@V?$_Tree_val@U?$_Tree_simple_types@U?$pair@$$CBV?$basic_string@DU?$char_traits@D@std@@V?$allocator@D@2@@std@@V?$shared_ptr@VLinkshell@Core@@@boost@@@std@@@std@@@2@$00@2@$00@std@@QAE@U_One_then_variadic_args_t@1@ABU?$less@V?$basic_string@DU?$char_traits@D@std@@V?$allocator@D@2@@std@@@1@$$QAU_Zero_then_variadic_args_t@1@@Z
	??$?0ABU?$less@V?$basic_string@DU?$char_traits@D@std@@V?$allocator@D@2@@std@@@std@@U_Zero_then_variadic_args_t@1@@?$_Compressed_pair@U?$less@V?$basic_string@DU?$char_traits@D@std@@V?$allocator@D@2@@std@@@std@@V?$_Compressed_pair@V?$allocator@U?$_Tree_node@U?$pair@$$CBV?$basic_string@DU?$char_traits@D@std@@V?$allocator@D@2@@std@@V?$shared_ptr@VSession@Core@@@boost@@@std@@PAX@std@@@std@@V?$_Tree_val@U?$_Tree_simple_types@U?$pair@$$CBV?$basic_string@DU?$char_traits@D@std@@V?$allocator@D@2@@std@@V?$shared_ptr@VSession@Core@@@boost@@@std@@@std@@@2@$00@2@$00@std@@QAE@U_One_then_variadic_args_t@1@ABU?$less@V?$basic_string@DU?$char_traits@D@std@@V?$allocator@D@2@@std@@@1@$$QAU_Zero_then_variadic_args_t@1@@Z
	??$?0ABU?$less@V?$basic_string@DU?$char_traits@D@std@@V?$allocator@D@2@@std@@@std@@U_Zero_then_variadic_args_t@1@@?$_Compressed_pair@U?$less@V?$basic_string@DU?$char_traits@D@std@@V?$allocator@D@2@@std@@@std@@V?$_Compressed_pair@V?$allocator@U?$_Tree_node@U?$pair@$$CBV?$basic_string@DU?$char_traits@D@std@@V?$allocator@D@2@@std@@VWatcher@Watchdog@@@std@@PAX@std@@@std@@V?$_Tree_val@U?$_Tree_simple_types@U?$pair@$$CBV?$basic_string@DU?$char_traits@D@std@@V?$allocator@D@2@@std@@VWatcher@Watchdog@@@std@@@std@@@2@$00@2@$00@std@@QAE@U_One_then_variadic_args_t@1@ABU?$less@V?$basic_string@DU?$char_traits@D@std@@V?$allocator@D@2@@std@@@1@$$QAU_Zero_then_variadic_args_t@1@@Z
	??$?0ABU?$less@V?$basic_string@DU?$char_traits@D@std@@V?$allocator@D@2@@std@@@std@@U_Zero_then_variadic_args_t@1@@?$_Compressed_pair@U?$less@V?$basic_string@DU?$char_traits@D@std@@V?$allocator@D@2@@std@@@std@@V?$_Compressed_pair@V?$allocator@U?$_Tree_node@U?$pair@$$CBV?$basic_string@DU?$char_traits@D@std@@V?$allocator@D@2@@std@@_J@std@@PAX@std@@@std@@V?$_Tree_val@U?$_Tree_simple_types@U?$pair@$$CBV?$basic_string@DU?$char_traits@D@std@@V?$allocator@D@2@@std@@_J@std@@@std@@@2@$00@2@$00@std@@QAE@U_One_then_variadic_args_t@1@ABU?$less@V?$basic_string@DU?$char_traits@D@std@@V?$allocator@D@2@@std@@@1@$$QAU_Zero_then_variadic_args_t@1@@Z
	??$?0ABU?$less@V?$basic_string@DU?$char_traits@D@std@@V?$allocator@D@2@@std@@@std@@U_Zero_then_variadic_args_t@1@@?$_Compressed_pair@U?$less@V?$basic_string@DU?$char_traits@D@std@@V?$allocator@D@2@@std@@@std@@V?$_Compressed_pair@V?$allocator@U?$_Tree_node@V?$basic_string@DU?$char_traits@D@std@@V?$allocator@D@2@@std@@PAX@std@@@std@@V?$_Tree_val@U?$_Tree_simple_types@V?$basic_string@DU?$char_traits@D@std@@V?$allocator@D@2@@std@@@std@@@2@$00@2@$00@std@@QAE@U_One_then_variadic_args_t@1@ABU?$less@V?$basic_string@DU?$char_traits@D@std@@V?$allocator@D@2@@std@@@1@$$QAU_Zero_then_variadic_args_t@1@@Z
	??$?0ABU?$less@V?$shared_ptr@VActor@Entity@Core@@@boost@@@std@@U_One_then_variadic_args_t@1@V?$allocator@U?$_Tree_node@V?$shared_ptr@VActor@Entity@Core@@@boost@@PAX@std@@@1@@?$_Compressed_pair@U?$less@V?$shared_ptr@VActor@Entity@Core@@@boost@@@std@@V?$_Compressed_pair@V?$allocator@U?$_Tree_node@V?$shared_ptr@VActor@Entity@Core@@@boost@@PAX@std@@@std@@V?$_Tree_val@U?$_Tree_simple_types@V?$shared_ptr@VActor@Entity@Core@@@boost@@@std@@@2@$00@2@$00@std@@QAE@U_One_then_variadic_args_t@1@ABU?$less@V?$shared_ptr@VActor@Entity@Core@@@boost@@@1@$$QAU21@$$QAV?$allocator@U?$_Tree_node@V?$shared_ptr@VActor@Entity@Core@@@boost@@PAX@std@@@1@@Z
	??$?0ABU?$less@V?$shared_ptr@VActor@Entity@Core@@@boost@@@std@@U_Zero_then_variadic_args_t@1@@?$_Compressed_pair@U?$less@V?$shared_ptr@VActor@Entity@Core@@@boost@@@std@@V?$_Compressed_pair@V?$allocator@U?$_Tree_node@V?$shared_ptr@VActor@Entity@Core@@@boost@@PAX@std@@@std@@V?$_Tree_val@U?$_Tree_simple_types@V?$shared_ptr@VActor@Entity@Core@@@boost@@@std@@@2@$00@2@$00@std@@QAE@U_One_then_variadic_args_t@1@ABU?$less@V?$shared_ptr@VActor@Entity@Core@@@boost@@@1@$$QAU_Zero_then_variadic_args_t@1@@Z
	??$?0ABU?$less@V?$shared_ptr@VPlayer@Entity@Core@@@boost@@@std@@U_Zero_then_variadic_args_t@1@@?$_Compressed_pair@U?$less@V?$shared_ptr@VPlayer@Entity@Core@@@boost@@@std@@V?$_Compressed_pair@V?$allocator@U?$_Tree_node@V?$shared_ptr@VPlayer@Entity@Core@@@boost@@PAX@std@@@std@@V?$_Tree_val@U?$_Tree_simple_types@V?$shared_ptr@VPlayer@Entity@Core@@@boost@@@std@@@2@$00@2@$00@std@@QAE@U_One_then_variadic_args_t@1@ABU?$less@V?$shared_ptr@VPlayer@Entity@Core@@@boost@@@1@$$QAU_Zero_then_variadic_args_t@1@@Z
	??$?0ABU?$less@V?$shared_ptr@VSession@Core@@@boost@@@std@@U_Zero_then_variadic_args_t@1@@?$_Compressed_pair@U?$less@V?$shared_ptr@VSession@Core@@@boost@@@std@@V?$_Compressed_pair@V?$allocator@U?$_Tree_node@V?$shared_ptr@VSession@Core@@@boost@@PAX@std@@@std@@V?$_Tree_val@U?$_Tree_simple_types@V?$shared_ptr@VSession@Core@@@boost@@@std@@@2@$00@2@$00@std@@QAE@U_One_then_variadic_args_t@1@ABU?$less@V?$shared_ptr@VSession@Core@@@boost@@@1@$$QAU_Zero_then_variadic_args_t@1@@Z
	??$?0ABU?$less@V?$shared_ptr@VZone@Core@@@boost@@@std@@U_Zero_then_variadic_args_t@1@@?$_Compressed_pair@U?$less@V?$shared_ptr@VZone@Core@@@boost@@@std@@V?$_Compressed_pair@V?$allocator@U?$_Tree_node@V?$shared_ptr@VZone@Core@@@boost@@PAX@std@@@std@@V?$_Tree_val@U?$_Tree_simple_types@V?$shared_ptr@VZone@Core@@@boost@@@std@@@2@$00@2@$00@std@@QAE@U_One_then_variadic_args_t@1@ABU?$less@V?$shared_ptr@VZone@Core@@@boost@@@1@$$QAU_Zero_then_variadic_args_t@1@@Z
	??$?0ABU?$less@Vtype_index@std@@@std@@U_Zero_then_variadic_args_t@1@@?$_Compressed_pair@U?$less@Vtype_index@std@@@std@@V?$_Compressed_pair@V?$allocator@U?$_Tree_node@U?$pair@$$CBVtype_index@std@@V?$shared_ptr@X@boost@@@std@@PAX@std@@@std@@V?$_Tree_val@U?$_Tree_simple_types@U?$pair@$$CBVtype_index@std@@V?$shared_ptr@X@boost@@@std@@@std@@@2@$00@2@$00@std@@QAE@U_One_then_variadic_args_t@1@ABU?$less@Vtype_index@std@@@1@$$QAU_Zero_then_variadic_args_t@1@@Z
	??$?0ABU?$less@_K@std@@U_One_then_variadic_args_t@1@V?$allocator@U?$_Tree_node@_KPAX@std@@@1@@?$_Compressed_pair@U?$less@_K@std@@V?$_Compressed_pair@V?$allocator@U?$_Tree_node@_KPAX@std@@@std@@V?$_Tree_val@U?$_Tree_simple_types@_K@std@@@2@$00@2@$00@std@@QAE@U_One_then_variadic_args_t@1@ABU?$less@_K@1@$$QAU21@$$QAV?$allocator@U?$_Tree_node@_KPAX@std@@@1@@Z
	??$?0ABU?$less@_K@std@@U_Zero_then_variadic_args_t@1@@?$_Compressed_pair@U?$less@_K@std@@V?$_Compressed_pair@V?$allocator@U?$_Tree_node@U?$pair@$$CB_KV?$shared_ptr@VLinkshell@Core@@@boost@@@std@@PAX@std@@@std@@V?$_Tree_val@U?$_Tree_simple_types@U?$pair@$$CB_KV?$shared_ptr@VLinkshell@Core@@@boost@@@std@@@std@@@2@$00@2@$00@std@@QAE@U_One_then_variadic_args_t@1@ABU?$less@_K@1@$$QAU_Zero_then_variadic_args_t@1@@Z
	??$?0ABU?$less@_K@std@@U_Zero_then_variadic_args_t@1@@?$_Compressed_pair@U?$less@_K@std@@V?$_Compressed_pair@V?$allocator@U?$_Tree_node@_KPAX@std@@@std@@V?$_Tree_val@U?$_Tree_simple_types@_K@std@@@2@$00@2@$00@std@@QAE@U_One_then_variadic_args_t@1@ABU?$less@_K@1@$$QAU_Zero_then_variadic_args_t@1@@Z
	??$?0ABV?$allocator@D@std@@$$V@?$_Compressed_pair@V?$allocator@D@std@@V?$_String_val@U?$_Simple_types@D@std@@@2@$00@std@@QAE@U_One_then_variadic_args_t@1@ABV?$allocator@D@1@@Z
	??$?0ABV?$allocator@D@std@@X@?$_String_alloc@U?$_String_base_types@DV?$allocator@D@std@@@std@@@std@@QAE@ABV?$allocator@D@1@@Z
	??$?0ABV?$allocator@E@std@@$$V@?$_Compressed_pair@V?$allocator@E@std@@V?$_Vector_val@U?$_Simple_types@E@std@@@2@$00@std@@QAE@U_One_then_variadic_args_t@1@ABV?$allocator@E@1@@Z
	??$?0ABV?$allocator@E@std@@X@?$_Vector_alloc@U?$_Vec_base_types@EV?$allocator@E@std@@@std@@@std@@QAE@ABV?$allocator@E@1@@Z
	??$?0ABV?$allocator@I@std@@$$V@?$_Compressed_pair@V?$allocator@I@std@@V?$_Vector_val@U?$_Simple_types@I@std@@@2@$00@std@@QAE@U_One_then_variadic_args_t@1@ABV?$allocator@I@1@@Z
	??$?0ABV?$allocator@I@std@@X@?$_Vector_alloc@U?$_Vec_base_types@IV?$allocator@I@std@@@std@@@std@@QAE@ABV?$allocator@I@1@@Z
	??$?0ABV?$allocator@U?$pair@$$CBGV?$shared_ptr@UTerritoryType@Data@Core@@@boost@@@std@@@std@@$$V@?$_Compressed_pair@V?$allocator@U?$_List_node@U?$pair@$$CBGV?$shared_ptr@UTerritoryType@Data@Core@@@boost@@@std@@PAX@std@@@std@@V?$_List_val@U?$_List_simple_types@U?$pair@$$CBGV?$shared_ptr@UTerritoryType@Data@Core@@@boost@@@std@@@std@@@2@$00@std@@QAE@U_One_then_variadic_args_t@1@ABV?$allocator@U?$pair@$$CBGV?$shared_ptr@UTerritoryType@Data@Core@@@boost@@@std@@@1@@Z
	??$?0ABV?$allocator@U?$pair@$$CBGV?$shared_ptr@UTerritoryType@Data@Core@@@boost@@@std@@@std@@X@?$_List_alloc@U?$_List_base_types@U?$pair@$$CBGV?$shared_ptr@UTerritoryType@Data@Core@@@boost@@@std@@V?$allocator@U?$pair@$$CBGV?$shared_ptr@UTerritoryType@Data@Core@@@boost@@@std@@@2@@std@@@std@@QAE@ABV?$allocator@U?$pair@$$CBGV?$shared_ptr@UTerritoryType@Data@Core@@@boost@@@std@@@1@@Z
	??$?0ABV?$allocator@U?$pair@$$CBGV?$shared_ptr@UTerritoryType@Data@Core@@@boost@@@std@@@std@@X@?$_List_buy@U?$pair@$$CBGV?$shared_ptr@UTerritoryType@Data@Core@@@boost@@@std@@V?$allocator@U?$pair@$$CBGV?$shared_ptr@UTerritoryType@Data@Core@@@boost@@@std@@@2@@std@@QAE@ABV?$allocator@U?$pair@$$CBGV?$shared_ptr@UTerritoryType@Data@Core@@@boost@@@std@@@1@@Z
	??$?0ABV?$allocator@U?$pair@$$CBGV?$unordered_map@IV?$shared_ptr@VZone@Core@@@boost@@U?$hash@I@std@@U?$equal_to@I@4@V?$allocator@U?$pair@$$CBIV?$shared_ptr@VZone@Core@@@boost@@@std@@@4@@std@@@std@@@std@@$$V@?$_Compressed_pair@V?$allocator@U?$_List_node@U?$pair@$$CBGV?$unordered_map@IV?$shared_ptr@VZone@Core@@@boost@@U?$hash@I@std@@U?$equal_to@I@4@V?$allocator@U?$pair@$$CBIV?$shared_ptr@VZone@Core@@@boost@@@std@@@4@@std@@@std@@PAX@std@@@std@@V?$_List_val@U?$_List_simple_types@U?$pair@$$CBGV?$unordered_map@IV?$shared_ptr@VZone@Core@@@boost@@U?$hash@I@std@@U?$equal_to@I@4@V?$allocator@U?$pair@$$CBIV?$shared_ptr@VZone@Core@@@boost@@@std@@@4@@std@@@std@@@std@@@2@$00@std@@QAE@U_One_then_variadic_args_t@1@ABV?$allocator@U?$pair@$$CBGV?$unordered_map@IV?$shared_ptr@VZone@Core@@@boost@@U?$hash@I@std@@U?$equal_to@I@4@V?$allocator@U?$pair@$$CBIV?$shared_ptr@VZone@Core@@@boost@@@std@@@4@@std@@@std@@@1@@Z
	??$?0ABV?$allocator@U?$pair@$$CBGV?$unordered_map@IV?$shared_ptr@VZone@Core@@@boost@@U?$hash@I@std@@U?$equal_to@I@4@V?$allocator@U?$pair@$$CBIV?$shared_ptr@VZone@Core@@@boost@@@std@@@4@@std@@@std@@@std@@X@?$_List_alloc@U?$_List_base_types@U?$pair@$$CBGV?$unordered_map@IV?$shared_ptr@VZone@Core@@@boost@@U?$hash@I@std@@U?$equal_to@I@4@V?$allocator@U?$pair@$$CBIV?$shared_ptr@VZone@Core@@@boost@@@std@@@4@@std@@@std@@V?$allocator@U?$pair@$$CBGV?$unordered_map@IV?$shared_ptr@VZone@Core@@@boost@@U?$hash@I@std@@U?$equal_to@I@4@V?$allocator@U?$pair@$$CBIV?$shared_ptr@VZone@Core@@@boost@@@std@@@4@@std@@@std@@@2@@std@@@std@@QAE@ABV?$allocator@U?$pair@$$CBGV?$unordered_map@IV?$shared_ptr@VZone@Core@@@boost@@U?$hash@I@std@@U?$equal_to@I@4@V?$allocator@U?$pair@$$CBIV?$shared_ptr@VZone@Core@@@boost@@@std@@@4@@std@@@std@@@1@@Z
	??$?0ABV?$allocator@U?$pair@$$CBGV?$unordered_map@IV?$shared_ptr@VZone@Core@@@boost@@U?$hash@I@std@@U?$equal_to@I@4@V?$allocator@U?$pair@$$CBIV?$shared_ptr@VZone@Core@@@boost@@@std@@@4@@std@@@std@@@std@@X@?$_List_buy@U?$pair@$$CBGV?$unordered_map@IV?$shared_ptr@VZone@Core@@@boost@@U?$hash@I@std@@U?$equal_to@I@4@V?$allocator@U?$pair@$$CBIV?$shared_ptr@VZone@Core@@@boost@@@std@@@4@@std@@@std@@V?$allocator@U?$pair@$$CBGV?$unordered_map@IV?$shared_ptr@VZone@Core@@@boost@@U?$hash@I@std@@U?$equal_to@I@4@V?$allocator@U?$pair@$$CBIV?$shared_ptr@VZone@Core@@@boost@@@std@@@4@@std@@@std@@@2@@std@@QAE@ABV?$allocator@U?$pair@$$CBGV?$unordered_map@IV?$shared_ptr@VZone@Core@@@boost@@U?$hash@I@std@@U?$equal_to@I@4@V?$allocator@U?$pair@$$CBIV?$shared_ptr@VZone@Core@@@boost@@@std@@@4@@std@@@std@@@1@@Z
	??$?0ABV?$allocator@U?$pair@$$CBHV?$shared_ptr@VEventObject@Entity@Core@@@boost@@@std@@@std@@$$V@?$_Compressed_pair@V?$allocator@U?$_List_node@U?$pair@$$CBHV?$shared_ptr@VEventObject@Entity@Core@@@boost@@@std@@PAX@std@@@std@@V?$_List_val@U?$_List_simple_types@U?$pair@$$CBHV?$shared_ptr@VEventObject@Entity@Core@@@boost@@@std@@@std@@@2@$00@std@@QAE@U_One_then_variadic_args_t@1@ABV?$allocator@U?$pair@$$CBHV?$shared_ptr@VEventObject@Entity@Core@@@boost@@@std@@@1@@Z
	??$?0ABV?$allocator@U?$pair@$$CBHV?$shared_ptr@VEventObject@Entity@Core@@@boost@@@std@@@std@@X@?$_List_alloc@U?$_List_base_types@U?$pair@$$CBHV?$shared_ptr@VEventObject@Entity@Core@@@boost@@@std@@V?$allocator@U?$pair@$$CBHV?$shared_ptr@VEventObject@Entity@Core@@@boost@@@std@@@2@@std@@@std@@QAE@ABV?$allocator@U?$pair@$$CBHV?$shared_ptr@VEventObject@Entity@Core@@@boost@@@std@@@1@@Z
	??$?0ABV?$allocator@U?$pair@$$CBHV?$shared_ptr@VEventObject@Entity@Core@@@boost@@@std@@@std@@X@?$_List_buy@U?$pair@$$CBHV?$shared_ptr@VEventObject@Entity@Core@@@boost@@@std@@V?$allocator@U?$pair@$$CBHV?$shared_ptr@VEventObject@Entity@Core@@@boost@@@std@@@2@@std@@QAE@ABV?$allocator@U?$pair@$$CBHV?$shared_ptr@VEventObject@Entity@Core@@@boost@@@std@@@1@@Z
	??$?0ABV?$allocator@U?$pair@$$CBHV?$shared_ptr@VPlayer@Entity@Core@@@boost@@@std@@@std@@$$V@?$_Compressed_pair@V?$allocator@U?$_List_node@U?$pair@$$CBHV?$shared_ptr@VPlayer@Entity@Core@@@boost@@@std@@PAX@std@@@std@@V?$_List_val@U?$_List_simple_types@U?$pair@$$CBHV?$shared_ptr@VPlayer@Entity@Core@@@boost@@@std@@@std@@@2@$00@std@@QAE@U_One_then_variadic_args_t@1@ABV?$allocator@U?$pair@$$CBHV?$shared_ptr@VPlayer@Entity@Core@@@boost@@@std@@@1@@Z
	??$?0ABV?$allocator@U?$pair@$$CBHV?$shared_ptr@VPlayer@Entity@Core@@@boost@@@std@@@std@@X@?$_List_alloc@U?$_List_base_types@U?$pair@$$CBHV?$shared_ptr@VPlayer@Entity@Core@@@boost@@@std@@V?$allocator@U?$pair@$$CBHV?$shared_ptr@VPlayer@Entity@Core@@@boost@@@std@@@2@@std@@@std@@QAE@ABV?$allocator@U?$pair@$$CBHV?$shared_ptr@VPlayer@Entity@Core@@@boost@@@std@@@1@@Z
	??$?0ABV?$allocator@U?$pair@$$CBHV?$shared_ptr@VPlayer@Entity@Core@@@boost@@@std@@@std@@X@?$_List_buy@U?$pair@$$CBHV?$shared_ptr@VPlayer@Entity@Core@@@boost@@@std@@V?$allocator@U?$pair@$$CBHV?$shared_ptr@VPlayer@Entity@Core@@@boost@@@std@@@2@@std@@QAE@ABV?$allocator@U?$pair@$$CBHV?$shared_ptr@VPlayer@Entity@Core@@@boost@@@std@@@1@@Z
	??$?0ABV?$allocator@U?$pair@$$CBHV?$shared_ptr@VZonePosition@Core@@@boost@@@std@@@std@@$$V@?$_Compressed_pair@V?$allocator@U?$_List_node@U?$pair@$$CBHV?$shared_ptr@VZonePosition@Core@@@boost@@@std@@PAX@std@@@std@@V?$_List_val@U?$_List_simple_types@U?$pair@$$CBHV?$shared_ptr@VZonePosition@Core@@@boost@@@std@@@std@@@2@$00@std@@QAE@U_One_then_variadic_args_t@1@ABV?$allocator@U?$pair@$$CBHV?$shared_ptr@VZonePosition@Core@@@boost@@@std@@@1@@Z
	??$?0ABV?$allocator@U?$pair@$$CBHV?$shared_ptr@VZonePosition@Core@@@boost@@@std@@@std@@X@?$_List_alloc@U?$_List_base_types@U?$pair@$$CBHV?$shared_ptr@VZonePosition@Core@@@boost@@@std@@V?$allocator@U?$pair@$$CBHV?$shared_ptr@VZonePosition@Core@@@boost@@@std@@@2@@std@@@std@@QAE@ABV?$allocator@U?$pair@$$CBHV?$shared_ptr@VZonePosition@Core@@@boost@@@std@@@1@@Z
	??$?0ABV?$allocator@U?$pair@$$CBHV?$shared_ptr@VZonePosition@Core@@@boost@@@std@@@std@@X@?$_List_buy@U?$pair@$$CBHV?$shared_ptr@VZonePosition@Core@@@boost@@@std@@V?$allocator@U?$pair@$$CBHV?$shared_ptr@VZonePosition@Core@@@boost@@@std@@@2@@std@@QAE@ABV?$allocator@U?$pair@$$CBHV?$shared_ptr@VZonePosition@Core@@@boost@@@std@@@1@@Z
	??$?0ABV?$allocator@U?$pair@$$CBIE@std@@@std@@$$V@?$_Compressed_pair@V?$allocator@U?$_List_node@U?$pair@$$CBIE@std@@PAX@std@@@std@@V?$_List_val@U?$_List_simple_types@U?$pair@$$CBIE@std@@@std@@@2@$00@std@@QAE@U_One_then_variadic_args_t@1@ABV?$allocator@U?$pair@$$CBIE@std@@@1@@Z
	??$?0ABV?$allocator@U?$pair@$$CBIE@std@@@std@@X@?$_List_alloc@U?$_List_base_types@U?$pair@$$CBIE@std@@V?$allocator@U?$pair@$$CBIE@std@@@2@@std@@@std@@QAE@ABV?$allocator@U?$pair@$$CBIE@std@@@1@@Z
	??$?0ABV?$allocator@U?$pair@$$CBIE@std@@@std@@X@?$_List_buy@U?$pair@$$CBIE@std@@V?$allocator@U?$pair@$$CBIE@std@@@2@@std@@QAE@ABV?$allocator@U?$pair@$$CBIE@std@@@1@@Z
	??$?0ABV?$allocator@U?$pair@$$CBII@std@@@std@@$$V@?$_Compressed_pair@V?$allocator@U?$_List_node@U?$pair@$$CBII@std@@PAX@std@@@std@@V?$_List_val@U?$_List_simple_types@U?$pair@$$CBII@std@@@std@@@2@$00@std@@QAE@U_One_then_variadic_args_t@1@ABV?$allocator@U?$pair@$$CBII@std@@@1@@Z
	??$?0ABV?$allocator@U?$pair@$$CBII@std@@@std@@X@?$_List_alloc@U?$_List_base_types@U?$pair@$$CBII@std@@V?$allocator@U?$pair@$$CBII@std@@@2@@std@@@std@@QAE@ABV?$allocator@U?$pair@$$CBII@std@@@1@@Z
	??$?0ABV?$allocator@U?$pair@$$CBII@std@@@std@@X@?$_List_buy@U?$pair@$$CBII@std@@V?$allocator@U?$pair@$$CBII@std@@@2@@std@@QAE@ABV?$allocator@U?$pair@$$CBII@std@@@1@@Z
	??$?0ABV?$allocator@U?$pair@$$CBIPAVScriptObject@@@std@@@std@@$$V@?$_Compressed_pair@V?$allocator@U?$_List_node@U?$pair@$$CBIPAVScriptObject@@@std@@PAX@std@@@std@@V?$_List_val@U?$_List_simple_types@U?$pair@$$CBIPAVScriptObject@@@std@@@std@@@2@$00@std@@QAE@U_One_then_variadic_args_t@1@ABV?$allocator@U?$pair@$$CBIPAVScriptObject@@@std@@@1@@Z
	??$?0ABV?$allocator@U?$pair@$$CBIPAVScriptObject@@@std@@@std@@X@?$_List_alloc@U?$_List_base_types@U?$pair@$$CBIPAVScriptObject@@@std@@V?$allocator@U?$pair@$$CBIPAVScriptObject@@@std@@@2@@std@@@std@@QAE@ABV?$allocator@U?$pair@$$CBIPAVScriptObject@@@std@@@1@@Z
	??$?0ABV?$allocator@U?$pair@$$CBIPAVScriptObject@@@std@@@std@@X@?$_List_buy@U?$pair@$$CBIPAVScriptObject@@@std@@V?$allocator@U?$pair@$$CBIPAVScriptObject@@@std@@@2@@std@@QAE@ABV?$allocator@U?$pair@$$CBIPAVScriptObject@@@std@@@1@@Z
	??$?0ABV?$allocator@U?$pair@$$CBIV?$shared_ptr@VEventObject@Entity@Core@@@boost@@@std@@@std@@$$V@?$_Compressed_pair@V?$allocator@U?$_List_node@U?$pair@$$CBIV?$shared_ptr@VEventObject@Entity@Core@@@boost@@@std@@PAX@std@@@std@@V?$_List_val@U?$_List_simple_types@U?$pair@$$CBIV?$shared_ptr@VEventObject@Entity@Core@@@boost@@@std@@@std@@@2@$00@std@@QAE@U_One_then_variadic_args_t@1@ABV?$allocator@U?$pair@$$CBIV?$shared_ptr@VEventObject@Entity@Core@@@boost@@@std@@@1@@Z
	??$?0ABV?$allocator@U?$pair@$$CBIV?$shared_ptr@VEventObject@Entity@Core@@@boost@@@std@@@std@@X@?$_List_alloc@U?$_List_base_types@U?$pair@$$CBIV?$shared_ptr@VEventObject@Entity@Core@@@boost@@@std@@V?$allocator@U?$pair@$$CBIV?$shared_ptr@VEventObject@Entity@Core@@@boost@@@std@@@2@@std@@@std@@QAE@ABV?$allocator@U?$pair@$$CBIV?$shared_ptr@VEventObject@Entity@Core@@@boost@@@std@@@1@@Z
	??$?0ABV?$allocator@U?$pair@$$CBIV?$shared_ptr@VEventObject@Entity@Core@@@boost@@@std@@@std@@X@?$_List_buy@U?$pair@$$CBIV?$shared_ptr@VEventObject@Entity@Core@@@boost@@@std@@V?$allocator@U?$pair@$$CBIV?$shared_ptr@VEventObject@Entity@Core@@@boost@@@std@@@2@@std@@QAE@ABV?$allocator@U?$pair@$$CBIV?$shared_ptr@VEventObject@Entity@Core@@@boost@@@std@@@1@@Z
	??$?0ABV?$allocator@U?$pair@$$CBIV?$shared_ptr@VZone@Core@@@boost@@@std@@@std@@$$V@?$_Compressed_pair@V?$allocator@U?$_List_node@U?$pair@$$CBIV?$shared_ptr@VZone@Core@@@boost@@@std@@PAX@std@@@std@@V?$_List_val@U?$_List_simple_types@U?$pair@$$CBIV?$shared_ptr@VZone@Core@@@boost@@@std@@@std@@@2@$00@std@@QAE@U_One_then_variadic_args_t@1@ABV?$allocator@U?$pair@$$CBIV?$shared_ptr@VZone@Core@@@boost@@@std@@@1@@Z
	??$?0ABV?$allocator@U?$pair@$$CBIV?$shared_ptr@VZone@Core@@@boost@@@std@@@std@@X@?$_List_alloc@U?$_List_base_types@U?$pair@$$CBIV?$shared_ptr@VZone@Core@@@boost@@@std@@V?$allocator@U?$pair@$$CBIV?$shared_ptr@VZone@Core@@@boost@@@std@@@2@@std@@@std@@QAE@ABV?$allocator@U?$pair@$$CBIV?$shared_ptr@VZone@Core@@@boost@@@std@@@1@@Z
	??$?0ABV?$allocator@U?$pair@$$CBIV?$shared_ptr@VZone@Core@@@boost@@@std@@@std@@X@?$_List_buy@U?$pair@$$CBIV?$shared_ptr@VZone@Core@@@boost@@@std@@V?$allocator@U?$pair@$$CBIV?$shared_ptr@VZone@Core@@@boost@@@std@@@2@@std@@QAE@ABV?$allocator@U?$pair@$$CBIV?$shared_ptr@VZone@Core@@@boost@@@std@@@1@@Z
	??$?0ABV?$allocator@U?$pair@$$CBIV?$unordered_map@IPAVScriptObject@@U?$hash@I@std@@U?$equal_to@I@3@V?$allocator@U?$pair@$$CBIPAVScriptObject@@@std@@@3@@std@@@std@@@std@@$$V@?$_Compressed_pair@V?$allocator@U?$_List_node@U?$pair@$$CBIV?$unordered_map@IPAVScriptObject@@U?$hash@I@std@@U?$equal_to@I@3@V?$allocator@U?$pair@$$CBIPAVScriptObject@@@std@@@3@@std@@@std@@PAX@std@@@std@@V?$_List_val@U?$_List_simple_types@U?$pair@$$CBIV?$unordered_map@IPAVScriptObject@@U?$hash@I@std@@U?$equal_to@I@3@V?$allocator@U?$pair@$$CBIPAVScriptObject@@@std@@@3@@std@@@std@@@std@@@2@$00@std@@QAE@U_One_then_variadic_args_t@1@ABV?$allocator@U?$pair@$$CBIV?$unordered_map@IPAVScriptObject@@U?$hash@I@std@@U?$equal_to@I@3@V?$allocator@U?$pair@$$CBIPAVScriptObject@@@std@@@3@@std@@@std@@@1@@Z
	??$?0ABV?$allocator@U?$pair@$$CBIV?$unordered_map@IPAVScriptObject@@U?$hash@I@std@@U?$equal_to@I@3@V?$allocator@U?$pair@$$CBIPAVScriptObject@@@std@@@3@@std@@@std@@@std@@X@?$_List_alloc@U?$_List_base_types@U?$pair@$$CBIV?$unordered_map@IPAVScriptObject@@U?$hash@I@std@@U?$equal_to@I@3@V?$allocator@U?$pair@$$CBIPAVScriptObject@@@std@@@3@@std@@@std@@V?$allocator@U?$pair@$$CBIV?$unordered_map@IPAVScriptObject@@U?$hash@I@std@@U?$equal_to@I@3@V?$allocator@U?$pair@$$CBIPAVScriptObject@@@std@@@3@@std@@@std@@@2@@std@@@std@@QAE@ABV?$allocator@U?$pair@$$CBIV?$unordered_map@IPAVScriptObject@@U?$hash@I@std@@U?$equal_to@I@3@V?$allocator@U?$pair@$$CBIPAVScriptObject@@@std@@@3@@std@@@std@@@1@@Z
	??$?0ABV?$allocator@U?$pair@$$CBIV?$unordered_map@IPAVScriptObject@@U?$hash@I@std@@U?$equal_to@I@3@V?$allocator@U?$pair@$$CBIPAVScriptObject@@@std@@@3@@std@@@std@@@std@@X@?$_List_buy@U?$pair@$$CBIV?$unordered_map@IPAVScriptObject@@U?$hash@I@std@@U?$equal_to@I@3@V?$allocator@U?$pair@$$CBIPAVScriptObject@@@std@@@3@@std@@@std@@V?$allocator@U?$pair@$$CBIV?$unordered_map@IPAVScriptObject@@U?$hash@I@std@@U?$equal_to@I@3@V?$allocator@U?$pair@$$CBIPAVScriptObject@@@std@@@3@@std@@@std@@@2@@std@@QAE@ABV?$allocator@U?$pair@$$CBIV?$unordered_map@IPAVScriptObject@@U?$hash@I@std@@U?$equal_to@I@3@V?$allocator@U?$pair@$$CBIPAVScriptObject@@@std@@@3@@std@@@std@@@1@@Z
	??$?0ABV?$allocator@U?$pair@$$CBV?$basic_string@DU?$char_traits@D@std@@V?$allocator@D@2@@std@@PAVScriptInfo@Scripting@Core@@@std@@@std@@$$V@?$_Compressed_pair@V?$allocator@U?$_List_node@U?$pair@$$CBV?$basic_string@DU?$char_traits@D@std@@V?$allocator@D@2@@std@@PAVScriptInfo@Scripting@Core@@@std@@PAX@std@@@std@@V?$_List_val@U?$_List_simple_types@U?$pair@$$CBV?$basic_string@DU?$char_traits@D@std@@V?$allocator@D@2@@std@@PAVScriptInfo@Scripting@Core@@@std@@@std@@@2@$00@std@@QAE@U_One_then_variadic_args_t@1@ABV?$allocator@U?$pair@$$CBV?$basic_string@DU?$char_traits@D@std@@V?$allocator@D@2@@std@@PAVScriptInfo@Scripting@Core@@@std@@@1@@Z
	??$?0ABV?$allocator@U?$pair@$$CBV?$basic_string@DU?$char_traits@D@std@@V?$allocator@D@2@@std@@PAVScriptInfo@Scripting@Core@@@std@@@std@@X@?$_List_alloc@U?$_List_base_types@U?$pair@$$CBV?$basic_string@DU?$char_traits@D@std@@V?$allocator@D@2@@std@@PAVScriptInfo@Scripting@Core@@@std@@V?$allocator@U?$pair@$$CBV?$basic_string@DU?$char_traits@D@std@@V?$allocator@D@2@@std@@PAVScriptInfo@Scripting@Core@@@std@@@2@@std@@@std@@QAE@ABV?$allocator@U?$pair@$$CBV?$basic_string@DU?$char_traits@D@std@@V?$allocator@D@2@@std@@PAVScriptInfo@Scripting@Core@@@std@@@1@@Z
	??$?0ABV?$allocator@U?$pair@$$CBV?$basic_string@DU?$char_traits@D@std@@V?$allocator@D@2@@std@@PAVScriptInfo@Scripting@Core@@@std@@@std@@X@?$_List_buy@U?$pair@$$CBV?$basic_string@DU?$char_traits@D@std@@V?$allocator@D@2@@std@@PAVScriptInfo@Scripting@Core@@@std@@V?$allocator@U?$pair@$$CBV?$basic_string@DU?$char_traits@D@std@@V?$allocator@D@2@@std@@PAVScriptInfo@Scripting@Core@@@std@@@2@@std@@QAE@ABV?$allocator@U?$pair@$$CBV?$basic_string@DU?$char_traits@D@std@@V?$allocator@D@2@@std@@PAVScriptInfo@Scripting@Core@@@std@@@1@@Z
	??$?0ABV?$allocator@U?$pair@$$CBV?$basic_string@DU?$char_traits@D@std@@V?$allocator@D@2@@std@@V?$basic_ptree@V?$basic_string@DU?$char_traits@D@std@@V?$allocator@D@2@@std@@V12@U?$less@V?$basic_string@DU?$char_traits@D@std@@V?$allocator@D@2@@std@@@2@@property_tree@boost@@@std@@@std@@X@?$base_from_member@V?$allocator@U?$sequenced_index_node@U?$ordered_index_node@Unull_augment_policy@detail@multi_index@boost@@U?$index_node_base@U?$pair@$$CBV?$basic_string@DU?$char_traits@D@std@@V?$allocator@D@2@@std@@V?$basic_ptree@V?$basic_string@DU?$char_traits@D@std@@V?$allocator@D@2@@std@@V12@U?$less@V?$basic_string@DU?$char_traits@D@std@@V?$allocator@D@2@@std@@@2@@property_tree@boost@@@std@@V?$allocator@U?$pair@$$CBV?$basic_string@DU?$char_traits@D@std@@V?$allocator@D@2@@std@@V?$basic_ptree@V?$basic_string@DU?$char_traits@D@std@@V?$allocator@D@2@@std@@V12@U?$less@V?$basic_string@DU?$char_traits@D@std@@V?$allocator@D@2@@std@@@2@@property_tree@boost@@@std@@@2@@234@@detail@multi_index@boost@@@detail@multi_index@boost@@@std@@$0A@@boost@@IAE@ABV?$allocator@U?$pair@$$CBV?$basic_string@DU?$char_traits@D@std@@V?$allocator@D@2@@std@@V?$basic_ptree@V?$basic_string@DU?$char_traits@D@std@@V?$allocator@D@2@@std@@V12@U?$less@V?$basic_string@DU?$char_traits@D@std@@V?$allocator@D@2@@std@@@2@@property_tree@boost@@@std@@@std@@@Z
	??$?0ABV?$allocator@U?$sequenced_index_node@U?$ordered_index_node@Unull_augment_policy@detail@multi_index@boost@@U?$index_node_base@U?$pair@$$CBV?$basic_string@DU?$char_traits@D@std@@V?$allocator@D@2@@std@@V?$basic_ptree@V?$basic_string@DU?$char_traits@D@std@@V?$allocator@D@2@@std@@V12@U?$less@V?$basic_string@DU?$char_traits@D@std@@V?$allocator@D@2@@std@@@2@@property_tree@boost@@@std@@V?$allocator@U?$pair@$$CBV?$basic_string@DU?$char_traits@D@std@@V?$allocator@D@2@@std@@V?$basic_ptree@V?$basic_string@DU?$char_traits@D@std@@V?$allocator@D@2@@std@@V12@U?$less@V?$basic_string@DU?$char_traits@D@std@@V?$allocator@D@2@@std@@@2@@property_tree@boost@@@std@@@2@@234@@detail@multi_index@boost@@@detail@multi_index@boost@@@std@@X@?$base_from_member@V?$allocator@U?$sequenced_index_node@U?$ordered_index_node@Unull_augment_policy@detail@multi_index@boost@@U?$index_node_base@U?$pair@$$CBV?$basic_string@DU?$char_traits@D@std@@V?$allocator@D@2@@std@@V?$basic_ptree@V?$basic_string@DU?$char_traits@D@std@@V?$allocator@D@2@@std@@V12@U?$less@V?$basic_string@DU?$char_traits@D@std@@V?$allocator@D@2@@std@@@2@@property_tree@boost@@@std@@V?$allocator@U?$pair@$$CBV?$basic_string@DU?$char_traits@D@std@@V?$allocator@D@2@@std@@V?$basic_ptree@V?$basic_string@DU?$char_traits@D@std@@V?$allocator@D@2@@std@@V12@U?$less@V?$basic_string@DU?$char_traits@D@std@@V?$allocator@D@2@@std@@@2@@property_tree@boost@@@std@@@2@@234@@detail@multi_index@boost@@@detail@multi_index@boost@@@std@@$0A@@boost@@IAE@ABV?$allocator@U?$sequenced_index_node@U?$ordered_index_node@Unull_augment_policy@detail@multi_index@boost@@U?$index_node_base@U?$pair@$$CBV?$basic_string@DU?$char_traits@D@std@@V?$allocator@D@2@@std@@V?$basic_ptree@V?$basic_string@DU?$char_traits@D@std@@V?$allocator@D@2@@std@@V12@U?$less@V?$basic_string@DU?$char_traits@D@std@@V?$allocator@D@2@@std@@@2@@property_tree@boost@@@std@@V?$allocator@U?$pair@$$CBV?$basic_string@DU?$char_traits@D@std@@V?$allocator@D@2@@std@@V?$basic_ptree@V?$basic_string@DU?$char_traits@D@std@@V?$allocator@D@2@@std@@V12@U?$less@V?$basic_string@DU?$char_traits@D@std@@V?$allocator@D@2@@std@@@2@@property_tree@boost@@@std@@@2@@234@@detail@multi_index@boost@@@detail@multi_index@boost@@@std@@@Z
	??$?0ABV?$allocator@V?$_List_unchecked_iterator@V?$_List_val@U?$_List_simple_types@U?$pair@$$CBGV?$shared_ptr@UTerritoryType@Data@Core@@@boost@@@std@@@std@@@std@@@std@@@std@@$$V@?$_Compressed_pair@V?$allocator@V?$_List_unchecked_iterator@V?$_List_val@U?$_List_simple_types@U?$pair@$$CBGV?$shared_ptr@UTerritoryType@Data@Core@@@boost@@@std@@@std@@@std@@@std@@@std@@V?$_Vector_val@U?$_Simple_types@V?$_List_unchecked_iterator@V?$_List_val@U?$_List_simple_types@U?$pair@$$CBGV?$shared_ptr@UTerritoryType@Data@Core@@@boost@@@std@@@std@@@std@@@std@@@std@@@2@$00@std@@QAE@U_One_then_variadic_args_t@1@ABV?$allocator@V?$_List_unchecked_iterator@V?$_List_val@U?$_List_simple_types@U?$pair@$$CBGV?$shared_ptr@UTerritoryType@Data@Core@@@boost@@@std@@@std@@@std@@@std@@@1@@Z
	??$?0ABV?$allocator@V?$_List_unchecked_iterator@V?$_List_val@U?$_List_simple_types@U?$pair@$$CBGV?$shared_ptr@UTerritoryType@Data@Core@@@boost@@@std@@@std@@@std@@@std@@@std@@X@?$_Vector_alloc@U?$_Vec_base_types@V?$_List_unchecked_iterator@V?$_List_val@U?$_List_simple_types@U?$pair@$$CBGV?$shared_ptr@UTerritoryType@Data@Core@@@boost@@@std@@@std@@@std@@@std@@V?$allocator@V?$_List_unchecked_iterator@V?$_List_val@U?$_List_simple_types@U?$pair@$$CBGV?$shared_ptr@UTerritoryType@Data@Core@@@boost@@@std@@@std@@@std@@@std@@@2@@std@@@std@@QAE@ABV?$allocator@V?$_List_unchecked_iterator@V?$_List_val@U?$_List_simple_types@U?$pair@$$CBGV?$shared_ptr@UTerritoryType@Data@Core@@@boost@@@std@@@std@@@std@@@std@@@1@@Z
	??$?0ABV?$allocator@V?$_List_unchecked_iterator@V?$_List_val@U?$_List_simple_types@U?$pair@$$CBGV?$unordered_map@IV?$shared_ptr@VZone@Core@@@boost@@U?$hash@I@std@@U?$equal_to@I@4@V?$allocator@U?$pair@$$CBIV?$shared_ptr@VZone@Core@@@boost@@@std@@@4@@std@@@std@@@std@@@std@@@std@@@std@@$$V@?$_Compressed_pair@V?$allocator@V?$_List_unchecked_iterator@V?$_List_val@U?$_List_simple_types@U?$pair@$$CBGV?$unordered_map@IV?$shared_ptr@VZone@Core@@@boost@@U?$hash@I@std@@U?$equal_to@I@4@V?$allocator@U?$pair@$$CBIV?$shared_ptr@VZone@Core@@@boost@@@std@@@4@@std@@@std@@@std@@@std@@@std@@@std@@V?$_Vector_val@U?$_Simple_types@V?$_List_unchecked_iterator@V?$_List_val@U?$_List_simple_types@U?$pair@$$CBGV?$unordered_map@IV?$shared_ptr@VZone@Core@@@boost@@U?$hash@I@std@@U?$equal_to@I@4@V?$allocator@U?$pair@$$CBIV?$shared_ptr@VZone@Core@@@boost@@@std@@@4@@std@@@std@@@std@@@std@@@std@@@std@@@2@$00@std@@QAE@U_One_then_variadic_args_t@1@ABV?$allocator@V?$_List_unchecked_iterator@V?$_List_val@U?$_List_simple_types@U?$pair@$$CBGV?$unordered_map@IV?$shared_ptr@VZone@Core@@@boost@@U?$hash@I@std@@U?$equal_to@I@4@V?$allocator@U?$pair@$$CBIV?$shared_ptr@VZone@Core@@@boost@@@std@@@4@@std@@@std@@@std@@@std@@@std@@@1@@Z
	??$?0ABV?$allocator@V?$_List_unchecked_iterator@V?$_List_val@U?$_List_simple_types@U?$pair@$$CBGV?$unordered_map@IV?$shared_ptr@VZone@Core@@@boost@@U?$hash@I@std@@U?$equal_to@I@4@V?$allocator@U?$pair@$$CBIV?$shared_ptr@VZone@Core@@@boost@@@std@@@4@@std@@@std@@@std@@@std@@@std@@@std@@X@?$_Vector_alloc@U?$_Vec_base_types@V?$_List_unchecked_iterator@V?$_List_val@U?$_List_simple_types@U?$pair@$$CBGV?$unordered_map@IV?$shared_ptr@VZone@Core@@@boost@@U?$hash@I@std@@U?$equal_to@I@4@V?$allocator@U?$pair@$$CBIV?$shared_ptr@VZone@Core@@@boost@@@std@@@4@@std@@@std@@@std@@@std@@@std@@V?$allocator@V?$_List_unchecked_iterator@V?$_List_val@U?$_List_simple_types@U?$pair@$$CBGV?$unordered_map@IV?$shared_ptr@VZone@Core@@@boost@@U?$hash@I@std@@U?$equal_to@I@4@V?$allocator@U?$pair@$$CBIV?$shared_ptr@VZone@Core@@@boost@@@std@@@4@@std@@@std@@@std@@@std@@@std@@@2@@std@@@std@@QAE@ABV?$allocator@V?$_List_unchecked_iterator@V?$_List_val@U?$_List_simple_types@U?$pair@$$CBGV?$unordered_map@IV?$shared_ptr@VZone@Core@@@boost@@U?$hash@I@std@@U?$equal_to@I@4@V?$allocator@U?$pair@$$CBIV?$shared_ptr@VZone@Core@@@boost@@@std@@@4@@std@@@std@@@std@@@std@@@std@@@1@@Z
	??$?0ABV?$allocator@V?$_List_unchecked_iterator@V?$_List_val@U?$_List_simple_types@U?$pair@$$CBHV?$shared_ptr@VEventObject@Entity@Core@@@boost@@@std@@@std@@@std@@@std@@@std@@$$V@?$_Compressed_pair@V?$allocator@V?$_List_unchecked_iterator@V?$_List_val@U?$_List_simple_types@U?$pair@$$CBHV?$shared_ptr@VEventObject@Entity@Core@@@boost@@@std@@@std@@@std@@@std@@@std@@V?$_Vector_val@U?$_Simple_types@V?$_List_unchecked_iterator@V?$_List_val@U?$_List_simple_types@U?$pair@$$CBHV?$shared_ptr@VEventObject@Entity@Core@@@boost@@@std@@@std@@@std@@@std@@@std@@@2@$00@std@@QAE@U_One_then_variadic_args_t@1@ABV?$allocator@V?$_List_unchecked_iterator@V?$_List_val@U?$_List_simple_types@U?$pair@$$CBHV?$shared_ptr@VEventObject@Entity@Core@@@boost@@@std@@@std@@@std@@@std@@@1@@Z
	??$?0ABV?$allocator@V?$_List_unchecked_iterator@V?$_List_val@U?$_List_simple_types@U?$pair@$$CBHV?$shared_ptr@VEventObject@Entity@Core@@@boost@@@std@@@std@@@std@@@std@@@std@@X@?$_Vector_alloc@U?$_Vec_base_types@V?$_List_unchecked_iterator@V?$_List_val@U?$_List_simple_types@U?$pair@$$CBHV?$shared_ptr@VEventObject@Entity@Core@@@boost@@@std@@@std@@@std@@@std@@V?$allocator@V?$_List_unchecked_iterator@V?$_List_val@U?$_List_simple_types@U?$pair@$$CBHV?$shared_ptr@VEventObject@Entity@Core@@@boost@@@std@@@std@@@std@@@std@@@2@@std@@@std@@QAE@ABV?$allocator@V?$_List_unchecked_iterator@V?$_List_val@U?$_List_simple_types@U?$pair@$$CBHV?$shared_ptr@VEventObject@Entity@Core@@@boost@@@std@@@std@@@std@@@std@@@1@@Z
	??$?0ABV?$allocator@V?$_List_unchecked_iterator@V?$_List_val@U?$_List_simple_types@U?$pair@$$CBHV?$shared_ptr@VPlayer@Entity@Core@@@boost@@@std@@@std@@@std@@@std@@@std@@$$V@?$_Compressed_pair@V?$allocator@V?$_List_unchecked_iterator@V?$_List_val@U?$_List_simple_types@U?$pair@$$CBHV?$shared_ptr@VPlayer@Entity@Core@@@boost@@@std@@@std@@@std@@@std@@@std@@V?$_Vector_val@U?$_Simple_types@V?$_List_unchecked_iterator@V?$_List_val@U?$_List_simple_types@U?$pair@$$CBHV?$shared_ptr@VPlayer@Entity@Core@@@boost@@@std@@@std@@@std@@@std@@@std@@@2@$00@std@@QAE@U_One_then_variadic_args_t@1@ABV?$allocator@V?$_List_unchecked_iterator@V?$_List_val@U?$_List_simple_types@U?$pair@$$CBHV?$shared_ptr@VPlayer@Entity@Core@@@boost@@@std@@@std@@@std@@@std@@@1@@Z
	??$?0ABV?$allocator@V?$_List_unchecked_iterator@V?$_List_val@U?$_List_simple_types@U?$pair@$$CBHV?$shared_ptr@VPlayer@Entity@Core@@@boost@@@std@@@std@@@std@@@std@@@std@@X@?$_Vector_alloc@U?$_Vec_base_types@V?$_List_unchecked_iterator@V?$_List_val@U?$_List_simple_types@U?$pair@$$CBHV?$shared_ptr@VPlayer@Entity@Core@@@boost@@@std@@@std@@@std@@@std@@V?$allocator@V?$_List_unchecked_iterator@V?$_List_val@U?$_List_simple_types@U?$pair@$$CBHV?$shared_ptr@VPlayer@Entity@Core@@@boost@@@std@@@std@@@std@@@std@@@2@@std@@@std@@QAE@ABV?$allocator@V?$_List_unchecked_iterator@V?$_List_val@U?$_List_simple_types@U?$pair@$$CBHV?$shared_ptr@VPlayer@Entity@Core@@@boost@@@std@@@std@@@std@@@std@@@1@@Z
	??$?0ABV?$allocator@V?$_List_unchecked_iterator@V?$_List_val@U?$_List_simple_types@U?$pair@$$CBHV?$shared_ptr@VZonePosition@Core@@@boost@@@std@@@std@@@std@@@std@@@std@@$$V@?$_Compressed_pair@V?$allocator@V?$_List_unchecked_iterator@V?$_List_val@U?$_List_simple_types@U?$pair@$$CBHV?$shared_ptr@VZonePosition@Core@@@boost@@@std@@@std@@@std@@@std@@@std@@V?$_Vector_val@U?$_Simple_types@V?$_List_unchecked_iterator@V?$_List_val@U?$_List_simple_types@U?$pair@$$CBHV?$shared_ptr@VZonePosition@Core@@@boost@@@std@@@std@@@std@@@std@@@std@@@2@$00@std@@QAE@U_One_then_variadic_args_t@1@ABV?$allocator@V?$_List_unchecked_iterator@V?$_List_val@U?$_List_simple_types@U?$pair@$$CBHV?$shared_ptr@VZonePosition@Core@@@boost@@@std@@@std@@@std@@@std@@@1@@Z
	??$?0ABV?$allocator@V?$_List_unchecked_iterator@V?$_List_val@U?$_List_simple_types@U?$pair@$$CBHV?$shared_ptr@VZonePosition@Core@@@boost@@@std@@@std@@@std@@@std@@@std@@X@?$_Vector_alloc@U?$_Vec_base_types@V?$_List_unchecked_iterator@V?$_List_val@U?$_List_simple_types@U?$pair@$$CBHV?$shared_ptr@VZonePosition@Core@@@boost@@@std@@@std@@@std@@@std@@V?$allocator@V?$_List_unchecked_iterator@V?$_List_val@U?$_List_simple_types@U?$pair@$$CBHV?$shared_ptr@VZonePosition@Core@@@boost@@@std@@@std@@@std@@@std@@@2@@std@@@std@@QAE@ABV?$allocator@V?$_List_unchecked_iterator@V?$_List_val@U?$_List_simple_types@U?$pair@$$CBHV?$shared_ptr@VZonePosition@Core@@@boost@@@std@@@std@@@std@@@std@@@1@@Z
	??$?0ABV?$allocator@V?$_List_unchecked_iterator@V?$_List_val@U?$_List_simple_types@U?$pair@$$CBIE@std@@@std@@@std@@@std@@@std@@$$V@?$_Compressed_pair@V?$allocator@V?$_List_unchecked_iterator@V?$_List_val@U?$_List_simple_types@U?$pair@$$CBIE@std@@@std@@@std@@@std@@@std@@V?$_Vector_val@U?$_Simple_types@V?$_List_unchecked_iterator@V?$_List_val@U?$_List_simple_types@U?$pair@$$CBIE@std@@@std@@@std@@@std@@@std@@@2@$00@std@@QAE@U_One_then_variadic_args_t@1@ABV?$allocator@V?$_List_unchecked_iterator@V?$_List_val@U?$_List_simple_types@U?$pair@$$CBIE@std@@@std@@@std@@@std@@@1@@Z
	??$?0ABV?$allocator@V?$_List_unchecked_iterator@V?$_List_val@U?$_List_simple_types@U?$pair@$$CBIE@std@@@std@@@std@@@std@@@std@@X@?$_Vector_alloc@U?$_Vec_base_types@V?$_List_unchecked_iterator@V?$_List_val@U?$_List_simple_types@U?$pair@$$CBIE@std@@@std@@@std@@@std@@V?$allocator@V?$_List_unchecked_iterator@V?$_List_val@U?$_List_simple_types@U?$pair@$$CBIE@std@@@std@@@std@@@std@@@2@@std@@@std@@QAE@ABV?$allocator@V?$_List_unchecked_iterator@V?$_List_val@U?$_List_simple_types@U?$pair@$$CBIE@std@@@std@@@std@@@std@@@1@@Z
	??$?0ABV?$allocator@V?$_List_unchecked_iterator@V?$_List_val@U?$_List_simple_types@U?$pair@$$CBII@std@@@std@@@std@@@std@@@std@@$$V@?$_Compressed_pair@V?$allocator@V?$_List_unchecked_iterator@V?$_List_val@U?$_List_simple_types@U?$pair@$$CBII@std@@@std@@@std@@@std@@@std@@V?$_Vector_val@U?$_Simple_types@V?$_List_unchecked_iterator@V?$_List_val@U?$_List_simple_types@U?$pair@$$CBII@std@@@std@@@std@@@std@@@std@@@2@$00@std@@QAE@U_One_then_variadic_args_t@1@ABV?$allocator@V?$_List_unchecked_iterator@V?$_List_val@U?$_List_simple_types@U?$pair@$$CBII@std@@@std@@@std@@@std@@@1@@Z
	??$?0ABV?$allocator@V?$_List_unchecked_iterator@V?$_List_val@U?$_List_simple_types@U?$pair@$$CBII@std@@@std@@@std@@@std@@@std@@X@?$_Vector_alloc@U?$_Vec_base_types@V?$_List_unchecked_iterator@V?$_List_val@U?$_List_simple_types@U?$pair@$$CBII@std@@@std@@@std@@@std@@V?$allocator@V?$_List_unchecked_iterator@V?$_List_val@U?$_List_simple_types@U?$pair@$$CBII@std@@@std@@@std@@@std@@@2@@std@@@std@@QAE@ABV?$allocator@V?$_List_unchecked_iterator@V?$_List_val@U?$_List_simple_types@U?$pair@$$CBII@std@@@std@@@std@@@std@@@1@@Z
	??$?0ABV?$allocator@V?$_List_unchecked_iterator@V?$_List_val@U?$_List_simple_types@U?$pair@$$CBIPAVScriptObject@@@std@@@std@@@std@@@std@@@std@@$$V@?$_Compressed_pair@V?$allocator@V?$_List_unchecked_iterator@V?$_List_val@U?$_List_simple_types@U?$pair@$$CBIPAVScriptObject@@@std@@@std@@@std@@@std@@@std@@V?$_Vector_val@U?$_Simple_types@V?$_List_unchecked_iterator@V?$_List_val@U?$_List_simple_types@U?$pair@$$CBIPAVScriptObject@@@std@@@std@@@std@@@std@@@std@@@2@$00@std@@QAE@U_One_then_variadic_args_t@1@ABV?$allocator@V?$_List_unchecked_iterator@V?$_List_val@U?$_List_simple_types@U?$pair@$$CBIPAVScriptObject@@@std@@@std@@@std@@@std@@@1@@Z
	??$?0ABV?$allocator@V?$_List_unchecked_iterator@V?$_List_val@U?$_List_simple_types@U?$pair@$$CBIPAVScriptObject@@@std@@@std@@@std@@@std@@@std@@X@?$_Vector_alloc@U?$_Vec_base_types@V?$_List_unchecked_iterator@V?$_List_val@U?$_List_simple_types@U?$pair@$$CBIPAVScriptObject@@@std@@@std@@@std@@@std@@V?$allocator@V?$_List_unchecked_iterator@V?$_List_val@U?$_List_simple_types@U?$pair@$$CBIPAVScriptObject@@@std@@@std@@@std@@@std@@@2@@std@@@std@@QAE@ABV?$allocator@V?$_List_unchecked_iterator@V?$_List_val@U?$_List_simple_types@U?$pair@$$CBIPAVScriptObject@@@std@@@std@@@std@@@std@@@1@@Z
	??$?0ABV?$allocator@V?$_List_unchecked_iterator@V?$_List_val@U?$_List_simple_types@U?$pair@$$CBIV?$shared_ptr@VEventObject@Entity@Core@@@boost@@@std@@@std@@@std@@@std@@@std@@$$V@?$_Compressed_pair@V?$allocator@V?$_List_unchecked_iterator@V?$_List_val@U?$_List_simple_types@U?$pair@$$CBIV?$shared_ptr@VEventObject@Entity@Core@@@boost@@@std@@@std@@@std@@@std@@@std@@V?$_Vector_val@U?$_Simple_types@V?$_List_unchecked_iterator@V?$_List_val@U?$_List_simple_types@U?$pair@$$CBIV?$shared_ptr@VEventObject@Entity@Core@@@boost@@@std@@@std@@@std@@@std@@@std@@@2@$00@std@@QAE@U_One_then_variadic_args_t@1@ABV?$allocator@V?$_List_unchecked_iterator@V?$_List_val@U?$_List_simple_types@U?$pair@$$CBIV?$shared_ptr@VEventObject@Entity@Core@@@boost@@@std@@@std@@@std@@@std@@@1@@Z
	??$?0ABV?$allocator@V?$_List_unchecked_iterator@V?$_List_val@U?$_List_simple_types@U?$pair@$$CBIV?$shared_ptr@VEventObject@Entity@Core@@@boost@@@std@@@std@@@std@@@std@@@std@@X@?$_Vector_alloc@U?$_Vec_base_types@V?$_List_unchecked_iterator@V?$_List_val@U?$_List_simple_types@U?$pair@$$CBIV?$shared_ptr@VEventObject@Entity@Core@@@boost@@@std@@@std@@@std@@@std@@V?$allocator@V?$_List_unchecked_iterator@V?$_List_val@U?$_List_simple_types@U?$pair@$$CBIV?$shared_ptr@VEventObject@Entity@Core@@@boost@@@std@@@std@@@std@@@std@@@2@@std@@@std@@QAE@ABV?$allocator@V?$_List_unchecked_iterator@V?$_List_val@U?$_List_simple_types@U?$pair@$$CBIV?$shared_ptr@VEventObject@Entity@Core@@@boost@@@std@@@std@@@std@@@std@@@1@@Z
	??$?0ABV?$allocator@V?$_List_unchecked_iterator@V?$_List_val@U?$_List_simple_types@U?$pair@$$CBIV?$shared_ptr@VZone@Core@@@boost@@@std@@@std@@@std@@@std@@@std@@$$V@?$_Compressed_pair@V?$allocator@V?$_List_unchecked_iterator@V?$_List_val@U?$_List_simple_types@U?$pair@$$CBIV?$shared_ptr@VZone@Core@@@boost@@@std@@@std@@@std@@@std@@@std@@V?$_Vector_val@U?$_Simple_types@V?$_List_unchecked_iterator@V?$_List_val@U?$_List_simple_types@U?$pair@$$CBIV?$shared_ptr@VZone@Core@@@boost@@@std@@@std@@@std@@@std@@@std@@@2@$00@std@@QAE@U_One_then_variadic_args_t@1@ABV?$allocator@V?$_List_unchecked_iterator@V?$_List_val@U?$_List_simple_types@U?$pair@$$CBIV?$shared_ptr@VZone@Core@@@boost@@@std@@@std@@@std@@@std@@@1@@Z
	??$?0ABV?$allocator@V?$_List_unchecked_iterator@V?$_List_val@U?$_List_simple_types@U?$pair@$$CBIV?$shared_ptr@VZone@Core@@@boost@@@std@@@std@@@std@@@std@@@std@@X@?$_Vector_alloc@U?$_Vec_base_types@V?$_List_unchecked_iterator@V?$_List_val@U?$_List_simple_types@U?$pair@$$CBIV?$shared_ptr@VZone@Core@@@boost@@@std@@@std@@@std@@@std@@V?$allocator@V?$_List_unchecked_iterator@V?$_List_val@U?$_List_simple_types@U?$pair@$$CBIV?$shared_ptr@VZone@Core@@@boost@@@std@@@std@@@std@@@std@@@2@@std@@@std@@QAE@ABV?$allocator@V?$_List_unchecked_iterator@V?$_List_val@U?$_List_simple_types@U?$pair@$$CBIV?$shared_ptr@VZone@Core@@@boost@@@std@@@std@@@std@@@std@@@1@@Z
	??$?0ABV?$allocator@V?$_List_unchecked_iterator@V?$_List_val@U?$_List_simple_types@U?$pair@$$CBIV?$unordered_map@IPAVScriptObject@@U?$hash@I@std@@U?$equal_to@I@3@V?$allocator@U?$pair@$$CBIPAVScriptObject@@@std@@@3@@std@@@std@@@std@@@std@@@std@@@std@@$$V@?$_Compressed_pair@V?$allocator@V?$_List_unchecked_iterator@V?$_List_val@U?$_List_simple_types@U?$pair@$$CBIV?$unordered_map@IPAVScriptObject@@U?$hash@I@std@@U?$equal_to@I@3@V?$allocator@U?$pair@$$CBIPAVScriptObject@@@std@@@3@@std@@@std@@@std@@@std@@@std@@@std@@V?$_Vector_val@U?$_Simple_types@V?$_List_unchecked_iterator@V?$_List_val@U?$_List_simple_types@U?$pair@$$CBIV?$unordered_map@IPAVScriptObject@@U?$hash@I@std@@U?$equal_to@I@3@V?$allocator@U?$pair@$$CBIPAVScriptObject@@@std@@@3@@std@@@std@@@std@@@std@@@std@@@std@@@2@$00@std@@QAE@U_One_then_variadic_args_t@1@ABV?$allocator@V?$_List_unchecked_iterator@V?$_List_val@U?$_List_simple_types@U?$pair@$$CBIV?$unordered_map@IPAVScriptObject@@U?$hash@I@std@@U?$equal_to@I@3@V?$allocator@U?$pair@$$CBIPAVScriptObject@@@std@@@3@@std@@@std@@@std@@@std@@@std@@@1@@Z
	??$?0ABV?$allocator@V?$_List_unchecked_iterator@V?$_List_val@U?$_List_simple_types@U?$pair@$$CBIV?$unordered_map@IPAVScriptObject@@U?$hash@I@std@@U?$equal_to@I@3@V?$allocator@U?$pair@$$CBIPAVScriptObject@@@std@@@3@@std@@@std@@@std@@@std@@@std@@@std@@X@?$_Vector_alloc@U?$_Vec_base_types@V?$_List_unchecked_iterator@V?$_List_val@U?$_List_simple_types@U?$pair@$$CBIV?$unordered_map@IPAVScriptObject@@U?$hash@I@std@@U?$equal_to@I@3@V?$allocator@U?$pair@$$CBIPAVScriptObject@@@std@@@3@@std@@@std@@@std@@@std@@@std@@V?$allocator@V?$_List_unchecked_iterator@V?$_List_val@U?$_List_simple_types@U?$pair@$$CBIV?$unordered_map@IPAVScriptObject@@U?$hash@I@std@@U?$equal_to@I@3@V?$allocator@U?$pair@$$CBIPAVScriptObject@@@std@@@3@@std@@@std@@@std@@@std@@@std@@@2@@std@@@std@@QAE@ABV?$allocator@V?$_List_unchecked_iterator@V?$_List_val@U?$_List_simple_types@U?$pair@$$CBIV?$unordered_map@IPAVScriptObject@@U?$hash@I@std@@U?$equal_to@I@3@V?$allocator@U?$pair@$$CBIPAVScriptObject@@@std@@@3@@std@@@std@@@std@@@std@@@std@@@1@@Z
	??$?0ABV?$allocator@V?$_List_unchecked_iterator@V?$_List_val@U?$_List_simple_types@U?$pair@$$CBV?$basic_string@DU?$char_traits@D@std@@V?$allocator@D@2@@std@@PAVScriptInfo@Scripting@Core@@@std@@@std@@@std@@@std@@@std@@$$V@?$_Compressed_pair@V?$allocator@V?$_List_unchecked_iterator@V?$_List_val@U?$_List_simple_types@U?$pair@$$CBV?$basic_string@DU?$char_traits@D@std@@V?$allocator@D@2@@std@@PAVScriptInfo@Scripting@Core@@@std@@@std@@@std@@@std@@@std@@V?$_Vector_val@U?$_Simple_types@V?$_List_unchecked_iterator@V?$_List_val@U?$_List_simple_types@U?$pair@$$CBV?$basic_string@DU?$char_traits@D@std@@V?$allocator@D@2@@std@@PAVScriptInfo@Scripting@Core@@@std@@@std@@@std@@@std@@@std@@@2@$00@std@@QAE@U_One_then_variadic_args_t@1@ABV?$allocator@V?$_List_unchecked_iterator@V?$_List_val@U?$_List_simple_types@U?$pair@$$CBV?$basic_string@DU?$char_traits@D@std@@V?$allocator@D@2@@std@@PAVScriptInfo@Scripting@Core@@@std@@@std@@@std@@@std@@@1@@Z
	??$?0ABV?$allocator@V?$_List_unchecked_iterator@V?$_List_val@U?$_List_simple_types@U?$pair@$$CBV?$basic_string@DU?$char_traits@D@std@@V?$allocator@D@2@@std@@PAVScriptInfo@Scripting@Core@@@std@@@std@@@std@@@std@@@std@@X@?$_Vector_alloc@U?$_Vec_base_types@V?$_List_unchecked_iterator@V?$_List_val@U?$_List_simple_types@U?$pair@$$CBV?$basic_string@DU?$char_traits@D@std@@V?$allocator@D@2@@std@@PAVScriptInfo@Scripting@Core@@@std@@@std@@@std@@@std@@V?$allocator@V?$_List_unchecked_iterator@V?$_List_val@U?$_List_simple_types@U?$pair@$$CBV?$basic_string@DU?$char_traits@D@std@@V?$allocator@D@2@@std@@PAVScriptInfo@Scripting@Core@@@std@@@std@@@std@@@std@@@2@@std@@@std@@QAE@ABV?$allocator@V?$_List_unchecked_iterator@V?$_List_val@U?$_List_simple_types@U?$pair@$$CBV?$basic_string@DU?$char_traits@D@std@@V?$allocator@D@2@@std@@PAVScriptInfo@Scripting@Core@@@std@@@std@@@std@@@std@@@1@@Z
	??$?0ABV?$allocator@V?$basic_string@DU?$char_traits@D@std@@V?$allocator@D@2@@std@@@std@@$$V@?$_Compressed_pair@V?$allocator@V?$basic_string@DU?$char_traits@D@std@@V?$allocator@D@2@@std@@@std@@V?$_Vector_val@U?$_Simple_types@V?$basic_string@DU?$char_traits@D@std@@V?$allocator@D@2@@std@@@std@@@2@$00@std@@QAE@U_One_then_variadic_args_t@1@ABV?$allocator@V?$basic_string@DU?$char_traits@D@std@@V?$allocator@D@2@@std@@@1@@Z
	??$?0ABV?$allocator@V?$basic_string@DU?$char_traits@D@std@@V?$allocator@D@2@@std@@@std@@X@?$_Vector_alloc@U?$_Vec_base_types@V?$basic_string@DU?$char_traits@D@std@@V?$allocator@D@2@@std@@V?$allocator@V?$basic_string@DU?$char_traits@D@std@@V?$allocator@D@2@@std@@@2@@std@@@std@@QAE@ABV?$allocator@V?$basic_string@DU?$char_traits@D@std@@V?$allocator@D@2@@std@@@1@@Z
	??$?0ABV?$allocator@_K@std@@$$V@?$_Compressed_pair@V?$allocator@_K@std@@V?$_Vector_val@U?$_Simple_types@_K@std@@@2@$00@std@@QAE@U_One_then_variadic_args_t@1@ABV?$allocator@_K@1@@Z
	??$?0ABV?$allocator@_K@std@@X@?$_Vector_alloc@U?$_Vec_base_types@_KV?$allocator@_K@std@@@std@@@std@@QAE@ABV?$allocator@_K@1@@Z
	??$?0ABV?$basic_string@DU?$char_traits@D@std@@V?$allocator@D@2@@std@@$$Z$$V@?$pair@$$CBV?$basic_string@DU?$char_traits@D@std@@V?$allocator@D@2@@std@@V?$shared_ptr@VEventObject@Entity@Core@@@boost@@@std@@QAE@Upiecewise_construct_t@1@V?$tuple@ABV?$basic_string@DU?$char_traits@D@std@@V?$allocator@D@2@@std@@@1@V?$tuple@$$V@1@@Z
	??$?0ABV?$basic_string@DU?$char_traits@D@std@@V?$allocator@D@2@@std@@$$Z$$V@?$pair@$$CBV?$basic_string@DU?$char_traits@D@std@@V?$allocator@D@2@@std@@V?$shared_ptr@VLinkshell@Core@@@boost@@@std@@QAE@Upiecewise_construct_t@1@V?$tuple@ABV?$basic_string@DU?$char_traits@D@std@@V?$allocator@D@2@@std@@@1@V?$tuple@$$V@1@@Z
	??$?0ABV?$basic_string@DU?$char_traits@D@std@@V?$allocator@D@2@@std@@$$Z$$V@?$pair@$$CBV?$basic_string@DU?$char_traits@D@std@@V?$allocator@D@2@@std@@_J@std@@QAE@Upiecewise_construct_t@1@V?$tuple@ABV?$basic_string@DU?$char_traits@D@std@@V?$allocator@D@2@@std@@@1@V?$tuple@$$V@1@@Z
	??$?0ABV?$basic_string@DU?$char_traits@D@std@@V?$allocator@D@2@@std@@$0A@@?$tuple@ABV?$basic_string@DU?$char_traits@D@std@@V?$allocator@D@2@@std@@@std@@QAE@ABV?$basic_string@DU?$char_traits@D@std@@V?$allocator@D@2@@1@@Z
	??$?0ABV?$basic_string@DU?$char_traits@D@std@@V?$allocator@D@2@@std@@@?$_Tuple_val@ABV?$basic_string@DU?$char_traits@D@std@@V?$allocator@D@2@@std@@@std@@QAE@ABV?$basic_string@DU?$char_traits@D@std@@V?$allocator@D@2@@1@@Z
	??$?0ABV?$basic_string@DU?$char_traits@D@std@@V?$allocator@D@2@@std@@VWatcher@Watchdog@@X$0A@@?$pair@V?$basic_string@DU?$char_traits@D@std@@V?$allocator@D@2@@std@@VWatcher@Watchdog@@@std@@QAE@ABV?$basic_string@DU?$char_traits@D@std@@V?$allocator@D@2@@1@$$QAVWatcher@Watchdog@@@Z
	??$?0AB_K$$Z$$V@?$pair@$$CB_KV?$shared_ptr@VLinkshell@Core@@@boost@@@std@@QAE@Upiecewise_construct_t@1@V?$tuple@AB_K@1@V?$tuple@$$V@1@@Z
	??$?0AB_K$0A@@?$tuple@AB_K@std@@QAE@AB_K@Z
	??$?0AB_K@?$_Tuple_val@AB_K@std@@QAE@AB_K@Z
	??$?0D@?$allocator@PAD@std@@QAE@ABV?$allocator@D@1@@Z
	??$?0D@?$allocator@U_Container_proxy@std@@@std@@QAE@ABV?$allocator@D@1@@Z
	??$?0E$$V$0A@@?$tuple@$$QAE@std@@QAE@$$QAE@Z
	??$?0E@?$_Tuple_val@$$QAE@std@@QAE@$$QAE@Z
	??$?0E@?$allocator@PAE@std@@QAE@ABV?$allocator@E@1@@Z
	??$?0E@?$allocator@U_Container_proxy@std@@@std@@QAE@ABV?$allocator@E@1@@Z
	??$?0EIX@?$pair@EI@std@@QAE@XZ
	??$?0G$$V$0A@@?$tuple@$$QAG@std@@QAE@$$QAG@Z
	??$?0G@?$_Tuple_val@$$QAG@std@@QAE@$$QAG@Z
	??$?0G@?$allocator@U_Container_proxy@std@@@std@@QAE@ABV?$allocator@G@1@@Z
	??$?0H$$V$0A@@?$tuple@$$QAH@std@@QAE@$$QAH@Z
	??$?0H@?$_Tuple_val@$$QAH@std@@QAE@$$QAH@Z
	??$?0HHX$0A@@?$pair@GC@std@@QAE@$$QAU?$pair@HH@1@@Z
	??$?0HHX$0A@@?$pair@HH@std@@QAE@$$QAH0@Z
	??$?0HX@?$duration@_JU?$ratio@$00$0DOI@@std@@@chrono@std@@QAE@ABH@Z
	??$?0I$$V$0A@@?$tuple@$$QAI@std@@QAE@$$QAI@Z
	??$?0I@?$_Tuple_val@$$QAI@std@@QAE@$$QAI@Z
	??$?0I@?$allocator@U_Container_proxy@std@@@std@@QAE@ABV?$allocator@I@1@@Z
	??$?0P8Hive@Network@Core@@AEXXZPAV012@@?$_Compressed_pair@P8Hive@Network@Core@@AEXXZV?$tuple@PAVHive@Network@Core@@@std@@$0A@@std@@QAE@U_One_then_variadic_args_t@1@$$QAP8Hive@Network@Core@@AEXXZ$$QAPAV345@@Z
	??$?0PADX@?$basic_string@DU?$char_traits@D@std@@V?$allocator@D@2@@std@@QAE@PAD0ABV?$allocator@D@1@@Z
	??$?0PAUAction@Data@Core@@V?$sp_ms_deleter@UAction@Data@Core@@@detail@boost@@@shared_count@detail@boost@@QAE@PAUAction@Data@Core@@U?$sp_inplace_tag@V?$sp_ms_deleter@UAction@Data@Core@@@detail@boost@@@12@@Z
	??$?0PAUAetheryte@Data@Core@@V?$sp_ms_deleter@UAetheryte@Data@Core@@@detail@boost@@@shared_count@detail@boost@@QAE@PAUAetheryte@Data@Core@@U?$sp_inplace_tag@V?$sp_ms_deleter@UAetheryte@Data@Core@@@detail@boost@@@12@@Z
	??$?0PAUClassJob@Data@Core@@V?$sp_ms_deleter@UClassJob@Data@Core@@@detail@boost@@@shared_count@detail@boost@@QAE@PAUClassJob@Data@Core@@U?$sp_inplace_tag@V?$sp_ms_deleter@UClassJob@Data@Core@@@detail@boost@@@12@@Z
	??$?0PAUContentFinderCondition@Data@Core@@V?$sp_ms_deleter@UContentFinderCondition@Data@Core@@@detail@boost@@@shared_count@detail@boost@@QAE@PAUContentFinderCondition@Data@Core@@U?$sp_inplace_tag@V?$sp_ms_deleter@UContentFinderCondition@Data@Core@@@detail@boost@@@12@@Z
	??$?0PAUCustomTalk@Data@Core@@V?$sp_ms_deleter@UCustomTalk@Data@Core@@@detail@boost@@@shared_count@detail@boost@@QAE@PAUCustomTalk@Data@Core@@U?$sp_inplace_tag@V?$sp_ms_deleter@UCustomTalk@Data@Core@@@detail@boost@@@12@@Z
	??$?0PAUEObj@Data@Core@@V?$sp_ms_deleter@UEObj@Data@Core@@@detail@boost@@@shared_count@detail@boost@@QAE@PAUEObj@Data@Core@@U?$sp_inplace_tag@V?$sp_ms_deleter@UEObj@Data@Core@@@detail@boost@@@12@@Z
	??$?0PAUEventAction@Data@Core@@V?$sp_ms_deleter@UEventAction@Data@Core@@@detail@boost@@@shared_count@detail@boost@@QAE@PAUEventAction@Data@Core@@U?$sp_inplace_tag@V?$sp_ms_deleter@UEventAction@Data@Core@@@detail@boost@@@12@@Z
	??$?0PAUEventItem@Data@Core@@V?$sp_ms_deleter@UEventItem@Data@Core@@@detail@boost@@@shared_count@detail@boost@@QAE@PAUEventItem@Data@Core@@U?$sp_inplace_tag@V?$sp_ms_deleter@UEventItem@Data@Core@@@detail@boost@@@12@@Z
	??$?0PAUInstanceContent@Data@Core@@V?$sp_ms_deleter@UInstanceContent@Data@Core@@@detail@boost@@@shared_count@detail@boost@@QAE@PAUInstanceContent@Data@Core@@U?$sp_inplace_tag@V?$sp_ms_deleter@UInstanceContent@Data@Core@@@detail@boost@@@12@@Z
	??$?0PAUItem@Data@Core@@V?$sp_ms_deleter@UItem@Data@Core@@@detail@boost@@@shared_count@detail@boost@@QAE@PAUItem@Data@Core@@U?$sp_inplace_tag@V?$sp_ms_deleter@UItem@Data@Core@@@detail@boost@@@12@@Z
	??$?0PAULevel@Data@Core@@V?$sp_ms_deleter@ULevel@Data@Core@@@detail@boost@@@shared_count@detail@boost@@QAE@PAULevel@Data@Core@@U?$sp_inplace_tag@V?$sp_ms_deleter@ULevel@Data@Core@@@detail@boost@@@12@@Z
	??$?0PAUMap@Data@Core@@V?$sp_ms_deleter@UMap@Data@Core@@@detail@boost@@@shared_count@detail@boost@@QAE@PAUMap@Data@Core@@U?$sp_inplace_tag@V?$sp_ms_deleter@UMap@Data@Core@@@detail@boost@@@12@@Z
	??$?0PAUOnlineStatus@Data@Core@@V?$sp_ms_deleter@UOnlineStatus@Data@Core@@@detail@boost@@@shared_count@detail@boost@@QAE@PAUOnlineStatus@Data@Core@@U?$sp_inplace_tag@V?$sp_ms_deleter@UOnlineStatus@Data@Core@@@detail@boost@@@12@@Z
	??$?0PAUOpening@Data@Core@@V?$sp_ms_deleter@UOpening@Data@Core@@@detail@boost@@@shared_count@detail@boost@@QAE@PAUOpening@Data@Core@@U?$sp_inplace_tag@V?$sp_ms_deleter@UOpening@Data@Core@@@detail@boost@@@12@@Z
	??$?0PAUParamGrow@Data@Core@@V?$sp_ms_deleter@UParamGrow@Data@Core@@@detail@boost@@@shared_count@detail@boost@@QAE@PAUParamGrow@Data@Core@@U?$sp_inplace_tag@V?$sp_ms_deleter@UParamGrow@Data@Core@@@detail@boost@@@12@@Z
	??$?0PAUPlaceName@Data@Core@@V?$sp_ms_deleter@UPlaceName@Data@Core@@@detail@boost@@@shared_count@detail@boost@@QAE@PAUPlaceName@Data@Core@@U?$sp_inplace_tag@V?$sp_ms_deleter@UPlaceName@Data@Core@@@detail@boost@@@12@@Z
	??$?0PAUQuest@Data@Core@@V?$sp_ms_deleter@UQuest@Data@Core@@@detail@boost@@@shared_count@detail@boost@@QAE@PAUQuest@Data@Core@@U?$sp_inplace_tag@V?$sp_ms_deleter@UQuest@Data@Core@@@detail@boost@@@12@@Z
	??$?0PAUQueuedZoning@Entity@Core@@V?$sp_ms_deleter@UQueuedZoning@Entity@Core@@@detail@boost@@@shared_count@detail@boost@@QAE@PAUQueuedZoning@Entity@Core@@U?$sp_inplace_tag@V?$sp_ms_deleter@UQueuedZoning@Entity@Core@@@detail@boost@@@12@@Z
	??$?0PAUStatus@Data@Core@@V?$sp_ms_deleter@UStatus@Data@Core@@@detail@boost@@@shared_count@detail@boost@@QAE@PAUStatus@Data@Core@@U?$sp_inplace_tag@V?$sp_ms_deleter@UStatus@Data@Core@@@detail@boost@@@12@@Z
	??$?0PAUTerritoryType@Data@Core@@V?$sp_ms_deleter@UTerritoryType@Data@Core@@@detail@boost@@@shared_count@detail@boost@@QAE@PAUTerritoryType@Data@Core@@U?$sp_inplace_tag@V?$sp_ms_deleter@UTerritoryType@Data@Core@@@detail@boost@@@12@@Z
	??$?0PAUTribe@Data@Core@@V?$sp_ms_deleter@UTribe@Data@Core@@@detail@boost@@@shared_count@detail@boost@@QAE@PAUTribe@Data@Core@@U?$sp_inplace_tag@V?$sp_ms_deleter@UTribe@Data@Core@@@detail@boost@@@12@@Z
	??$?0PAV?$DbWorkerPool@VCharaDbConnection@Db@Core@@@Db@Core@@V?$sp_ms_deleter@V?$DbWorkerPool@VCharaDbConnection@Db@Core@@@Db@Core@@@detail@boost@@@shared_count@detail@boost@@QAE@PAV?$DbWorkerPool@VCharaDbConnection@Db@Core@@@Db@Core@@U?$sp_inplace_tag@V?$sp_ms_deleter@V?$DbWorkerPool@VCharaDbConnection@Db@Core@@@Db@Core@@@detail@boost@@@12@@Z
	??$?0PAV?$basic_altstringbuf@DU?$char_traits@D@std@@V?$allocator@D@2@@io@boost@@VNo_Op@?$basic_oaltstringstream@DU?$char_traits@D@std@@V?$allocator@D@2@@12@@shared_count@detail@boost@@QAE@PAV?$basic_altstringbuf@DU?$char_traits@D@std@@V?$allocator@D@2@@io@2@VNo_Op@?$basic_oaltstringstream@DU?$char_traits@D@std@@V?$allocator@D@2@@42@@Z
	??$?0PAV?$tuple@V?$_Binder@U_Unforced@std@@P8Hive@Network@Core@@AEXXZPAV345@@std@@@std@@@?$_Unique_ptr_base@V?$tuple@V?$_Binder@U_Unforced@std@@P8Hive@Network@Core@@AEXXZPAV345@@std@@@std@@U?$default_delete@V?$tuple@V?$_Binder@U_Unforced@std@@P8Hive@Network@Core@@AEXXZPAV345@@std@@@std@@@2@@std@@QAE@PAV?$tuple@V?$_Binder@U_Unforced@std@@P8Hive@Network@Core@@AEXXZPAV345@@std@@@1@@Z
	??$?0PAV?$tuple@V?$_Binder@U_Unforced@std@@P8Hive@Network@Core@@AEXXZPAV345@@std@@@std@@U?$default_delete@V?$tuple@V?$_Binder@U_Unforced@std@@P8Hive@Network@Core@@AEXXZPAV345@@std@@@std@@@1@@?$_Unique_ptr_base@V?$tuple@V?$_Binder@U_Unforced@std@@P8Hive@Network@Core@@AEXXZPAV345@@std@@@std@@U?$default_delete@V?$tuple@V?$_Binder@U_Unforced@std@@P8Hive@Network@Core@@AEXXZPAV345@@std@@@std@@@2@@std@@QAE@PAV?$tuple@V?$_Binder@U_Unforced@std@@P8Hive@Network@Core@@AEXXZPAV345@@std@@@1@$$QAU?$default_delete@V?$tuple@V?$_Binder@U_Unforced@std@@P8Hive@Network@Core@@AEXXZPAV345@@std@@@std@@@1@@Z
	??$?0PAVActionCast@Action@Core@@V?$sp_ms_deleter@VActionCast@Action@Core@@@detail@boost@@@shared_count@detail@boost@@QAE@PAVActionCast@Action@Core@@U?$sp_inplace_tag@V?$sp_ms_deleter@VActionCast@Action@Core@@@detail@boost@@@12@@Z
	??$?0PAVActionMount@Action@Core@@V?$sp_ms_deleter@VActionMount@Action@Core@@@detail@boost@@@shared_count@detail@boost@@QAE@PAVActionMount@Action@Core@@U?$sp_inplace_tag@V?$sp_ms_deleter@VActionMount@Action@Core@@@detail@boost@@@12@@Z
	??$?0PAVActionTeleport@Action@Core@@V?$sp_ms_deleter@VActionTeleport@Action@Core@@@detail@boost@@@shared_count@detail@boost@@QAE@PAVActionTeleport@Action@Core@@U?$sp_inplace_tag@V?$sp_ms_deleter@VActionTeleport@Action@Core@@@detail@boost@@@12@@Z
	??$?0PAVDebugCommand@Core@@V?$sp_ms_deleter@VDebugCommand@Core@@@detail@boost@@@shared_count@detail@boost@@QAE@PAVDebugCommand@Core@@U?$sp_inplace_tag@V?$sp_ms_deleter@VDebugCommand@Core@@@detail@boost@@@12@@Z
	??$?0PAVDebugCommandHandler@Core@@V?$sp_ms_deleter@VDebugCommandHandler@Core@@@detail@boost@@@shared_count@detail@boost@@QAE@PAVDebugCommandHandler@Core@@U?$sp_inplace_tag@V?$sp_ms_deleter@VDebugCommandHandler@Core@@@detail@boost@@@12@@Z
	??$?0PAVEventAction@Action@Core@@V?$sp_ms_deleter@VEventAction@Action@Core@@@detail@boost@@@shared_count@detail@boost@@QAE@PAVEventAction@Action@Core@@U?$sp_inplace_tag@V?$sp_ms_deleter@VEventAction@Action@Core@@@detail@boost@@@12@@Z
	??$?0PAVEventHandler@Event@Core@@V?$sp_ms_deleter@VEventHandler@Event@Core@@@detail@boost@@@shared_count@detail@boost@@QAE@PAVEventHandler@Event@Core@@U?$sp_inplace_tag@V?$sp_ms_deleter@VEventHandler@Event@Core@@@detail@boost@@@12@@Z
	??$?0PAVEventItemAction@Action@Core@@V?$sp_ms_deleter@VEventItemAction@Action@Core@@@detail@boost@@@shared_count@detail@boost@@QAE@PAVEventItemAction@Action@Core@@U?$sp_inplace_tag@V?$sp_ms_deleter@VEventItemAction@Action@Core@@@detail@boost@@@12@@Z
	??$?0PAVEventObject@Entity@Core@@V?$sp_ms_deleter@VEventObject@Entity@Core@@@detail@boost@@@shared_count@detail@boost@@QAE@PAVEventObject@Entity@Core@@U?$sp_inplace_tag@V?$sp_ms_deleter@VEventObject@Entity@Core@@@detail@boost@@@12@@Z
	??$?0PAVExdDataGenerated@Data@Core@@V?$sp_ms_deleter@VExdDataGenerated@Data@Core@@@detail@boost@@@shared_count@detail@boost@@QAE@PAVExdDataGenerated@Data@Core@@U?$sp_inplace_tag@V?$sp_ms_deleter@VExdDataGenerated@Data@Core@@@detail@boost@@@12@@Z
	??$?0PAVGamePacket@Packets@Network@Core@@V?$sp_ms_deleter@VGamePacket@Packets@Network@Core@@@detail@boost@@@shared_count@detail@boost@@QAE@PAVGamePacket@Packets@Network@Core@@U?$sp_inplace_tag@V?$sp_ms_deleter@VGamePacket@Packets@Network@Core@@@detail@boost@@@12@@Z
	??$?0PAVHive@Network@Core@@$$V$0A@@?$tuple@PAVHive@Network@Core@@@std@@QAE@$$QAPAVHive@Network@Core@@@Z
	??$?0PAVHive@Network@Core@@@?$_Tuple_val@PAVHive@Network@Core@@@std@@QAE@$$QAPAVHive@Network@Core@@@Z
	??$?0PAVInstanceContent@Core@@V?$sp_ms_deleter@VInstanceContent@Core@@@detail@boost@@@shared_count@detail@boost@@QAE@PAVInstanceContent@Core@@U?$sp_inplace_tag@V?$sp_ms_deleter@VInstanceContent@Core@@@detail@boost@@@12@@Z
	??$?0PAVInventory@Core@@V?$sp_ms_deleter@VInventory@Core@@@detail@boost@@@shared_count@detail@boost@@QAE@PAVInventory@Core@@U?$sp_inplace_tag@V?$sp_ms_deleter@VInventory@Core@@@detail@boost@@@12@@Z
	??$?0PAVItemContainer@Core@@V?$sp_ms_deleter@VItemContainer@Core@@@detail@boost@@@shared_count@detail@boost@@QAE@PAVItemContainer@Core@@U?$sp_inplace_tag@V?$sp_ms_deleter@VItemContainer@Core@@@detail@boost@@@12@@Z
	??$?0PAVLinkshell@Core@@V?$sp_ms_deleter@VLinkshell@Core@@@detail@boost@@@shared_count@detail@boost@@QAE@PAVLinkshell@Core@@U?$sp_inplace_tag@V?$sp_ms_deleter@VLinkshell@Core@@@detail@boost@@@12@@Z
	??$?0PAVLinkshellMgr@Core@@V?$sp_ms_deleter@VLinkshellMgr@Core@@@detail@boost@@@shared_count@detail@boost@@QAE@PAVLinkshellMgr@Core@@U?$sp_inplace_tag@V?$sp_ms_deleter@VLinkshellMgr@Core@@@detail@boost@@@12@@Z
	??$?0PAVLogger@Core@@V?$sp_ms_deleter@VLogger@Core@@@detail@boost@@@shared_count@detail@boost@@QAE@PAVLogger@Core@@U?$sp_inplace_tag@V?$sp_ms_deleter@VLogger@Core@@@detail@boost@@@12@@Z
	??$?0PAVNativeScriptMgr@Scripting@Core@@V?$sp_ms_deleter@VNativeScriptMgr@Scripting@Core@@@detail@boost@@@shared_count@detail@boost@@QAE@PAVNativeScriptMgr@Scripting@Core@@U?$sp_inplace_tag@V?$sp_ms_deleter@VNativeScriptMgr@Scripting@Core@@@detail@boost@@@12@@Z
	??$?0PAVPlayer@Entity@Core@@V?$sp_ms_deleter@VPlayer@Entity@Core@@@detail@boost@@@shared_count@detail@boost@@QAE@PAVPlayer@Entity@Core@@U?$sp_inplace_tag@V?$sp_ms_deleter@VPlayer@Entity@Core@@@detail@boost@@@12@@Z
	??$?0PAVScriptMgr@Scripting@Core@@V?$sp_ms_deleter@VScriptMgr@Scripting@Core@@@detail@boost@@@shared_count@detail@boost@@QAE@PAVScriptMgr@Scripting@Core@@U?$sp_inplace_tag@V?$sp_ms_deleter@VScriptMgr@Scripting@Core@@@detail@boost@@@12@@Z
	??$?0PAVScriptObject@@@?$allocator@U_Container_proxy@std@@@std@@QAE@ABV?$allocator@PAVScriptObject@@@1@@Z
	??$?0PAVServerZone@Core@@V?$sp_ms_deleter@VServerZone@Core@@@detail@boost@@@shared_count@detail@boost@@QAE@PAVServerZone@Core@@U?$sp_inplace_tag@V?$sp_ms_deleter@VServerZone@Core@@@detail@boost@@@12@@Z
	??$?0PAVStatusEffect@0Core@@V?$sp_ms_deleter@VStatusEffect@1Core@@@detail@boost@@@shared_count@detail@boost@@QAE@PAVStatusEffect@3Core@@U?$sp_inplace_tag@V?$sp_ms_deleter@VStatusEffect@1Core@@@detail@boost@@@12@@Z
	??$?0PAVTerritoryMgr@Core@@V?$sp_ms_deleter@VTerritoryMgr@Core@@@detail@boost@@@shared_count@detail@boost@@QAE@PAVTerritoryMgr@Core@@U?$sp_inplace_tag@V?$sp_ms_deleter@VTerritoryMgr@Core@@@detail@boost@@@12@@Z
	??$?0PAVXMLConfig@Core@@V?$sp_ms_deleter@VXMLConfig@Core@@@detail@boost@@@shared_count@detail@boost@@QAE@PAVXMLConfig@Core@@U?$sp_inplace_tag@V?$sp_ms_deleter@VXMLConfig@Core@@@detail@boost@@@12@@Z
	??$?0PAVZone@Core@@V?$sp_ms_deleter@VZone@Core@@@detail@boost@@@shared_count@detail@boost@@QAE@PAVZone@Core@@U?$sp_inplace_tag@V?$sp_ms_deleter@VZone@Core@@@detail@boost@@@12@@Z
	??$?0PAVZonePosition@Core@@V?$sp_ms_deleter@VZonePosition@Core@@@detail@boost@@@shared_count@detail@boost@@QAE@PAVZonePosition@Core@@U?$sp_inplace_tag@V?$sp_ms_deleter@VZonePosition@Core@@@detail@boost@@@12@@Z
	??$?0PAVthread@std@@@?$_Unique_ptr_base@Vthread@std@@U?$default_delete@Vthread@std@@@2@@std@@QAE@PAVthread@1@@Z
	??$?0PBD@?$iterator_range@PBD@boost@@QAE@PBD0@Z
	??$?0PBD@?$iterator_range_base@PBDUbidirectional_traversal_tag@iterators@boost@@@iterator_range_detail@boost@@IAE@PBD0@Z
	??$?0PBD@?$iterator_range_base@PBDUincrementable_traversal_tag@iterators@boost@@@iterator_range_detail@boost@@IAE@PBD0@Z
	??$?0PBD@?$iterator_range_base@PBDUrandom_access_traversal_tag@iterators@boost@@@iterator_range_detail@boost@@IAE@PBD0@Z
	??$?0QAPADX@?$vector@V?$basic_string@DU?$char_traits@D@std@@V?$allocator@D@2@@std@@V?$allocator@V?$basic_string@DU?$char_traits@D@std@@V?$allocator@D@2@@std@@@2@@std@@QAE@PAPAD0ABV?$allocator@V?$basic_string@DU?$char_traits@D@std@@V?$allocator@D@2@@std@@@1@@Z
	??$?0QAPAVScriptObject@@@?$put_holder@DU?$char_traits@D@std@@@detail@io@boost@@QAE@ABQAPAVScriptObject@@@Z
	??$?0QAUHINSTANCE__@@@?$put_holder@DU?$char_traits@D@std@@@detail@io@boost@@QAE@ABQAUHINSTANCE__@@@Z
	??$?0U?$_List_node@U?$pair@$$CBGV?$shared_ptr@UTerritoryType@Data@Core@@@boost@@@std@@PAX@std@@@?$allocator@U_Container_proxy@std@@@std@@QAE@ABV?$allocator@U?$_List_node@U?$pair@$$CBGV?$shared_ptr@UTerritoryType@Data@Core@@@boost@@@std@@PAX@std@@@1@@Z
	??$?0U?$_List_node@U?$pair@$$CBGV?$unordered_map@IV?$shared_ptr@VZone@Core@@@boost@@U?$hash@I@std@@U?$equal_to@I@4@V?$allocator@U?$pair@$$CBIV?$shared_ptr@VZone@Core@@@boost@@@std@@@4@@std@@@std@@PAX@std@@@?$allocator@U_Container_proxy@std@@@std@@QAE@ABV?$allocator@U?$_List_node@U?$pair@$$CBGV?$unordered_map@IV?$shared_ptr@VZone@Core@@@boost@@U?$hash@I@std@@U?$equal_to@I@4@V?$allocator@U?$pair@$$CBIV?$shared_ptr@VZone@Core@@@boost@@@std@@@4@@std@@@std@@PAX@std@@@1@@Z
	??$?0U?$_List_node@U?$pair@$$CBHV?$shared_ptr@VEventObject@Entity@Core@@@boost@@@std@@PAX@std@@@?$allocator@U_Container_proxy@std@@@std@@QAE@ABV?$allocator@U?$_List_node@U?$pair@$$CBHV?$shared_ptr@VEventObject@Entity@Core@@@boost@@@std@@PAX@std@@@1@@Z
	??$?0U?$_List_node@U?$pair@$$CBHV?$shared_ptr@VPlayer@Entity@Core@@@boost@@@std@@PAX@std@@@?$allocator@U_Container_proxy@std@@@std@@QAE@ABV?$allocator@U?$_List_node@U?$pair@$$CBHV?$shared_ptr@VPlayer@Entity@Core@@@boost@@@std@@PAX@std@@@1@@Z
	??$?0U?$_List_node@U?$pair@$$CBHV?$shared_ptr@VZonePosition@Core@@@boost@@@std@@PAX@std@@@?$allocator@U_Container_proxy@std@@@std@@QAE@ABV?$allocator@U?$_List_node@U?$pair@$$CBHV?$shared_ptr@VZonePosition@Core@@@boost@@@std@@PAX@std@@@1@@Z
	??$?0U?$_List_node@U?$pair@$$CBIE@std@@PAX@std@@@?$allocator@U_Container_proxy@std@@@std@@QAE@ABV?$allocator@U?$_List_node@U?$pair@$$CBIE@std@@PAX@std@@@1@@Z
	??$?0U?$_List_node@U?$pair@$$CBII@std@@PAX@std@@@?$allocator@U_Container_proxy@std@@@std@@QAE@ABV?$allocator@U?$_List_node@U?$pair@$$CBII@std@@PAX@std@@@1@@Z
	??$?0U?$_List_node@U?$pair@$$CBIPAVScriptObject@@@std@@PAX@std@@@?$allocator@U_Container_proxy@std@@@std@@QAE@ABV?$allocator@U?$_List_node@U?$pair@$$CBIPAVScriptObject@@@std@@PAX@std@@@1@@Z
	??$?0U?$_List_node@U?$pair@$$CBIV?$shared_ptr@VEventObject@Entity@Core@@@boost@@@std@@PAX@std@@@?$allocator@U_Container_proxy@std@@@std@@QAE@ABV?$allocator@U?$_List_node@U?$pair@$$CBIV?$shared_ptr@VEventObject@Entity@Core@@@boost@@@std@@PAX@std@@@1@@Z
	??$?0U?$_List_node@U?$pair@$$CBIV?$shared_ptr@VZone@Core@@@boost@@@std@@PAX@std@@@?$allocator@U?$pair@$$CBIV?$shared_ptr@VZone@Core@@@boost@@@std@@@std@@QAE@ABV?$allocator@U?$_List_node@U?$pair@$$CBIV?$shared_ptr@VZone@Core@@@boost@@@std@@PAX@std@@@1@@Z
	??$?0U?$_List_node@U?$pair@$$CBIV?$shared_ptr@VZone@Core@@@boost@@@std@@PAX@std@@@?$allocator@U_Container_proxy@std@@@std@@QAE@ABV?$allocator@U?$_List_node@U?$pair@$$CBIV?$shared_ptr@VZone@Core@@@boost@@@std@@PAX@std@@@1@@Z
	??$?0U?$_List_node@U?$pair@$$CBIV?$unordered_map@IPAVScriptObject@@U?$hash@I@std@@U?$equal_to@I@3@V?$allocator@U?$pair@$$CBIPAVScriptObject@@@std@@@3@@std@@@std@@PAX@std@@@?$allocator@U_Container_proxy@std@@@std@@QAE@ABV?$allocator@U?$_List_node@U?$pair@$$CBIV?$unordered_map@IPAVScriptObject@@U?$hash@I@std@@U?$equal_to@I@3@V?$allocator@U?$pair@$$CBIPAVScriptObject@@@std@@@3@@std@@@std@@PAX@std@@@1@@Z
	??$?0U?$_List_node@U?$pair@$$CBV?$basic_string@DU?$char_traits@D@std@@V?$allocator@D@2@@std@@PAVScriptInfo@Scripting@Core@@@std@@PAX@std@@@?$allocator@U_Container_proxy@std@@@std@@QAE@ABV?$allocator@U?$_List_node@U?$pair@$$CBV?$basic_string@DU?$char_traits@D@std@@V?$allocator@D@2@@std@@PAVScriptInfo@Scripting@Core@@@std@@PAX@std@@@1@@Z
	??$?0U?$_Tree_node@IPAX@std@@@?$allocator@U_Container_proxy@std@@@std@@QAE@ABV?$allocator@U?$_Tree_node@IPAX@std@@@1@@Z
	??$?0U?$_Tree_node@PAVScriptInfo@Scripting@Core@@PAX@std@@@?$allocator@U_Container_proxy@std@@@std@@QAE@ABV?$allocator@U?$_Tree_node@PAVScriptInfo@Scripting@Core@@PAX@std@@@1@@Z
	??$?0U?$_Tree_node@U?$pair@$$CBEH@std@@PAX@std@@@?$allocator@U_Container_proxy@std@@@std@@QAE@ABV?$allocator@U?$_Tree_node@U?$pair@$$CBEH@std@@PAX@std@@@1@@Z
	??$?0U?$_Tree_node@U?$pair@$$CBEI@std@@PAX@std@@@?$allocator@U_Container_proxy@std@@@std@@QAE@ABV?$allocator@U?$_Tree_node@U?$pair@$$CBEI@std@@PAX@std@@@1@@Z
	??$?0U?$_Tree_node@U?$pair@$$CBEV?$shared_ptr@VItem@Core@@@boost@@@std@@PAX@std@@@?$allocator@U_Container_proxy@std@@@std@@QAE@ABV?$allocator@U?$_Tree_node@U?$pair@$$CBEV?$shared_ptr@VItem@Core@@@boost@@@std@@PAX@std@@@1@@Z
	??$?0U?$_Tree_node@U?$pair@$$CBEV?$shared_ptr@VStatusEffect@1Core@@@boost@@@std@@PAX@std@@@?$allocator@U_Container_proxy@std@@@std@@QAE@ABV?$allocator@U?$_Tree_node@U?$pair@$$CBEV?$shared_ptr@VStatusEffect@1Core@@@boost@@@std@@PAX@std@@@1@@Z
	??$?0U?$_Tree_node@U?$pair@$$CBGP8GameConnection@Network@Core@@AEXABVGamePacket@Packets@23@AAVPlayer@Entity@3@@Z@std@@PAX@std@@@?$allocator@U_Container_proxy@std@@@std@@QAE@ABV?$allocator@U?$_Tree_node@U?$pair@$$CBGP8GameConnection@Network@Core@@AEXABVGamePacket@Packets@23@AAVPlayer@Entity@3@@Z@std@@PAX@std@@@1@@Z
	??$?0U?$_Tree_node@U?$pair@$$CBGV?$basic_string@DU?$char_traits@D@std@@V?$allocator@D@2@@std@@@std@@PAX@std@@@?$allocator@U_Container_proxy@std@@@std@@QAE@ABV?$allocator@U?$_Tree_node@U?$pair@$$CBGV?$basic_string@DU?$char_traits@D@std@@V?$allocator@D@2@@std@@@std@@PAX@std@@@1@@Z
	??$?0U?$_Tree_node@U?$pair@$$CBGV?$shared_ptr@VItemContainer@Core@@@boost@@@std@@PAX@std@@@?$allocator@U_Container_proxy@std@@@std@@QAE@ABV?$allocator@U?$_Tree_node@U?$pair@$$CBGV?$shared_ptr@VItemContainer@Core@@@boost@@@std@@PAX@std@@@1@@Z
	??$?0U?$_Tree_node@U?$pair@$$CBIE@std@@PAX@std@@@?$allocator@U_Container_proxy@std@@@std@@QAE@ABV?$allocator@U?$_Tree_node@U?$pair@$$CBIE@std@@PAX@std@@@1@@Z
	??$?0U?$_Tree_node@U?$pair@$$CBII@std@@PAX@std@@@?$allocator@U_Container_proxy@std@@@std@@QAE@ABV?$allocator@U?$_Tree_node@U?$pair@$$CBII@std@@PAX@std@@@1@@Z
	??$?0U?$_Tree_node@U?$pair@$$CBIV?$shared_ptr@VEventHandler@Event@Core@@@boost@@@std@@PAX@std@@@?$allocator@U_Container_proxy@std@@@std@@QAE@ABV?$allocator@U?$_Tree_node@U?$pair@$$CBIV?$shared_ptr@VEventHandler@Event@Core@@@boost@@@std@@PAX@std@@@1@@Z
	??$?0U?$_Tree_node@U?$pair@$$CBIV?$shared_ptr@VSession@Core@@@boost@@@std@@PAX@std@@@?$allocator@U_Container_proxy@std@@@std@@QAE@ABV?$allocator@U?$_Tree_node@U?$pair@$$CBIV?$shared_ptr@VSession@Core@@@boost@@@std@@PAX@std@@@1@@Z
	??$?0U?$_Tree_node@U?$pair@$$CBV?$basic_string@DU?$char_traits@D@std@@V?$allocator@D@2@@std@@V?$shared_ptr@VDebugCommand@Core@@@boost@@@std@@PAX@std@@@?$allocator@U_Container_proxy@std@@@std@@QAE@ABV?$allocator@U?$_Tree_node@U?$pair@$$CBV?$basic_string@DU?$char_traits@D@std@@V?$allocator@D@2@@std@@V?$shared_ptr@VDebugCommand@Core@@@boost@@@std@@PAX@std@@@1@@Z
	??$?0U?$_Tree_node@U?$pair@$$CBV?$basic_string@DU?$char_traits@D@std@@V?$allocator@D@2@@std@@V?$shared_ptr@VEventObject@Entity@Core@@@boost@@@std@@PAX@std@@@?$allocator@U_Container_proxy@std@@@std@@QAE@ABV?$allocator@U?$_Tree_node@U?$pair@$$CBV?$basic_string@DU?$char_traits@D@std@@V?$allocator@D@2@@std@@V?$shared_ptr@VEventObject@Entity@Core@@@boost@@@std@@PAX@std@@@1@@Z
	??$?0U?$_Tree_node@U?$pair@$$CBV?$basic_string@DU?$char_traits@D@std@@V?$allocator@D@2@@std@@V?$shared_ptr@VLinkshell@Core@@@boost@@@std@@PAX@std@@@?$allocator@U_Container_proxy@std@@@std@@QAE@ABV?$allocator@U?$_Tree_node@U?$pair@$$CBV?$basic_string@DU?$char_traits@D@std@@V?$allocator@D@2@@std@@V?$shared_ptr@VLinkshell@Core@@@boost@@@std@@PAX@std@@@1@@Z
	??$?0U?$_Tree_node@U?$pair@$$CBV?$basic_string@DU?$char_traits@D@std@@V?$allocator@D@2@@std@@V?$shared_ptr@VSession@Core@@@boost@@@std@@PAX@std@@@?$allocator@U_Container_proxy@std@@@std@@QAE@ABV?$allocator@U?$_Tree_node@U?$pair@$$CBV?$basic_string@DU?$char_traits@D@std@@V?$allocator@D@2@@std@@V?$shared_ptr@VSession@Core@@@boost@@@std@@PAX@std@@@1@@Z
	??$?0U?$_Tree_node@U?$pair@$$CBV?$basic_string@DU?$char_traits@D@std@@V?$allocator@D@2@@std@@VWatcher@Watchdog@@@std@@PAX@std@@@?$allocator@U_Container_proxy@std@@@std@@QAE@ABV?$allocator@U?$_Tree_node@U?$pair@$$CBV?$basic_string@DU?$char_traits@D@std@@V?$allocator@D@2@@std@@VWatcher@Watchdog@@@std@@PAX@std@@@1@@Z
	??$?0U?$_Tree_node@U?$pair@$$CBV?$basic_string@DU?$char_traits@D@std@@V?$allocator@D@2@@std@@_J@std@@PAX@std@@@?$allocator@U_Container_proxy@std@@@std@@QAE@ABV?$allocator@U?$_Tree_node@U?$pair@$$CBV?$basic_string@DU?$char_traits@D@std@@V?$allocator@D@2@@std@@_J@std@@PAX@std@@@1@@Z
	??$?0U?$_Tree_node@U?$pair@$$CBVtype_index@std@@V?$shared_ptr@X@boost@@@std@@PAX@std@@@?$allocator@U_Container_proxy@std@@@std@@QAE@ABV?$allocator@U?$_Tree_node@U?$pair@$$CBVtype_index@std@@V?$shared_ptr@X@boost@@@std@@PAX@std@@@1@@Z
	??$?0U?$_Tree_node@U?$pair@$$CB_KV?$shared_ptr@VLinkshell@Core@@@boost@@@std@@PAX@std@@@?$allocator@U_Container_proxy@std@@@std@@QAE@ABV?$allocator@U?$_Tree_node@U?$pair@$$CB_KV?$shared_ptr@VLinkshell@Core@@@boost@@@std@@PAX@std@@@1@@Z
	??$?0U?$_Tree_node@V?$basic_string@DU?$char_traits@D@std@@V?$allocator@D@2@@std@@PAX@std@@@?$allocator@U_Container_proxy@std@@@std@@QAE@ABV?$allocator@U?$_Tree_node@V?$basic_string@DU?$char_traits@D@std@@V?$allocator@D@2@@std@@PAX@std@@@1@@Z
	??$?0U?$_Tree_node@V?$shared_ptr@VActor@Entity@Core@@@boost@@PAX@std@@@?$allocator@U_Container_proxy@std@@@std@@QAE@ABV?$allocator@U?$_Tree_node@V?$shared_ptr@VActor@Entity@Core@@@boost@@PAX@std@@@1@@Z
	??$?0U?$_Tree_node@V?$shared_ptr@VPlayer@Entity@Core@@@boost@@PAX@std@@@?$allocator@U_Container_proxy@std@@@std@@QAE@ABV?$allocator@U?$_Tree_node@V?$shared_ptr@VPlayer@Entity@Core@@@boost@@PAX@std@@@1@@Z
	??$?0U?$_Tree_node@V?$shared_ptr@VSession@Core@@@boost@@PAX@std@@@?$allocator@U_Container_proxy@std@@@std@@QAE@ABV?$allocator@U?$_Tree_node@V?$shared_ptr@VSession@Core@@@boost@@PAX@std@@@1@@Z
	??$?0U?$_Tree_node@V?$shared_ptr@VZone@Core@@@boost@@PAX@std@@@?$allocator@U_Container_proxy@std@@@std@@QAE@ABV?$allocator@U?$_Tree_node@V?$shared_ptr@VZone@Core@@@boost@@PAX@std@@@1@@Z
	??$?0U?$_Tree_node@_KPAX@std@@@?$allocator@U_Container_proxy@std@@@std@@QAE@ABV?$allocator@U?$_Tree_node@_KPAX@std@@@1@@Z
	??$?0U?$default_delete@V?$tuple@V?$_Binder@U_Unforced@std@@P8Hive@Network@Core@@AEXXZPAV345@@std@@@std@@@std@@AAPAV?$tuple@V?$_Binder@U_Unforced@std@@P8Hive@Network@Core@@AEXXZPAV345@@std@@@1@@?$_Compressed_pair@U?$default_delete@V?$tuple@V?$_Binder@U_Unforced@std@@P8Hive@Network@Core@@AEXXZPAV345@@std@@@std@@@std@@PAV?$tuple@V?$_Binder@U_Unforced@std@@P8Hive@Network@Core@@AEXXZPAV345@@std@@@2@$00@std@@QAE@U_One_then_variadic_args_t@1@$$QAU?$default_delete@V?$tuple@V?$_Binder@U_Unforced@std@@P8Hive@Network@Core@@AEXXZPAV345@@std@@@std@@@1@AAPAV?$tuple@V?$_Binder@U_Unforced@std@@P8Hive@Network@Core@@AEXXZPAV345@@std@@@1@@Z
	??$?0U?$format_item@DU?$char_traits@D@std@@V?$allocator@D@2@@detail@io@boost@@@?$allocator@U_Container_proxy@std@@@std@@QAE@ABV?$allocator@U?$format_item@DU?$char_traits@D@std@@V?$allocator@D@2@@detail@io@boost@@@1@@Z
	??$?0U?$integral_constant@_N$00@std@@@_Unused_parameter@std@@QAE@$$QAU?$integral_constant@_N$00@1@@Z
	??$?0U?$pair@$$CBGV?$shared_ptr@UTerritoryType@Data@Core@@@boost@@@std@@@?$allocator@U?$_List_node@U?$pair@$$CBGV?$shared_ptr@UTerritoryType@Data@Core@@@boost@@@std@@PAX@std@@@std@@QAE@ABV?$allocator@U?$pair@$$CBGV?$shared_ptr@UTerritoryType@Data@Core@@@boost@@@std@@@1@@Z
	??$?0U?$pair@$$CBGV?$shared_ptr@UTerritoryType@Data@Core@@@boost@@@std@@@?$allocator@V?$_List_unchecked_iterator@V?$_List_val@U?$_List_simple_types@U?$pair@$$CBGV?$shared_ptr@UTerritoryType@Data@Core@@@boost@@@std@@@std@@@std@@@std@@@std@@QAE@ABV?$allocator@U?$pair@$$CBGV?$shared_ptr@UTerritoryType@Data@Core@@@boost@@@std@@@1@@Z
	??$?0U?$pair@$$CBGV?$unordered_map@IV?$shared_ptr@VZone@Core@@@boost@@U?$hash@I@std@@U?$equal_to@I@4@V?$allocator@U?$pair@$$CBIV?$shared_ptr@VZone@Core@@@boost@@@std@@@4@@std@@@std@@@?$allocator@U?$_List_node@U?$pair@$$CBGV?$unordered_map@IV?$shared_ptr@VZone@Core@@@boost@@U?$hash@I@std@@U?$equal_to@I@4@V?$allocator@U?$pair@$$CBIV?$shared_ptr@VZone@Core@@@boost@@@std@@@4@@std@@@std@@PAX@std@@@std@@QAE@ABV?$allocator@U?$pair@$$CBGV?$unordered_map@IV?$shared_ptr@VZone@Core@@@boost@@U?$hash@I@std@@U?$equal_to@I@4@V?$allocator@U?$pair@$$CBIV?$shared_ptr@VZone@Core@@@boost@@@std@@@4@@std@@@std@@@1@@Z
	??$?0U?$pair@$$CBGV?$unordered_map@IV?$shared_ptr@VZone@Core@@@boost@@U?$hash@I@std@@U?$equal_to@I@4@V?$allocator@U?$pair@$$CBIV?$shared_ptr@VZone@Core@@@boost@@@std@@@4@@std@@@std@@@?$allocator@V?$_List_unchecked_iterator@V?$_List_val@U?$_List_simple_types@U?$pair@$$CBGV?$unordered_map@IV?$shared_ptr@VZone@Core@@@boost@@U?$hash@I@std@@U?$equal_to@I@4@V?$allocator@U?$pair@$$CBIV?$shared_ptr@VZone@Core@@@boost@@@std@@@4@@std@@@std@@@std@@@std@@@std@@@std@@QAE@ABV?$allocator@U?$pair@$$CBGV?$unordered_map@IV?$shared_ptr@VZone@Core@@@boost@@U?$hash@I@std@@U?$equal_to@I@4@V?$allocator@U?$pair@$$CBIV?$shared_ptr@VZone@Core@@@boost@@@std@@@4@@std@@@std@@@1@@Z
	??$?0U?$pair@$$CBHV?$shared_ptr@VEventObject@Entity@Core@@@boost@@@std@@@?$allocator@U?$_List_node@U?$pair@$$CBHV?$shared_ptr@VEventObject@Entity@Core@@@boost@@@std@@PAX@std@@@std@@QAE@ABV?$allocator@U?$pair@$$CBHV?$shared_ptr@VEventObject@Entity@Core@@@boost@@@std@@@1@@Z
	??$?0U?$pair@$$CBHV?$shared_ptr@VEventObject@Entity@Core@@@boost@@@std@@@?$allocator@V?$_List_unchecked_iterator@V?$_List_val@U?$_List_simple_types@U?$pair@$$CBHV?$shared_ptr@VEventObject@Entity@Core@@@boost@@@std@@@std@@@std@@@std@@@std@@QAE@ABV?$allocator@U?$pair@$$CBHV?$shared_ptr@VEventObject@Entity@Core@@@boost@@@std@@@1@@Z
	??$?0U?$pair@$$CBHV?$shared_ptr@VPlayer@Entity@Core@@@boost@@@std@@@?$allocator@U?$_List_node@U?$pair@$$CBHV?$shared_ptr@VPlayer@Entity@Core@@@boost@@@std@@PAX@std@@@std@@QAE@ABV?$allocator@U?$pair@$$CBHV?$shared_ptr@VPlayer@Entity@Core@@@boost@@@std@@@1@@Z
	??$?0U?$pair@$$CBHV?$shared_ptr@VPlayer@Entity@Core@@@boost@@@std@@@?$allocator@V?$_List_unchecked_iterator@V?$_List_val@U?$_List_simple_types@U?$pair@$$CBHV?$shared_ptr@VPlayer@Entity@Core@@@boost@@@std@@@std@@@std@@@std@@@std@@QAE@ABV?$allocator@U?$pair@$$CBHV?$shared_ptr@VPlayer@Entity@Core@@@boost@@@std@@@1@@Z
	??$?0U?$pair@$$CBHV?$shared_ptr@VZonePosition@Core@@@boost@@@std@@@?$allocator@U?$_List_node@U?$pair@$$CBHV?$shared_ptr@VZonePosition@Core@@@boost@@@std@@PAX@std@@@std@@QAE@ABV?$allocator@U?$pair@$$CBHV?$shared_ptr@VZonePosition@Core@@@boost@@@std@@@1@@Z
	??$?0U?$pair@$$CBHV?$shared_ptr@VZonePosition@Core@@@boost@@@std@@@?$allocator@V?$_List_unchecked_iterator@V?$_List_val@U?$_List_simple_types@U?$pair@$$CBHV?$shared_ptr@VZonePosition@Core@@@boost@@@std@@@std@@@std@@@std@@@std@@QAE@ABV?$allocator@U?$pair@$$CBHV?$shared_ptr@VZonePosition@Core@@@boost@@@std@@@1@@Z
	??$?0U?$pair@$$CBIE@std@@@?$allocator@U?$_List_node@U?$pair@$$CBIE@std@@PAX@std@@@std@@QAE@ABV?$allocator@U?$pair@$$CBIE@std@@@1@@Z
	??$?0U?$pair@$$CBIE@std@@@?$allocator@V?$_List_unchecked_iterator@V?$_List_val@U?$_List_simple_types@U?$pair@$$CBIE@std@@@std@@@std@@@std@@@std@@QAE@ABV?$allocator@U?$pair@$$CBIE@std@@@1@@Z
	??$?0U?$pair@$$CBII@std@@@?$allocator@U?$_List_node@U?$pair@$$CBII@std@@PAX@std@@@std@@QAE@ABV?$allocator@U?$pair@$$CBII@std@@@1@@Z
	??$?0U?$pair@$$CBII@std@@@?$allocator@V?$_List_unchecked_iterator@V?$_List_val@U?$_List_simple_types@U?$pair@$$CBII@std@@@std@@@std@@@std@@@std@@QAE@ABV?$allocator@U?$pair@$$CBII@std@@@1@@Z
	??$?0U?$pair@$$CBIPAVScriptObject@@@std@@@?$allocator@U?$_List_node@U?$pair@$$CBIPAVScriptObject@@@std@@PAX@std@@@std@@QAE@ABV?$allocator@U?$pair@$$CBIPAVScriptObject@@@std@@@1@@Z
	??$?0U?$pair@$$CBIPAVScriptObject@@@std@@@?$allocator@V?$_List_unchecked_iterator@V?$_List_val@U?$_List_simple_types@U?$pair@$$CBIPAVScriptObject@@@std@@@std@@@std@@@std@@@std@@QAE@ABV?$allocator@U?$pair@$$CBIPAVScriptObject@@@std@@@1@@Z
	??$?0U?$pair@$$CBIV?$shared_ptr@VEventObject@Entity@Core@@@boost@@@std@@@?$allocator@U?$_List_node@U?$pair@$$CBIV?$shared_ptr@VEventObject@Entity@Core@@@boost@@@std@@PAX@std@@@std@@QAE@ABV?$allocator@U?$pair@$$CBIV?$shared_ptr@VEventObject@Entity@Core@@@boost@@@std@@@1@@Z
	??$?0U?$pair@$$CBIV?$shared_ptr@VEventObject@Entity@Core@@@boost@@@std@@@?$allocator@V?$_List_unchecked_iterator@V?$_List_val@U?$_List_simple_types@U?$pair@$$CBIV?$shared_ptr@VEventObject@Entity@Core@@@boost@@@std@@@std@@@std@@@std@@@std@@QAE@ABV?$allocator@U?$pair@$$CBIV?$shared_ptr@VEventObject@Entity@Core@@@boost@@@std@@@1@@Z
	??$?0U?$pair@$$CBIV?$shared_ptr@VZone@Core@@@boost@@@std@@@?$allocator@U?$_List_node@U?$pair@$$CBIV?$shared_ptr@VZone@Core@@@boost@@@std@@PAX@std@@@std@@QAE@ABV?$allocator@U?$pair@$$CBIV?$shared_ptr@VZone@Core@@@boost@@@std@@@1@@Z
	??$?0U?$pair@$$CBIV?$shared_ptr@VZone@Core@@@boost@@@std@@@?$allocator@V?$_List_unchecked_iterator@V?$_List_val@U?$_List_simple_types@U?$pair@$$CBIV?$shared_ptr@VZone@Core@@@boost@@@std@@@std@@@std@@@std@@@std@@QAE@ABV?$allocator@U?$pair@$$CBIV?$shared_ptr@VZone@Core@@@boost@@@std@@@1@@Z
	??$?0U?$pair@$$CBIV?$unordered_map@IPAVScriptObject@@U?$hash@I@std@@U?$equal_to@I@3@V?$allocator@U?$pair@$$CBIPAVScriptObject@@@std@@@3@@std@@@std@@@?$allocator@U?$_List_node@U?$pair@$$CBIV?$unordered_map@IPAVScriptObject@@U?$hash@I@std@@U?$equal_to@I@3@V?$allocator@U?$pair@$$CBIPAVScriptObject@@@std@@@3@@std@@@std@@PAX@std@@@std@@QAE@ABV?$allocator@U?$pair@$$CBIV?$unordered_map@IPAVScriptObject@@U?$hash@I@std@@U?$equal_to@I@3@V?$allocator@U?$pair@$$CBIPAVScriptObject@@@std@@@3@@std@@@std@@@1@@Z
	??$?0U?$pair@$$CBIV?$unordered_map@IPAVScriptObject@@U?$hash@I@std@@U?$equal_to@I@3@V?$allocator@U?$pair@$$CBIPAVScriptObject@@@std@@@3@@std@@@std@@@?$allocator@V?$_List_unchecked_iterator@V?$_List_val@U?$_List_simple_types@U?$pair@$$CBIV?$unordered_map@IPAVScriptObject@@U?$hash@I@std@@U?$equal_to@I@3@V?$allocator@U?$pair@$$CBIPAVScriptObject@@@std@@@3@@std@@@std@@@std@@@std@@@std@@@std@@QAE@ABV?$allocator@U?$pair@$$CBIV?$unordered_map@IPAVScriptObject@@U?$hash@I@std@@U?$equal_to@I@3@V?$allocator@U?$pair@$$CBIPAVScriptObject@@@std@@@3@@std@@@std@@@1@@Z
	??$?0U?$pair@$$CBV?$basic_string@DU?$char_traits@D@std@@V?$allocator@D@2@@std@@PAVScriptInfo@Scripting@Core@@@std@@@?$allocator@U?$_List_node@U?$pair@$$CBV?$basic_string@DU?$char_traits@D@std@@V?$allocator@D@2@@std@@PAVScriptInfo@Scripting@Core@@@std@@PAX@std@@@std@@QAE@ABV?$allocator@U?$pair@$$CBV?$basic_string@DU?$char_traits@D@std@@V?$allocator@D@2@@std@@PAVScriptInfo@Scripting@Core@@@std@@@1@@Z
	??$?0U?$pair@$$CBV?$basic_string@DU?$char_traits@D@std@@V?$allocator@D@2@@std@@PAVScriptInfo@Scripting@Core@@@std@@@?$allocator@V?$_List_unchecked_iterator@V?$_List_val@U?$_List_simple_types@U?$pair@$$CBV?$basic_string@DU?$char_traits@D@std@@V?$allocator@D@2@@std@@PAVScriptInfo@Scripting@Core@@@std@@@std@@@std@@@std@@@std@@QAE@ABV?$allocator@U?$pair@$$CBV?$basic_string@DU?$char_traits@D@std@@V?$allocator@D@2@@std@@PAVScriptInfo@Scripting@Core@@@std@@@1@@Z
	??$?0U?$pair@$$CBV?$basic_string@DU?$char_traits@D@std@@V?$allocator@D@2@@std@@V?$basic_ptree@V?$basic_string@DU?$char_traits@D@std@@V?$allocator@D@2@@std@@V12@U?$less@V?$basic_string@DU?$char_traits@D@std@@V?$allocator@D@2@@std@@@2@@property_tree@boost@@@std@@@?$allocator@U?$copy_map_entry@U?$sequenced_index_node@U?$ordered_index_node@Unull_augment_policy@detail@multi_index@boost@@U?$index_node_base@U?$pair@$$CBV?$basic_string@DU?$char_traits@D@std@@V?$allocator@D@2@@std@@V?$basic_ptree@V?$basic_string@DU?$char_traits@D@std@@V?$allocator@D@2@@std@@V12@U?$less@V?$basic_string@DU?$char_traits@D@std@@V?$allocator@D@2@@std@@@2@@property_tree@boost@@@std@@V?$allocator@U?$pair@$$CBV?$basic_string@DU?$char_traits@D@std@@V?$allocator@D@2@@std@@V?$basic_ptree@V?$basic_string@DU?$char_traits@D@std@@V?$allocator@D@2@@std@@V12@U?$less@V?$basic_string@DU?$char_traits@D@std@@V?$allocator@D@2@@std@@@2@@property_tree@boost@@@std@@@2@@234@@detail@multi_index@boost@@@detail@multi_index@boost@@@detail@multi_index@boost@@@std@@QAE@ABV?$allocator@U?$pair@$$CBV?$basic_string@DU?$char_traits@D@std@@V?$allocator@D@2@@std@@V?$basic_ptree@V?$basic_string@DU?$char_traits@D@std@@V?$allocator@D@2@@std@@V12@U?$less@V?$basic_string@DU?$char_traits@D@std@@V?$allocator@D@2@@std@@@2@@property_tree@boost@@@std@@@1@@Z
	??$?0U?$pair@$$CBV?$basic_string@DU?$char_traits@D@std@@V?$allocator@D@2@@std@@V?$basic_ptree@V?$basic_string@DU?$char_traits@D@std@@V?$allocator@D@2@@std@@V12@U?$less@V?$basic_string@DU?$char_traits@D@std@@V?$allocator@D@2@@std@@@2@@property_tree@boost@@@std@@@?$allocator@U?$sequenced_index_node@U?$ordered_index_node@Unull_augment_policy@detail@multi_index@boost@@U?$index_node_base@U?$pair@$$CBV?$basic_string@DU?$char_traits@D@std@@V?$allocator@D@2@@std@@V?$basic_ptree@V?$basic_string@DU?$char_traits@D@std@@V?$allocator@D@2@@std@@V12@U?$less@V?$basic_string@DU?$char_traits@D@std@@V?$allocator@D@2@@std@@@2@@property_tree@boost@@@std@@V?$allocator@U?$pair@$$CBV?$basic_string@DU?$char_traits@D@std@@V?$allocator@D@2@@std@@V?$basic_ptree@V?$basic_string@DU?$char_traits@D@std@@V?$allocator@D@2@@std@@V12@U?$less@V?$basic_string@DU?$char_traits@D@std@@V?$allocator@D@2@@std@@@2@@property_tree@boost@@@std@@@2@@234@@detail@multi_index@boost@@@detail@multi_index@boost@@@std@@QAE@ABV?$allocator@U?$pair@$$CBV?$basic_string@DU?$char_traits@D@std@@V?$allocator@D@2@@std@@V?$basic_ptree@V?$basic_string@DU?$char_traits@D@std@@V?$allocator@D@2@@std@@V12@U?$less@V?$basic_string@DU?$char_traits@D@std@@V?$allocator@D@2@@std@@@2@@property_tree@boost@@@std@@@1@@Z
	??$?0U?$pair@EI@std@@@?$allocator@U_Container_proxy@std@@@std@@QAE@ABV?$allocator@U?$pair@EI@std@@@1@@Z
	??$?0U?$pair@GC@std@@@?$allocator@U_Container_proxy@std@@@std@@QAE@ABV?$allocator@U?$pair@GC@std@@@1@@Z
	??$?0U?$sequenced_index_node@U?$ordered_index_node@Unull_augment_policy@detail@multi_index@boost@@U?$index_node_base@U?$pair@$$CBV?$basic_string@DU?$char_traits@D@std@@V?$allocator@D@2@@std@@V?$basic_ptree@V?$basic_string@DU?$char_traits@D@std@@V?$allocator@D@2@@std@@V12@U?$less@V?$basic_string@DU?$char_traits@D@std@@V?$allocator@D@2@@std@@@2@@property_tree@boost@@@std@@V?$allocator@U?$pair@$$CBV?$basic_string@DU?$char_traits@D@std@@V?$allocator@D@2@@std@@V?$basic_ptree@V?$basic_string@DU?$char_traits@D@std@@V?$allocator@D@2@@std@@V12@U?$less@V?$basic_string@DU?$char_traits@D@std@@V?$allocator@D@2@@std@@@2@@property_tree@boost@@@std@@@2@@234@@detail@multi_index@boost@@@detail@multi_index@boost@@@?$allocator@U?$pair@$$CBV?$basic_string@DU?$char_traits@D@std@@V?$allocator@D@2@@std@@V?$basic_ptree@V?$basic_string@DU?$char_traits@D@std@@V?$allocator@D@2@@std@@V12@U?$less@V?$basic_string@DU?$char_traits@D@std@@V?$allocator@D@2@@std@@@2@@property_tree@boost@@@std@@@std@@QAE@ABV?$allocator@U?$sequenced_index_node@U?$ordered_index_node@Unull_augment_policy@detail@multi_index@boost@@U?$index_node_base@U?$pair@$$CBV?$basic_string@DU?$char_traits@D@std@@V?$allocator@D@2@@std@@V?$basic_ptree@V?$basic_string@DU?$char_traits@D@std@@V?$allocator@D@2@@std@@V12@U?$less@V?$basic_string@DU?$char_traits@D@std@@V?$allocator@D@2@@std@@@2@@property_tree@boost@@@std@@V?$allocator@U?$pair@$$CBV?$basic_string@DU?$char_traits@D@std@@V?$allocator@D@2@@std@@V?$basic_ptree@V?$basic_string@DU?$char_traits@D@std@@V?$allocator@D@2@@std@@V12@U?$less@V?$basic_string@DU?$char_traits@D@std@@V?$allocator@D@2@@std@@@2@@property_tree@boost@@@std@@@2@@234@@detail@multi_index@boost@@@detail@multi_index@boost@@@1@@Z
	??$?0UAction@Data@Core@@@?$shared_ptr@UAction@Data@Core@@@boost@@QAE@ABV01@PAUAction@Data@Core@@@Z
	??$?0UAction@Data@Core@@U?$sp_inplace_tag@V?$sp_ms_deleter@UAction@Data@Core@@@detail@boost@@@detail@boost@@@?$shared_ptr@UAction@Data@Core@@@boost@@QAE@PAUAction@Data@Core@@U?$sp_inplace_tag@V?$sp_ms_deleter@UAction@Data@Core@@@detail@boost@@@detail@1@@Z
	??$?0UAetheryte@Data@Core@@@?$shared_ptr@UAetheryte@Data@Core@@@boost@@QAE@ABV01@PAUAetheryte@Data@Core@@@Z
	??$?0UAetheryte@Data@Core@@U?$sp_inplace_tag@V?$sp_ms_deleter@UAetheryte@Data@Core@@@detail@boost@@@detail@boost@@@?$shared_ptr@UAetheryte@Data@Core@@@boost@@QAE@PAUAetheryte@Data@Core@@U?$sp_inplace_tag@V?$sp_ms_deleter@UAetheryte@Data@Core@@@detail@boost@@@detail@1@@Z
	??$?0UClassJob@Data@Core@@@?$shared_ptr@UClassJob@Data@Core@@@boost@@QAE@ABV01@PAUClassJob@Data@Core@@@Z
	??$?0UClassJob@Data@Core@@U?$sp_inplace_tag@V?$sp_ms_deleter@UClassJob@Data@Core@@@detail@boost@@@detail@boost@@@?$shared_ptr@UClassJob@Data@Core@@@boost@@QAE@PAUClassJob@Data@Core@@U?$sp_inplace_tag@V?$sp_ms_deleter@UClassJob@Data@Core@@@detail@boost@@@detail@1@@Z
	??$?0UContentFinderCondition@Data@Core@@@?$shared_ptr@UContentFinderCondition@Data@Core@@@boost@@QAE@ABV01@PAUContentFinderCondition@Data@Core@@@Z
	??$?0UContentFinderCondition@Data@Core@@U?$sp_inplace_tag@V?$sp_ms_deleter@UContentFinderCondition@Data@Core@@@detail@boost@@@detail@boost@@@?$shared_ptr@UContentFinderCondition@Data@Core@@@boost@@QAE@PAUContentFinderCondition@Data@Core@@U?$sp_inplace_tag@V?$sp_ms_deleter@UContentFinderCondition@Data@Core@@@detail@boost@@@detail@1@@Z
	??$?0UCustomTalk@Data@Core@@@?$shared_ptr@UCustomTalk@Data@Core@@@boost@@QAE@ABV01@PAUCustomTalk@Data@Core@@@Z
	??$?0UCustomTalk@Data@Core@@U?$sp_inplace_tag@V?$sp_ms_deleter@UCustomTalk@Data@Core@@@detail@boost@@@detail@boost@@@?$shared_ptr@UCustomTalk@Data@Core@@@boost@@QAE@PAUCustomTalk@Data@Core@@U?$sp_inplace_tag@V?$sp_ms_deleter@UCustomTalk@Data@Core@@@detail@boost@@@detail@1@@Z
	??$?0UEObj@Data@Core@@@?$shared_ptr@UEObj@Data@Core@@@boost@@QAE@ABV01@PAUEObj@Data@Core@@@Z
	??$?0UEObj@Data@Core@@U?$sp_inplace_tag@V?$sp_ms_deleter@UEObj@Data@Core@@@detail@boost@@@detail@boost@@@?$shared_ptr@UEObj@Data@Core@@@boost@@QAE@PAUEObj@Data@Core@@U?$sp_inplace_tag@V?$sp_ms_deleter@UEObj@Data@Core@@@detail@boost@@@detail@1@@Z
	??$?0UEventAction@Data@Core@@@?$shared_ptr@UEventAction@Data@Core@@@boost@@QAE@ABV01@PAUEventAction@Data@Core@@@Z
	??$?0UEventAction@Data@Core@@U?$sp_inplace_tag@V?$sp_ms_deleter@UEventAction@Data@Core@@@detail@boost@@@detail@boost@@@?$shared_ptr@UEventAction@Data@Core@@@boost@@QAE@PAUEventAction@Data@Core@@U?$sp_inplace_tag@V?$sp_ms_deleter@UEventAction@Data@Core@@@detail@boost@@@detail@1@@Z
	??$?0UEventItem@Data@Core@@@?$shared_ptr@UEventItem@Data@Core@@@boost@@QAE@ABV01@PAUEventItem@Data@Core@@@Z
	??$?0UEventItem@Data@Core@@U?$sp_inplace_tag@V?$sp_ms_deleter@UEventItem@Data@Core@@@detail@boost@@@detail@boost@@@?$shared_ptr@UEventItem@Data@Core@@@boost@@QAE@PAUEventItem@Data@Core@@U?$sp_inplace_tag@V?$sp_ms_deleter@UEventItem@Data@Core@@@detail@boost@@@detail@1@@Z
	??$?0UFFXIVARR_PACKET_RAW@Packets@Network@Core@@@?$allocator@U_Container_proxy@std@@@std@@QAE@ABV?$allocator@UFFXIVARR_PACKET_RAW@Packets@Network@Core@@@1@@Z
	??$?0UInstanceContent@Data@Core@@@?$shared_ptr@UInstanceContent@Data@Core@@@boost@@QAE@ABV01@PAUInstanceContent@Data@Core@@@Z
	??$?0UInstanceContent@Data@Core@@U?$sp_inplace_tag@V?$sp_ms_deleter@UInstanceContent@Data@Core@@@detail@boost@@@detail@boost@@@?$shared_ptr@UInstanceContent@Data@Core@@@boost@@QAE@PAUInstanceContent@Data@Core@@U?$sp_inplace_tag@V?$sp_ms_deleter@UInstanceContent@Data@Core@@@detail@boost@@@detail@1@@Z
	??$?0UItem@Data@Core@@@?$shared_ptr@UItem@Data@Core@@@boost@@QAE@ABV01@PAUItem@Data@Core@@@Z
	??$?0UItem@Data@Core@@U?$sp_inplace_tag@V?$sp_ms_deleter@UItem@Data@Core@@@detail@boost@@@detail@boost@@@?$shared_ptr@UItem@Data@Core@@@boost@@QAE@PAUItem@Data@Core@@U?$sp_inplace_tag@V?$sp_ms_deleter@UItem@Data@Core@@@detail@boost@@@detail@1@@Z
	??$?0ULevel@Data@Core@@@?$shared_ptr@ULevel@Data@Core@@@boost@@QAE@ABV01@PAULevel@Data@Core@@@Z
	??$?0ULevel@Data@Core@@U?$sp_inplace_tag@V?$sp_ms_deleter@ULevel@Data@Core@@@detail@boost@@@detail@boost@@@?$shared_ptr@ULevel@Data@Core@@@boost@@QAE@PAULevel@Data@Core@@U?$sp_inplace_tag@V?$sp_ms_deleter@ULevel@Data@Core@@@detail@boost@@@detail@1@@Z
	??$?0UMap@Data@Core@@@?$shared_ptr@UMap@Data@Core@@@boost@@QAE@ABV01@PAUMap@Data@Core@@@Z
	??$?0UMap@Data@Core@@U?$sp_inplace_tag@V?$sp_ms_deleter@UMap@Data@Core@@@detail@boost@@@detail@boost@@@?$shared_ptr@UMap@Data@Core@@@boost@@QAE@PAUMap@Data@Core@@U?$sp_inplace_tag@V?$sp_ms_deleter@UMap@Data@Core@@@detail@boost@@@detail@1@@Z
	??$?0UOnlineStatus@Data@Core@@@?$shared_ptr@UOnlineStatus@Data@Core@@@boost@@QAE@ABV01@PAUOnlineStatus@Data@Core@@@Z
	??$?0UOnlineStatus@Data@Core@@U?$sp_inplace_tag@V?$sp_ms_deleter@UOnlineStatus@Data@Core@@@detail@boost@@@detail@boost@@@?$shared_ptr@UOnlineStatus@Data@Core@@@boost@@QAE@PAUOnlineStatus@Data@Core@@U?$sp_inplace_tag@V?$sp_ms_deleter@UOnlineStatus@Data@Core@@@detail@boost@@@detail@1@@Z
	??$?0UOpening@Data@Core@@@?$shared_ptr@UOpening@Data@Core@@@boost@@QAE@ABV01@PAUOpening@Data@Core@@@Z
	??$?0UOpening@Data@Core@@U?$sp_inplace_tag@V?$sp_ms_deleter@UOpening@Data@Core@@@detail@boost@@@detail@boost@@@?$shared_ptr@UOpening@Data@Core@@@boost@@QAE@PAUOpening@Data@Core@@U?$sp_inplace_tag@V?$sp_ms_deleter@UOpening@Data@Core@@@detail@boost@@@detail@1@@Z
	??$?0UParamGrow@Data@Core@@@?$shared_ptr@UParamGrow@Data@Core@@@boost@@QAE@ABV01@PAUParamGrow@Data@Core@@@Z
	??$?0UParamGrow@Data@Core@@U?$sp_inplace_tag@V?$sp_ms_deleter@UParamGrow@Data@Core@@@detail@boost@@@detail@boost@@@?$shared_ptr@UParamGrow@Data@Core@@@boost@@QAE@PAUParamGrow@Data@Core@@U?$sp_inplace_tag@V?$sp_ms_deleter@UParamGrow@Data@Core@@@detail@boost@@@detail@1@@Z
	??$?0UPlaceName@Data@Core@@@?$shared_ptr@UPlaceName@Data@Core@@@boost@@QAE@ABV01@PAUPlaceName@Data@Core@@@Z
	??$?0UPlaceName@Data@Core@@U?$sp_inplace_tag@V?$sp_ms_deleter@UPlaceName@Data@Core@@@detail@boost@@@detail@boost@@@?$shared_ptr@UPlaceName@Data@Core@@@boost@@QAE@PAUPlaceName@Data@Core@@U?$sp_inplace_tag@V?$sp_ms_deleter@UPlaceName@Data@Core@@@detail@boost@@@detail@1@@Z
	??$?0UQuest@Data@Core@@@?$shared_ptr@UQuest@Data@Core@@@boost@@QAE@ABV01@PAUQuest@Data@Core@@@Z
	??$?0UQuest@Data@Core@@U?$sp_inplace_tag@V?$sp_ms_deleter@UQuest@Data@Core@@@detail@boost@@@detail@boost@@@?$shared_ptr@UQuest@Data@Core@@@boost@@QAE@PAUQuest@Data@Core@@U?$sp_inplace_tag@V?$sp_ms_deleter@UQuest@Data@Core@@@detail@boost@@@detail@1@@Z
	??$?0UQuestActive@Common@Core@@@?$shared_ptr@UQuestActive@Common@Core@@@boost@@QAE@PAUQuestActive@Common@Core@@@Z
	??$?0UQuestActive@Common@Core@@@shared_count@detail@boost@@QAE@PAUQuestActive@Common@Core@@@Z
	??$?0UQueuedZoning@Entity@Core@@@?$shared_ptr@UQueuedZoning@Entity@Core@@@boost@@QAE@ABV01@PAUQueuedZoning@Entity@Core@@@Z
	??$?0UQueuedZoning@Entity@Core@@U?$sp_inplace_tag@V?$sp_ms_deleter@UQueuedZoning@Entity@Core@@@detail@boost@@@detail@boost@@@?$shared_ptr@UQueuedZoning@Entity@Core@@@boost@@QAE@PAUQueuedZoning@Entity@Core@@U?$sp_inplace_tag@V?$sp_ms_deleter@UQueuedZoning@Entity@Core@@@detail@boost@@@detail@1@@Z
	??$?0UStatus@Data@Core@@@?$shared_ptr@UStatus@Data@Core@@@boost@@QAE@ABV01@PAUStatus@Data@Core@@@Z
	??$?0UStatus@Data@Core@@U?$sp_inplace_tag@V?$sp_ms_deleter@UStatus@Data@Core@@@detail@boost@@@detail@boost@@@?$shared_ptr@UStatus@Data@Core@@@boost@@QAE@PAUStatus@Data@Core@@U?$sp_inplace_tag@V?$sp_ms_deleter@UStatus@Data@Core@@@detail@boost@@@detail@1@@Z
	??$?0UTerritoryType@Data@Core@@@?$shared_ptr@UTerritoryType@Data@Core@@@boost@@QAE@ABV01@PAUTerritoryType@Data@Core@@@Z
	??$?0UTerritoryType@Data@Core@@U?$sp_inplace_tag@V?$sp_ms_deleter@UTerritoryType@Data@Core@@@detail@boost@@@detail@boost@@@?$shared_ptr@UTerritoryType@Data@Core@@@boost@@QAE@PAUTerritoryType@Data@Core@@U?$sp_inplace_tag@V?$sp_ms_deleter@UTerritoryType@Data@Core@@@detail@boost@@@detail@1@@Z
	??$?0UTribe@Data@Core@@@?$shared_ptr@UTribe@Data@Core@@@boost@@QAE@ABV01@PAUTribe@Data@Core@@@Z
	??$?0UTribe@Data@Core@@U?$sp_inplace_tag@V?$sp_ms_deleter@UTribe@Data@Core@@@detail@boost@@@detail@boost@@@?$shared_ptr@UTribe@Data@Core@@@boost@@QAE@PAUTribe@Data@Core@@U?$sp_inplace_tag@V?$sp_ms_deleter@UTribe@Data@Core@@@detail@boost@@@detail@1@@Z
	??$?0U_Exact_args_t@std@@$$CBV?$basic_string@DU?$char_traits@D@std@@V?$allocator@D@2@@1@$$V$0A@@?$tuple@V?$basic_string@DU?$char_traits@D@std@@V?$allocator@D@2@@std@@@std@@QAE@U_Exact_args_t@1@$$QBV?$basic_string@DU?$char_traits@D@std@@V?$allocator@D@2@@1@@Z
	??$?0U_Exact_args_t@std@@$0A@@?$tuple@$$V@std@@QAE@U_Exact_args_t@1@@Z
	??$?0U_Exact_args_t@std@@AAV?$basic_string@DU?$char_traits@D@std@@V?$allocator@D@2@@1@$$V$0A@@?$tuple@V?$basic_string@DU?$char_traits@D@std@@V?$allocator@D@2@@std@@@std@@QAE@U_Exact_args_t@1@AAV?$basic_string@DU?$char_traits@D@std@@V?$allocator@D@2@@1@@Z
	??$?0U_Exact_args_t@std@@AA_K$$CBV?$basic_string@DU?$char_traits@D@std@@V?$allocator@D@2@@1@$0A@@?$tuple@_KV?$basic_string@DU?$char_traits@D@std@@V?$allocator@D@2@@std@@@std@@QAE@U_Exact_args_t@1@AA_K$$QBV?$basic_string@DU?$char_traits@D@std@@V?$allocator@D@2@@1@@Z
	??$?0U_Exact_args_t@std@@ABE$$V$0A@@?$tuple@ABE@std@@QAE@U_Exact_args_t@1@ABE@Z
	??$?0U_Exact_args_t@std@@ABG$$V$0A@@?$tuple@ABG@std@@QAE@U_Exact_args_t@1@ABG@Z
	??$?0U_Exact_args_t@std@@ABH$$V$0A@@?$tuple@ABH@std@@QAE@U_Exact_args_t@1@ABH@Z
	??$?0U_Exact_args_t@std@@ABI$$V$0A@@?$tuple@ABI@std@@QAE@U_Exact_args_t@1@ABI@Z
	??$?0U_Exact_args_t@std@@ABV?$basic_string@DU?$char_traits@D@std@@V?$allocator@D@2@@1@$$V$0A@@?$tuple@ABV?$basic_string@DU?$char_traits@D@std@@V?$allocator@D@2@@std@@@std@@QAE@U_Exact_args_t@1@ABV?$basic_string@DU?$char_traits@D@std@@V?$allocator@D@2@@1@@Z
	??$?0U_Exact_args_t@std@@AB_K$$V$0A@@?$tuple@AB_K@std@@QAE@U_Exact_args_t@1@AB_K@Z
	??$?0U_Exact_args_t@std@@E$$V$0A@@?$tuple@$$QAE@std@@QAE@U_Exact_args_t@1@$$QAE@Z
	??$?0U_Exact_args_t@std@@G$$V$0A@@?$tuple@$$QAG@std@@QAE@U_Exact_args_t@1@$$QAG@Z
	??$?0U_Exact_args_t@std@@H$$V$0A@@?$tuple@$$QAH@std@@QAE@U_Exact_args_t@1@$$QAH@Z
	??$?0U_Exact_args_t@std@@I$$V$0A@@?$tuple@$$QAI@std@@QAE@U_Exact_args_t@1@$$QAI@Z
	??$?0U_Exact_args_t@std@@PAVHive@Network@Core@@$$V$0A@@?$tuple@PAVHive@Network@Core@@@std@@QAE@U_Exact_args_t@1@$$QAPAVHive@Network@Core@@@Z
	??$?0U_Exact_args_t@std@@V?$_Binder@U_Unforced@std@@P8Hive@Network@Core@@AEXXZPAV345@@1@$$V$0A@@?$tuple@V?$_Binder@U_Unforced@std@@P8Hive@Network@Core@@AEXXZPAV345@@std@@@std@@QAE@U_Exact_args_t@1@$$QAV?$_Binder@U_Unforced@std@@P8Hive@Network@Core@@AEXXZPAV345@@1@@Z
	??$?0U_Exact_args_t@std@@V?$basic_string@DU?$char_traits@D@std@@V?$allocator@D@2@@1@$$V$0A@@?$tuple@$$QAV?$basic_string@DU?$char_traits@D@std@@V?$allocator@D@2@@std@@@std@@QAE@U_Exact_args_t@1@$$QAV?$basic_string@DU?$char_traits@D@std@@V?$allocator@D@2@@1@@Z
	??$?0U_Exact_args_t@std@@Vtype_index@1@$$V$0A@@?$tuple@$$QAVtype_index@std@@@std@@QAE@U_Exact_args_t@1@$$QAVtype_index@1@@Z
	??$?0U_Exact_args_t@std@@_KAAV?$basic_string@DU?$char_traits@D@std@@V?$allocator@D@2@@1@$0A@@?$tuple@_KV?$basic_string@DU?$char_traits@D@std@@V?$allocator@D@2@@std@@@std@@QAE@U_Exact_args_t@1@$$QA_KAAV?$basic_string@DU?$char_traits@D@std@@V?$allocator@D@2@@1@@Z
	??$?0Udir_itr_imp@detail@filesystem@boost@@@?$shared_ptr@Udir_itr_imp@detail@filesystem@boost@@@boost@@QAE@PAUdir_itr_imp@detail@filesystem@1@@Z
	??$?0Udir_itr_imp@detail@filesystem@boost@@@shared_count@detail@boost@@QAE@PAUdir_itr_imp@1filesystem@2@@Z
	??$?0V?$DbWorkerPool@VCharaDbConnection@Db@Core@@@Db@Core@@@?$shared_ptr@V?$DbWorkerPool@VCharaDbConnection@Db@Core@@@Db@Core@@@boost@@QAE@ABV01@PAV?$DbWorkerPool@VCharaDbConnection@Db@Core@@@Db@Core@@@Z
	??$?0V?$DbWorkerPool@VCharaDbConnection@Db@Core@@@Db@Core@@@?$shared_ptr@X@boost@@QAE@ABV?$shared_ptr@V?$DbWorkerPool@VCharaDbConnection@Db@Core@@@Db@Core@@@1@Usp_empty@detail@1@@Z
	??$?0V?$DbWorkerPool@VCharaDbConnection@Db@Core@@@Db@Core@@U?$sp_inplace_tag@V?$sp_ms_deleter@V?$DbWorkerPool@VCharaDbConnection@Db@Core@@@Db@Core@@@detail@boost@@@detail@boost@@@?$shared_ptr@V?$DbWorkerPool@VCharaDbConnection@Db@Core@@@Db@Core@@@boost@@QAE@PAV?$DbWorkerPool@VCharaDbConnection@Db@Core@@@Db@Core@@U?$sp_inplace_tag@V?$sp_ms_deleter@V?$DbWorkerPool@VCharaDbConnection@Db@Core@@@Db@Core@@@detail@boost@@@detail@1@@Z
	??$?0V?$_Binder@U_Unforced@std@@P8Hive@Network@Core@@AEXXZPAV345@@std@@$$V$0A@@?$tuple@V?$_Binder@U_Unforced@std@@P8Hive@Network@Core@@AEXXZPAV345@@std@@@std@@QAE@$$QAV?$_Binder@U_Unforced@std@@P8Hive@Network@Core@@AEXXZPAV345@@1@@Z
	??$?0V?$_Binder@U_Unforced@std@@P8Hive@Network@Core@@AEXXZPAV345@@std@@$$VX@thread@std@@QAE@$$QAV?$_Binder@U_Unforced@std@@P8Hive@Network@Core@@AEXXZPAV345@@1@@Z
	??$?0V?$_Binder@U_Unforced@std@@P8Hive@Network@Core@@AEXXZPAV345@@std@@@?$_Tuple_val@V?$_Binder@U_Unforced@std@@P8Hive@Network@Core@@AEXXZPAV345@@std@@@std@@QAE@$$QAV?$_Binder@U_Unforced@std@@P8Hive@Network@Core@@AEXXZPAV345@@1@@Z
	??$?0V?$_Deque_unchecked_iterator@V?$_Deque_val@U?$_Deque_simple_types@D@std@@@std@@@std@@X@?$basic_string@DU?$char_traits@D@std@@V?$allocator@D@2@@std@@QAE@V?$_Deque_unchecked_iterator@V?$_Deque_val@U?$_Deque_simple_types@D@std@@@std@@@1@0ABV?$allocator@D@1@@Z
	??$?0V?$_List_iterator@V?$_List_val@U?$_List_simple_types@U?$pair@$$CBGV?$shared_ptr@UTerritoryType@Data@Core@@@boost@@@std@@@std@@@std@@@std@@_NX$0A@@?$pair@V?$_List_iterator@V?$_List_val@U?$_List_simple_types@U?$pair@$$CBGV?$shared_ptr@UTerritoryType@Data@Core@@@boost@@@std@@@std@@@std@@@std@@_N@std@@QAE@$$QAV?$_List_iterator@V?$_List_val@U?$_List_simple_types@U?$pair@$$CBGV?$shared_ptr@UTerritoryType@Data@Core@@@boost@@@std@@@std@@@std@@@1@$$QA_N@Z
	??$?0V?$_List_iterator@V?$_List_val@U?$_List_simple_types@U?$pair@$$CBGV?$unordered_map@IV?$shared_ptr@VZone@Core@@@boost@@U?$hash@I@std@@U?$equal_to@I@4@V?$allocator@U?$pair@$$CBIV?$shared_ptr@VZone@Core@@@boost@@@std@@@4@@std@@@std@@@std@@@std@@@std@@_NX$0A@@?$pair@V?$_List_iterator@V?$_List_val@U?$_List_simple_types@U?$pair@$$CBGV?$unordered_map@IV?$shared_ptr@VZone@Core@@@boost@@U?$hash@I@std@@U?$equal_to@I@4@V?$allocator@U?$pair@$$CBIV?$shared_ptr@VZone@Core@@@boost@@@std@@@4@@std@@@std@@@std@@@std@@@std@@_N@std@@QAE@$$QAV?$_List_iterator@V?$_List_val@U?$_List_simple_types@U?$pair@$$CBGV?$unordered_map@IV?$shared_ptr@VZone@Core@@@boost@@U?$hash@I@std@@U?$equal_to@I@4@V?$allocator@U?$pair@$$CBIV?$shared_ptr@VZone@Core@@@boost@@@std@@@4@@std@@@std@@@std@@@std@@@1@$$QA_N@Z
	??$?0V?$_List_iterator@V?$_List_val@U?$_List_simple_types@U?$pair@$$CBHV?$shared_ptr@VEventObject@Entity@Core@@@boost@@@std@@@std@@@std@@@std@@_NX$0A@@?$pair@V?$_List_iterator@V?$_List_val@U?$_List_simple_types@U?$pair@$$CBHV?$shared_ptr@VEventObject@Entity@Core@@@boost@@@std@@@std@@@std@@@std@@_N@std@@QAE@$$QAV?$_List_iterator@V?$_List_val@U?$_List_simple_types@U?$pair@$$CBHV?$shared_ptr@VEventObject@Entity@Core@@@boost@@@std@@@std@@@std@@@1@$$QA_N@Z
	??$?0V?$_List_iterator@V?$_List_val@U?$_List_simple_types@U?$pair@$$CBHV?$shared_ptr@VPlayer@Entity@Core@@@boost@@@std@@@std@@@std@@@std@@V01@X$0A@@?$pair@V?$_List_iterator@V?$_List_val@U?$_List_simple_types@U?$pair@$$CBHV?$shared_ptr@VPlayer@Entity@Core@@@boost@@@std@@@std@@@std@@@std@@V12@@std@@QAE@$$QAV?$_List_iterator@V?$_List_val@U?$_List_simple_types@U?$pair@$$CBHV?$shared_ptr@VPlayer@Entity@Core@@@boost@@@std@@@std@@@std@@@1@0@Z
	??$?0V?$_List_iterator@V?$_List_val@U?$_List_simple_types@U?$pair@$$CBHV?$shared_ptr@VPlayer@Entity@Core@@@boost@@@std@@@std@@@std@@@std@@_NX$0A@@?$pair@V?$_List_iterator@V?$_List_val@U?$_List_simple_types@U?$pair@$$CBHV?$shared_ptr@VPlayer@Entity@Core@@@boost@@@std@@@std@@@std@@@std@@_N@std@@QAE@$$QAV?$_List_iterator@V?$_List_val@U?$_List_simple_types@U?$pair@$$CBHV?$shared_ptr@VPlayer@Entity@Core@@@boost@@@std@@@std@@@std@@@1@$$QA_N@Z
	??$?0V?$_List_iterator@V?$_List_val@U?$_List_simple_types@U?$pair@$$CBHV?$shared_ptr@VZonePosition@Core@@@boost@@@std@@@std@@@std@@@std@@_NX$0A@@?$pair@V?$_List_iterator@V?$_List_val@U?$_List_simple_types@U?$pair@$$CBHV?$shared_ptr@VZonePosition@Core@@@boost@@@std@@@std@@@std@@@std@@_N@std@@QAE@$$QAV?$_List_iterator@V?$_List_val@U?$_List_simple_types@U?$pair@$$CBHV?$shared_ptr@VZonePosition@Core@@@boost@@@std@@@std@@@std@@@1@$$QA_N@Z
	??$?0V?$_List_iterator@V?$_List_val@U?$_List_simple_types@U?$pair@$$CBIE@std@@@std@@@std@@@std@@_NX$0A@@?$pair@V?$_List_iterator@V?$_List_val@U?$_List_simple_types@U?$pair@$$CBIE@std@@@std@@@std@@@std@@_N@std@@QAE@$$QAV?$_List_iterator@V?$_List_val@U?$_List_simple_types@U?$pair@$$CBIE@std@@@std@@@std@@@1@$$QA_N@Z
	??$?0V?$_List_iterator@V?$_List_val@U?$_List_simple_types@U?$pair@$$CBII@std@@@std@@@std@@@std@@_NX$0A@@?$pair@V?$_List_iterator@V?$_List_val@U?$_List_simple_types@U?$pair@$$CBII@std@@@std@@@std@@@std@@_N@std@@QAE@$$QAV?$_List_iterator@V?$_List_val@U?$_List_simple_types@U?$pair@$$CBII@std@@@std@@@std@@@1@$$QA_N@Z
	??$?0V?$_List_iterator@V?$_List_val@U?$_List_simple_types@U?$pair@$$CBIPAVScriptObject@@@std@@@std@@@std@@@std@@V01@X$0A@@?$pair@V?$_List_iterator@V?$_List_val@U?$_List_simple_types@U?$pair@$$CBIPAVScriptObject@@@std@@@std@@@std@@@std@@V12@@std@@QAE@$$QAV?$_List_iterator@V?$_List_val@U?$_List_simple_types@U?$pair@$$CBIPAVScriptObject@@@std@@@std@@@std@@@1@0@Z
	??$?0V?$_List_iterator@V?$_List_val@U?$_List_simple_types@U?$pair@$$CBIPAVScriptObject@@@std@@@std@@@std@@@std@@_NX$0A@@?$pair@V?$_List_iterator@V?$_List_val@U?$_List_simple_types@U?$pair@$$CBIPAVScriptObject@@@std@@@std@@@std@@@std@@_N@std@@QAE@$$QAV?$_List_iterator@V?$_List_val@U?$_List_simple_types@U?$pair@$$CBIPAVScriptObject@@@std@@@std@@@std@@@1@$$QA_N@Z
	??$?0V?$_List_iterator@V?$_List_val@U?$_List_simple_types@U?$pair@$$CBIV?$shared_ptr@VEventObject@Entity@Core@@@boost@@@std@@@std@@@std@@@std@@_NX$0A@@?$pair@V?$_List_iterator@V?$_List_val@U?$_List_simple_types@U?$pair@$$CBIV?$shared_ptr@VEventObject@Entity@Core@@@boost@@@std@@@std@@@std@@@std@@_N@std@@QAE@$$QAV?$_List_iterator@V?$_List_val@U?$_List_simple_types@U?$pair@$$CBIV?$shared_ptr@VEventObject@Entity@Core@@@boost@@@std@@@std@@@std@@@1@$$QA_N@Z
	??$?0V?$_List_iterator@V?$_List_val@U?$_List_simple_types@U?$pair@$$CBIV?$shared_ptr@VZone@Core@@@boost@@@std@@@std@@@std@@@std@@V01@X$0A@@?$pair@V?$_List_iterator@V?$_List_val@U?$_List_simple_types@U?$pair@$$CBIV?$shared_ptr@VZone@Core@@@boost@@@std@@@std@@@std@@@std@@V12@@std@@QAE@$$QAV?$_List_iterator@V?$_List_val@U?$_List_simple_types@U?$pair@$$CBIV?$shared_ptr@VZone@Core@@@boost@@@std@@@std@@@std@@@1@0@Z
	??$?0V?$_List_iterator@V?$_List_val@U?$_List_simple_types@U?$pair@$$CBIV?$shared_ptr@VZone@Core@@@boost@@@std@@@std@@@std@@@std@@_NX$0A@@?$pair@V?$_List_iterator@V?$_List_val@U?$_List_simple_types@U?$pair@$$CBIV?$shared_ptr@VZone@Core@@@boost@@@std@@@std@@@std@@@std@@_N@std@@QAE@$$QAV?$_List_iterator@V?$_List_val@U?$_List_simple_types@U?$pair@$$CBIV?$shared_ptr@VZone@Core@@@boost@@@std@@@std@@@std@@@1@$$QA_N@Z
	??$?0V?$_List_iterator@V?$_List_val@U?$_List_simple_types@U?$pair@$$CBIV?$unordered_map@IPAVScriptObject@@U?$hash@I@std@@U?$equal_to@I@3@V?$allocator@U?$pair@$$CBIPAVScriptObject@@@std@@@3@@std@@@std@@@std@@@std@@@std@@_NX$0A@@?$pair@V?$_List_iterator@V?$_List_val@U?$_List_simple_types@U?$pair@$$CBIV?$unordered_map@IPAVScriptObject@@U?$hash@I@std@@U?$equal_to@I@3@V?$allocator@U?$pair@$$CBIPAVScriptObject@@@std@@@3@@std@@@std@@@std@@@std@@@std@@_N@std@@QAE@$$QAV?$_List_iterator@V?$_List_val@U?$_List_simple_types@U?$pair@$$CBIV?$unordered_map@IPAVScriptObject@@U?$hash@I@std@@U?$equal_to@I@3@V?$allocator@U?$pair@$$CBIPAVScriptObject@@@std@@@3@@std@@@std@@@std@@@std@@@1@$$QA_N@Z
	??$?0V?$_List_iterator@V?$_List_val@U?$_List_simple_types@U?$pair@$$CBV?$basic_string@DU?$char_traits@D@std@@V?$allocator@D@2@@std@@PAVScriptInfo@Scripting@Core@@@std@@@std@@@std@@@std@@_NX$0A@@?$pair@V?$_List_iterator@V?$_List_val@U?$_List_simple_types@U?$pair@$$CBV?$basic_string@DU?$char_traits@D@std@@V?$allocator@D@2@@std@@PAVScriptInfo@Scripting@Core@@@std@@@std@@@std@@@std@@_N@std@@QAE@$$QAV?$_List_iterator@V?$_List_val@U?$_List_simple_types@U?$pair@$$CBV?$basic_string@DU?$char_traits@D@std@@V?$allocator@D@2@@std@@PAVScriptInfo@Scripting@Core@@@std@@@std@@@std@@@1@$$QA_N@Z
	??$?0V?$_List_unchecked_iterator@V?$_List_val@U?$_List_simple_types@U?$pair@$$CBGV?$shared_ptr@UTerritoryType@Data@Core@@@boost@@@std@@@std@@@std@@@std@@@?$allocator@U_Container_proxy@std@@@std@@QAE@ABV?$allocator@V?$_List_unchecked_iterator@V?$_List_val@U?$_List_simple_types@U?$pair@$$CBGV?$shared_ptr@UTerritoryType@Data@Core@@@boost@@@std@@@std@@@std@@@std@@@1@@Z
	??$?0V?$_List_unchecked_iterator@V?$_List_val@U?$_List_simple_types@U?$pair@$$CBGV?$unordered_map@IV?$shared_ptr@VZone@Core@@@boost@@U?$hash@I@std@@U?$equal_to@I@4@V?$allocator@U?$pair@$$CBIV?$shared_ptr@VZone@Core@@@boost@@@std@@@4@@std@@@std@@@std@@@std@@@std@@@?$allocator@U_Container_proxy@std@@@std@@QAE@ABV?$allocator@V?$_List_unchecked_iterator@V?$_List_val@U?$_List_simple_types@U?$pair@$$CBGV?$unordered_map@IV?$shared_ptr@VZone@Core@@@boost@@U?$hash@I@std@@U?$equal_to@I@4@V?$allocator@U?$pair@$$CBIV?$shared_ptr@VZone@Core@@@boost@@@std@@@4@@std@@@std@@@std@@@std@@@std@@@1@@Z
	??$?0V?$_List_unchecked_iterator@V?$_List_val@U?$_List_simple_types@U?$pair@$$CBHV?$shared_ptr@VEventObject@Entity@Core@@@boost@@@std@@@std@@@std@@@std@@@?$allocator@U_Container_proxy@std@@@std@@QAE@ABV?$allocator@V?$_List_unchecked_iterator@V?$_List_val@U?$_List_simple_types@U?$pair@$$CBHV?$shared_ptr@VEventObject@Entity@Core@@@boost@@@std@@@std@@@std@@@std@@@1@@Z
	??$?0V?$_List_unchecked_iterator@V?$_List_val@U?$_List_simple_types@U?$pair@$$CBHV?$shared_ptr@VPlayer@Entity@Core@@@boost@@@std@@@std@@@std@@@std@@@?$allocator@U_Container_proxy@std@@@std@@QAE@ABV?$allocator@V?$_List_unchecked_iterator@V?$_List_val@U?$_List_simple_types@U?$pair@$$CBHV?$shared_ptr@VPlayer@Entity@Core@@@boost@@@std@@@std@@@std@@@std@@@1@@Z
	??$?0V?$_List_unchecked_iterator@V?$_List_val@U?$_List_simple_types@U?$pair@$$CBHV?$shared_ptr@VZonePosition@Core@@@boost@@@std@@@std@@@std@@@std@@@?$allocator@U_Container_proxy@std@@@std@@QAE@ABV?$allocator@V?$_List_unchecked_iterator@V?$_List_val@U?$_List_simple_types@U?$pair@$$CBHV?$shared_ptr@VZonePosition@Core@@@boost@@@std@@@std@@@std@@@std@@@1@@Z
	??$?0V?$_List_unchecked_iterator@V?$_List_val@U?$_List_simple_types@U?$pair@$$CBIE@std@@@std@@@std@@@std@@@?$allocator@U_Container_proxy@std@@@std@@QAE@ABV?$allocator@V?$_List_unchecked_iterator@V?$_List_val@U?$_List_simple_types@U?$pair@$$CBIE@std@@@std@@@std@@@std@@@1@@Z
	??$?0V?$_List_unchecked_iterator@V?$_List_val@U?$_List_simple_types@U?$pair@$$CBII@std@@@std@@@std@@@std@@@?$allocator@U_Container_proxy@std@@@std@@QAE@ABV?$allocator@V?$_List_unchecked_iterator@V?$_List_val@U?$_List_simple_types@U?$pair@$$CBII@std@@@std@@@std@@@std@@@1@@Z
	??$?0V?$_List_unchecked_iterator@V?$_List_val@U?$_List_simple_types@U?$pair@$$CBIPAVScriptObject@@@std@@@std@@@std@@@std@@@?$allocator@U_Container_proxy@std@@@std@@QAE@ABV?$allocator@V?$_List_unchecked_iterator@V?$_List_val@U?$_List_simple_types@U?$pair@$$CBIPAVScriptObject@@@std@@@std@@@std@@@std@@@1@@Z
	??$?0V?$_List_unchecked_iterator@V?$_List_val@U?$_List_simple_types@U?$pair@$$CBIV?$shared_ptr@VEventObject@Entity@Core@@@boost@@@std@@@std@@@std@@@std@@@?$allocator@U_Container_proxy@std@@@std@@QAE@ABV?$allocator@V?$_List_unchecked_iterator@V?$_List_val@U?$_List_simple_types@U?$pair@$$CBIV?$shared_ptr@VEventObject@Entity@Core@@@boost@@@std@@@std@@@std@@@std@@@1@@Z
	??$?0V?$_List_unchecked_iterator@V?$_List_val@U?$_List_simple_types@U?$pair@$$CBIV?$shared_ptr@VZone@Core@@@boost@@@std@@@std@@@std@@@std@@@?$allocator@U_Container_proxy@std@@@std@@QAE@ABV?$allocator@V?$_List_unchecked_iterator@V?$_List_val@U?$_List_simple_types@U?$pair@$$CBIV?$shared_ptr@VZone@Core@@@boost@@@std@@@std@@@std@@@std@@@1@@Z
	??$?0V?$_List_unchecked_iterator@V?$_List_val@U?$_List_simple_types@U?$pair@$$CBIV?$unordered_map@IPAVScriptObject@@U?$hash@I@std@@U?$equal_to@I@3@V?$allocator@U?$pair@$$CBIPAVScriptObject@@@std@@@3@@std@@@std@@@std@@@std@@@std@@@?$allocator@U_Container_proxy@std@@@std@@QAE@ABV?$allocator@V?$_List_unchecked_iterator@V?$_List_val@U?$_List_simple_types@U?$pair@$$CBIV?$unordered_map@IPAVScriptObject@@U?$hash@I@std@@U?$equal_to@I@3@V?$allocator@U?$pair@$$CBIPAVScriptObject@@@std@@@3@@std@@@std@@@std@@@std@@@std@@@1@@Z
	??$?0V?$_List_unchecked_iterator@V?$_List_val@U?$_List_simple_types@U?$pair@$$CBV?$basic_string@DU?$char_traits@D@std@@V?$allocator@D@2@@std@@PAVScriptInfo@Scripting@Core@@@std@@@std@@@std@@@std@@@?$allocator@U_Container_proxy@std@@@std@@QAE@ABV?$allocator@V?$_List_unchecked_iterator@V?$_List_val@U?$_List_simple_types@U?$pair@$$CBV?$basic_string@DU?$char_traits@D@std@@V?$allocator@D@2@@std@@PAVScriptInfo@Scripting@Core@@@std@@@std@@@std@@@std@@@1@@Z
	??$?0V?$_String_const_iterator@V?$_String_val@U?$_Simple_types@D@std@@@std@@@std@@@?$iterator_range_base@V?$_String_const_iterator@V?$_String_val@U?$_Simple_types@D@std@@@std@@@std@@Ubidirectional_traversal_tag@iterators@boost@@@iterator_range_detail@boost@@IAE@V?$_String_const_iterator@V?$_String_val@U?$_Simple_types@D@std@@@std@@@std@@0@Z
	??$?0V?$_String_const_iterator@V?$_String_val@U?$_Simple_types@D@std@@@std@@@std@@@?$iterator_range_base@V?$_String_const_iterator@V?$_String_val@U?$_Simple_types@D@std@@@std@@@std@@Uincrementable_traversal_tag@iterators@boost@@@iterator_range_detail@boost@@IAE@V?$_String_const_iterator@V?$_String_val@U?$_Simple_types@D@std@@@std@@@std@@0@Z
	??$?0V?$_String_const_iterator@V?$_String_val@U?$_Simple_types@D@std@@@std@@@std@@@?$iterator_range_base@V?$_String_const_iterator@V?$_String_val@U?$_Simple_types@D@std@@@std@@@std@@Urandom_access_traversal_tag@iterators@boost@@@iterator_range_detail@boost@@IAE@V?$_String_const_iterator@V?$_String_val@U?$_Simple_types@D@std@@@std@@@std@@0@Z
	??$?0V?$_String_iterator@V?$_String_val@U?$_Simple_types@D@std@@@std@@@std@@@?$iterator_range@V?$_String_iterator@V?$_String_val@U?$_Simple_types@D@std@@@std@@@std@@@boost@@QAE@V?$_String_iterator@V?$_String_val@U?$_Simple_types@D@std@@@std@@@std@@0@Z
	??$?0V?$_String_iterator@V?$_String_val@U?$_Simple_types@D@std@@@std@@@std@@@?$iterator_range_base@V?$_String_iterator@V?$_String_val@U?$_Simple_types@D@std@@@std@@@std@@Ubidirectional_traversal_tag@iterators@boost@@@iterator_range_detail@boost@@IAE@V?$_String_iterator@V?$_String_val@U?$_Simple_types@D@std@@@std@@@std@@0@Z
	??$?0V?$_String_iterator@V?$_String_val@U?$_Simple_types@D@std@@@std@@@std@@@?$iterator_range_base@V?$_String_iterator@V?$_String_val@U?$_Simple_types@D@std@@@std@@@std@@Uincrementable_traversal_tag@iterators@boost@@@iterator_range_detail@boost@@IAE@V?$_String_iterator@V?$_String_val@U?$_Simple_types@D@std@@@std@@@std@@0@Z
	??$?0V?$_String_iterator@V?$_String_val@U?$_Simple_types@D@std@@@std@@@std@@@?$iterator_range_base@V?$_String_iterator@V?$_String_val@U?$_Simple_types@D@std@@@std@@@std@@Urandom_access_traversal_tag@iterators@boost@@@iterator_range_detail@boost@@IAE@V?$_String_iterator@V?$_String_val@U?$_Simple_types@D@std@@@std@@@std@@0@Z
	??$?0V?$_String_iterator@V?$_String_val@U?$_Simple_types@D@std@@@std@@@std@@X@?$basic_string@DU?$char_traits@D@std@@V?$allocator@D@2@@std@@QAE@V?$_String_iterator@V?$_String_val@U?$_Simple_types@D@std@@@std@@@1@0ABV?$allocator@D@1@@Z
	??$?0V?$_Tree_const_iterator@V?$_Tree_val@U?$_Tree_simple_types@I@std@@@std@@@std@@_NX$0A@@?$pair@V?$_Tree_const_iterator@V?$_Tree_val@U?$_Tree_simple_types@I@std@@@std@@@std@@_N@std@@QAE@$$QAV?$_Tree_const_iterator@V?$_Tree_val@U?$_Tree_simple_types@I@std@@@std@@@1@$$QA_N@Z
	??$?0V?$_Tree_const_iterator@V?$_Tree_val@U?$_Tree_simple_types@PAVScriptInfo@Scripting@Core@@@std@@@std@@@std@@_NX$0A@@?$pair@V?$_Tree_const_iterator@V?$_Tree_val@U?$_Tree_simple_types@PAVScriptInfo@Scripting@Core@@@std@@@std@@@std@@_N@std@@QAE@$$QAV?$_Tree_const_iterator@V?$_Tree_val@U?$_Tree_simple_types@PAVScriptInfo@Scripting@Core@@@std@@@std@@@1@$$QA_N@Z
	??$?0V?$_Tree_const_iterator@V?$_Tree_val@U?$_Tree_simple_types@V?$basic_string@DU?$char_traits@D@std@@V?$allocator@D@2@@std@@@std@@@std@@@std@@_NX$0A@@?$pair@V?$_Tree_const_iterator@V?$_Tree_val@U?$_Tree_simple_types@V?$basic_string@DU?$char_traits@D@std@@V?$allocator@D@2@@std@@@std@@@std@@@std@@_N@std@@QAE@$$QAV?$_Tree_const_iterator@V?$_Tree_val@U?$_Tree_simple_types@V?$basic_string@DU?$char_traits@D@std@@V?$allocator@D@2@@std@@@std@@@std@@@1@$$QA_N@Z
	??$?0V?$_Tree_const_iterator@V?$_Tree_val@U?$_Tree_simple_types@V?$shared_ptr@VActor@Entity@Core@@@boost@@@std@@@std@@@std@@_NX$0A@@?$pair@V?$_Tree_const_iterator@V?$_Tree_val@U?$_Tree_simple_types@V?$shared_ptr@VActor@Entity@Core@@@boost@@@std@@@std@@@std@@_N@std@@QAE@$$QAV?$_Tree_const_iterator@V?$_Tree_val@U?$_Tree_simple_types@V?$shared_ptr@VActor@Entity@Core@@@boost@@@std@@@std@@@1@$$QA_N@Z
	??$?0V?$_Tree_const_iterator@V?$_Tree_val@U?$_Tree_simple_types@V?$shared_ptr@VPlayer@Entity@Core@@@boost@@@std@@@std@@@std@@_NX$0A@@?$pair@V?$_Tree_const_iterator@V?$_Tree_val@U?$_Tree_simple_types@V?$shared_ptr@VPlayer@Entity@Core@@@boost@@@std@@@std@@@std@@_N@std@@QAE@$$QAV?$_Tree_const_iterator@V?$_Tree_val@U?$_Tree_simple_types@V?$shared_ptr@VPlayer@Entity@Core@@@boost@@@std@@@std@@@1@$$QA_N@Z
	??$?0V?$_Tree_const_iterator@V?$_Tree_val@U?$_Tree_simple_types@V?$shared_ptr@VSession@Core@@@boost@@@std@@@std@@@std@@_NX$0A@@?$pair@V?$_Tree_const_iterator@V?$_Tree_val@U?$_Tree_simple_types@V?$shared_ptr@VSession@Core@@@boost@@@std@@@std@@@std@@_N@std@@QAE@$$QAV?$_Tree_const_iterator@V?$_Tree_val@U?$_Tree_simple_types@V?$shared_ptr@VSession@Core@@@boost@@@std@@@std@@@1@$$QA_N@Z
	??$?0V?$_Tree_const_iterator@V?$_Tree_val@U?$_Tree_simple_types@V?$shared_ptr@VZone@Core@@@boost@@@std@@@std@@@std@@_NX$0A@@?$pair@V?$_Tree_const_iterator@V?$_Tree_val@U?$_Tree_simple_types@V?$shared_ptr@VZone@Core@@@boost@@@std@@@std@@@std@@_N@std@@QAE@$$QAV?$_Tree_const_iterator@V?$_Tree_val@U?$_Tree_simple_types@V?$shared_ptr@VZone@Core@@@boost@@@std@@@std@@@1@$$QA_N@Z
	??$?0V?$_Tree_const_iterator@V?$_Tree_val@U?$_Tree_simple_types@_K@std@@@std@@@std@@_NX$0A@@?$pair@V?$_Tree_const_iterator@V?$_Tree_val@U?$_Tree_simple_types@_K@std@@@std@@@std@@_N@std@@QAE@$$QAV?$_Tree_const_iterator@V?$_Tree_val@U?$_Tree_simple_types@_K@std@@@std@@@1@$$QA_N@Z
	??$?0V?$_Tree_iterator@V?$_Tree_val@U?$_Tree_simple_types@U?$pair@$$CBEH@std@@@std@@@std@@@std@@_NX$0A@@?$pair@V?$_Tree_iterator@V?$_Tree_val@U?$_Tree_simple_types@U?$pair@$$CBEH@std@@@std@@@std@@@std@@_N@std@@QAE@$$QAV?$_Tree_iterator@V?$_Tree_val@U?$_Tree_simple_types@U?$pair@$$CBEH@std@@@std@@@std@@@1@$$QA_N@Z
	??$?0V?$_Tree_iterator@V?$_Tree_val@U?$_Tree_simple_types@U?$pair@$$CBEI@std@@@std@@@std@@@std@@_NX$0A@@?$pair@V?$_Tree_iterator@V?$_Tree_val@U?$_Tree_simple_types@U?$pair@$$CBEI@std@@@std@@@std@@@std@@_N@std@@QAE@$$QAV?$_Tree_iterator@V?$_Tree_val@U?$_Tree_simple_types@U?$pair@$$CBEI@std@@@std@@@std@@@1@$$QA_N@Z
	??$?0V?$_Tree_iterator@V?$_Tree_val@U?$_Tree_simple_types@U?$pair@$$CBEV?$shared_ptr@VItem@Core@@@boost@@@std@@@std@@@std@@@std@@_NX$0A@@?$pair@V?$_Tree_iterator@V?$_Tree_val@U?$_Tree_simple_types@U?$pair@$$CBEV?$shared_ptr@VItem@Core@@@boost@@@std@@@std@@@std@@@std@@_N@std@@QAE@$$QAV?$_Tree_iterator@V?$_Tree_val@U?$_Tree_simple_types@U?$pair@$$CBEV?$shared_ptr@VItem@Core@@@boost@@@std@@@std@@@std@@@1@$$QA_N@Z
	??$?0V?$_Tree_iterator@V?$_Tree_val@U?$_Tree_simple_types@U?$pair@$$CBEV?$shared_ptr@VStatusEffect@1Core@@@boost@@@std@@@std@@@std@@@std@@_NX$0A@@?$pair@V?$_Tree_iterator@V?$_Tree_val@U?$_Tree_simple_types@U?$pair@$$CBEV?$shared_ptr@VStatusEffect@1Core@@@boost@@@std@@@std@@@std@@@std@@_N@std@@QAE@$$QAV?$_Tree_iterator@V?$_Tree_val@U?$_Tree_simple_types@U?$pair@$$CBEV?$shared_ptr@VStatusEffect@1Core@@@boost@@@std@@@std@@@std@@@1@$$QA_N@Z
	??$?0V?$_Tree_iterator@V?$_Tree_val@U?$_Tree_simple_types@U?$pair@$$CBGP8GameConnection@Network@Core@@AEXABVGamePacket@Packets@23@AAVPlayer@Entity@3@@Z@std@@@std@@@std@@@std@@_NX$0A@@?$pair@V?$_Tree_iterator@V?$_Tree_val@U?$_Tree_simple_types@U?$pair@$$CBGP8GameConnection@Network@Core@@AEXABVGamePacket@Packets@23@AAVPlayer@Entity@3@@Z@std@@@std@@@std@@@std@@_N@std@@QAE@$$QAV?$_Tree_iterator@V?$_Tree_val@U?$_Tree_simple_types@U?$pair@$$CBGP8GameConnection@Network@Core@@AEXABVGamePacket@Packets@23@AAVPlayer@Entity@3@@Z@std@@@std@@@std@@@1@$$QA_N@Z
	??$?0V?$_Tree_iterator@V?$_Tree_val@U?$_Tree_simple_types@U?$pair@$$CBGV?$basic_string@DU?$char_traits@D@std@@V?$allocator@D@2@@std@@@std@@@std@@@std@@@std@@_NX$0A@@?$pair@V?$_Tree_iterator@V?$_Tree_val@U?$_Tree_simple_types@U?$pair@$$CBGV?$basic_string@DU?$char_traits@D@std@@V?$allocator@D@2@@std@@@std@@@std@@@std@@@std@@_N@std@@QAE@$$QAV?$_Tree_iterator@V?$_Tree_val@U?$_Tree_simple_types@U?$pair@$$CBGV?$basic_string@DU?$char_traits@D@std@@V?$allocator@D@2@@std@@@std@@@std@@@std@@@1@$$QA_N@Z
	??$?0V?$_Tree_iterator@V?$_Tree_val@U?$_Tree_simple_types@U?$pair@$$CBGV?$shared_ptr@VItemContainer@Core@@@boost@@@std@@@std@@@std@@@std@@_NX$0A@@?$pair@V?$_Tree_iterator@V?$_Tree_val@U?$_Tree_simple_types@U?$pair@$$CBGV?$shared_ptr@VItemContainer@Core@@@boost@@@std@@@std@@@std@@@std@@_N@std@@QAE@$$QAV?$_Tree_iterator@V?$_Tree_val@U?$_Tree_simple_types@U?$pair@$$CBGV?$shared_ptr@VItemContainer@Core@@@boost@@@std@@@std@@@std@@@1@$$QA_N@Z
	??$?0V?$_Tree_iterator@V?$_Tree_val@U?$_Tree_simple_types@U?$pair@$$CBIE@std@@@std@@@std@@@std@@_NX$0A@@?$pair@V?$_Tree_iterator@V?$_Tree_val@U?$_Tree_simple_types@U?$pair@$$CBIE@std@@@std@@@std@@@std@@_N@std@@QAE@$$QAV?$_Tree_iterator@V?$_Tree_val@U?$_Tree_simple_types@U?$pair@$$CBIE@std@@@std@@@std@@@1@$$QA_N@Z
	??$?0V?$_Tree_iterator@V?$_Tree_val@U?$_Tree_simple_types@U?$pair@$$CBIV?$shared_ptr@VEventHandler@Event@Core@@@boost@@@std@@@std@@@std@@@std@@_NX$0A@@?$pair@V?$_Tree_iterator@V?$_Tree_val@U?$_Tree_simple_types@U?$pair@$$CBIV?$shared_ptr@VEventHandler@Event@Core@@@boost@@@std@@@std@@@std@@@std@@_N@std@@QAE@$$QAV?$_Tree_iterator@V?$_Tree_val@U?$_Tree_simple_types@U?$pair@$$CBIV?$shared_ptr@VEventHandler@Event@Core@@@boost@@@std@@@std@@@std@@@1@$$QA_N@Z
	??$?0V?$_Tree_iterator@V?$_Tree_val@U?$_Tree_simple_types@U?$pair@$$CBIV?$shared_ptr@VSession@Core@@@boost@@@std@@@std@@@std@@@std@@_NX$0A@@?$pair@V?$_Tree_iterator@V?$_Tree_val@U?$_Tree_simple_types@U?$pair@$$CBIV?$shared_ptr@VSession@Core@@@boost@@@std@@@std@@@std@@@std@@_N@std@@QAE@$$QAV?$_Tree_iterator@V?$_Tree_val@U?$_Tree_simple_types@U?$pair@$$CBIV?$shared_ptr@VSession@Core@@@boost@@@std@@@std@@@std@@@1@$$QA_N@Z
	??$?0V?$_Tree_iterator@V?$_Tree_val@U?$_Tree_simple_types@U?$pair@$$CBV?$basic_string@DU?$char_traits@D@std@@V?$allocator@D@2@@std@@V?$shared_ptr@VDebugCommand@Core@@@boost@@@std@@@std@@@std@@@std@@_NX$0A@@?$pair@V?$_Tree_iterator@V?$_Tree_val@U?$_Tree_simple_types@U?$pair@$$CBV?$basic_string@DU?$char_traits@D@std@@V?$allocator@D@2@@std@@V?$shared_ptr@VDebugCommand@Core@@@boost@@@std@@@std@@@std@@@std@@_N@std@@QAE@$$QAV?$_Tree_iterator@V?$_Tree_val@U?$_Tree_simple_types@U?$pair@$$CBV?$basic_string@DU?$char_traits@D@std@@V?$allocator@D@2@@std@@V?$shared_ptr@VDebugCommand@Core@@@boost@@@std@@@std@@@std@@@1@$$QA_N@Z
	??$?0V?$_Tree_iterator@V?$_Tree_val@U?$_Tree_simple_types@U?$pair@$$CBV?$basic_string@DU?$char_traits@D@std@@V?$allocator@D@2@@std@@V?$shared_ptr@VEventObject@Entity@Core@@@boost@@@std@@@std@@@std@@@std@@_NX$0A@@?$pair@V?$_Tree_iterator@V?$_Tree_val@U?$_Tree_simple_types@U?$pair@$$CBV?$basic_string@DU?$char_traits@D@std@@V?$allocator@D@2@@std@@V?$shared_ptr@VEventObject@Entity@Core@@@boost@@@std@@@std@@@std@@@std@@_N@std@@QAE@$$QAV?$_Tree_iterator@V?$_Tree_val@U?$_Tree_simple_types@U?$pair@$$CBV?$basic_string@DU?$char_traits@D@std@@V?$allocator@D@2@@std@@V?$shared_ptr@VEventObject@Entity@Core@@@boost@@@std@@@std@@@std@@@1@$$QA_N@Z
	??$?0V?$_Tree_iterator@V?$_Tree_val@U?$_Tree_simple_types@U?$pair@$$CBV?$basic_string@DU?$char_traits@D@std@@V?$allocator@D@2@@std@@V?$shared_ptr@VLinkshell@Core@@@boost@@@std@@@std@@@std@@@std@@_NX$0A@@?$pair@V?$_Tree_iterator@V?$_Tree_val@U?$_Tree_simple_types@U?$pair@$$CBV?$basic_string@DU?$char_traits@D@std@@V?$allocator@D@2@@std@@V?$shared_ptr@VLinkshell@Core@@@boost@@@std@@@std@@@std@@@std@@_N@std@@QAE@$$QAV?$_Tree_iterator@V?$_Tree_val@U?$_Tree_simple_types@U?$pair@$$CBV?$basic_string@DU?$char_traits@D@std@@V?$allocator@D@2@@std@@V?$shared_ptr@VLinkshell@Core@@@boost@@@std@@@std@@@std@@@1@$$QA_N@Z
	??$?0V?$_Tree_iterator@V?$_Tree_val@U?$_Tree_simple_types@U?$pair@$$CBV?$basic_string@DU?$char_traits@D@std@@V?$allocator@D@2@@std@@V?$shared_ptr@VSession@Core@@@boost@@@std@@@std@@@std@@@std@@_NX$0A@@?$pair@V?$_Tree_iterator@V?$_Tree_val@U?$_Tree_simple_types@U?$pair@$$CBV?$basic_string@DU?$char_traits@D@std@@V?$allocator@D@2@@std@@V?$shared_ptr@VSession@Core@@@boost@@@std@@@std@@@std@@@std@@_N@std@@QAE@$$QAV?$_Tree_iterator@V?$_Tree_val@U?$_Tree_simple_types@U?$pair@$$CBV?$basic_string@DU?$char_traits@D@std@@V?$allocator@D@2@@std@@V?$shared_ptr@VSession@Core@@@boost@@@std@@@std@@@std@@@1@$$QA_N@Z
	??$?0V?$_Tree_iterator@V?$_Tree_val@U?$_Tree_simple_types@U?$pair@$$CBV?$basic_string@DU?$char_traits@D@std@@V?$allocator@D@2@@std@@VWatcher@Watchdog@@@std@@@std@@@std@@@std@@_NX$0A@@?$pair@V?$_Tree_iterator@V?$_Tree_val@U?$_Tree_simple_types@U?$pair@$$CBV?$basic_string@DU?$char_traits@D@std@@V?$allocator@D@2@@std@@VWatcher@Watchdog@@@std@@@std@@@std@@@std@@_N@std@@QAE@$$QAV?$_Tree_iterator@V?$_Tree_val@U?$_Tree_simple_types@U?$pair@$$CBV?$basic_string@DU?$char_traits@D@std@@V?$allocator@D@2@@std@@VWatcher@Watchdog@@@std@@@std@@@std@@@1@$$QA_N@Z
	??$?0V?$_Tree_iterator@V?$_Tree_val@U?$_Tree_simple_types@U?$pair@$$CBV?$basic_string@DU?$char_traits@D@std@@V?$allocator@D@2@@std@@_J@std@@@std@@@std@@@std@@_NX$0A@@?$pair@V?$_Tree_iterator@V?$_Tree_val@U?$_Tree_simple_types@U?$pair@$$CBV?$basic_string@DU?$char_traits@D@std@@V?$allocator@D@2@@std@@_J@std@@@std@@@std@@@std@@_N@std@@QAE@$$QAV?$_Tree_iterator@V?$_Tree_val@U?$_Tree_simple_types@U?$pair@$$CBV?$basic_string@DU?$char_traits@D@std@@V?$allocator@D@2@@std@@_J@std@@@std@@@std@@@1@$$QA_N@Z
	??$?0V?$_Tree_iterator@V?$_Tree_val@U?$_Tree_simple_types@U?$pair@$$CBVtype_index@std@@V?$shared_ptr@X@boost@@@std@@@std@@@std@@@std@@_NX$0A@@?$pair@V?$_Tree_iterator@V?$_Tree_val@U?$_Tree_simple_types@U?$pair@$$CBVtype_index@std@@V?$shared_ptr@X@boost@@@std@@@std@@@std@@@std@@_N@std@@QAE@$$QAV?$_Tree_iterator@V?$_Tree_val@U?$_Tree_simple_types@U?$pair@$$CBVtype_index@std@@V?$shared_ptr@X@boost@@@std@@@std@@@std@@@1@$$QA_N@Z
	??$?0V?$_Tree_iterator@V?$_Tree_val@U?$_Tree_simple_types@U?$pair@$$CB_KV?$shared_ptr@VLinkshell@Core@@@boost@@@std@@@std@@@std@@@std@@_NX$0A@@?$pair@V?$_Tree_iterator@V?$_Tree_val@U?$_Tree_simple_types@U?$pair@$$CB_KV?$shared_ptr@VLinkshell@Core@@@boost@@@std@@@std@@@std@@@std@@_N@std@@QAE@$$QAV?$_Tree_iterator@V?$_Tree_val@U?$_Tree_simple_types@U?$pair@$$CB_KV?$shared_ptr@VLinkshell@Core@@@boost@@@std@@@std@@@std@@@1@$$QA_N@Z
	??$?0V?$allocator@D@std@@$$V@?$_Compressed_pair@V?$allocator@D@std@@V?$_String_val@U?$_Simple_types@D@std@@@2@$00@std@@QAE@U_One_then_variadic_args_t@1@$$QAV?$allocator@D@1@@Z
	??$?0V?$allocator@D@std@@X@?$_String_alloc@U?$_String_base_types@DV?$allocator@D@std@@@std@@@std@@QAE@$$QAV?$allocator@D@1@@Z
	??$?0V?$allocator@E@std@@$$V@?$_Compressed_pair@V?$allocator@E@std@@V?$_Vector_val@U?$_Simple_types@E@std@@@2@$00@std@@QAE@U_One_then_variadic_args_t@1@$$QAV?$allocator@E@1@@Z
	??$?0V?$allocator@E@std@@X@?$_Vector_alloc@U?$_Vec_base_types@EV?$allocator@E@std@@@std@@@std@@QAE@$$QAV?$allocator@E@1@@Z
	??$?0V?$allocator@I@std@@$$V@?$_Compressed_pair@V?$allocator@I@std@@V?$_Vector_val@U?$_Simple_types@I@std@@@2@$00@std@@QAE@U_One_then_variadic_args_t@1@$$QAV?$allocator@I@1@@Z
	??$?0V?$allocator@I@std@@X@?$_Vector_alloc@U?$_Vec_base_types@IV?$allocator@I@std@@@std@@@std@@QAE@$$QAV?$allocator@I@1@@Z
	??$?0V?$allocator@U?$_Tree_node@IPAX@std@@@std@@$$V@?$_Compressed_pair@V?$allocator@U?$_Tree_node@IPAX@std@@@std@@V?$_Tree_val@U?$_Tree_simple_types@I@std@@@2@$00@std@@QAE@U_One_then_variadic_args_t@1@$$QAV?$allocator@U?$_Tree_node@IPAX@std@@@1@@Z
	??$?0V?$allocator@U?$_Tree_node@IPAX@std@@@std@@@?$_Tree@V?$_Tset_traits@IU?$less@I@std@@V?$allocator@I@2@$0A@@std@@@std@@QAE@ABV01@$$QAV?$allocator@U?$_Tree_node@IPAX@std@@@1@@Z
	??$?0V?$allocator@U?$_Tree_node@IPAX@std@@@std@@X@?$_Tree_comp_alloc@V?$_Tset_traits@IU?$less@I@std@@V?$allocator@I@2@$0A@@std@@@std@@QAE@ABU?$less@I@1@$$QAV?$allocator@U?$_Tree_node@IPAX@std@@@1@@Z
	??$?0V?$allocator@U?$_Tree_node@U?$pair@$$CBEV?$shared_ptr@VItem@Core@@@boost@@@std@@PAX@std@@@std@@$$V@?$_Compressed_pair@V?$allocator@U?$_Tree_node@U?$pair@$$CBEV?$shared_ptr@VItem@Core@@@boost@@@std@@PAX@std@@@std@@V?$_Tree_val@U?$_Tree_simple_types@U?$pair@$$CBEV?$shared_ptr@VItem@Core@@@boost@@@std@@@std@@@2@$00@std@@QAE@U_One_then_variadic_args_t@1@$$QAV?$allocator@U?$_Tree_node@U?$pair@$$CBEV?$shared_ptr@VItem@Core@@@boost@@@std@@PAX@std@@@1@@Z
	??$?0V?$allocator@U?$_Tree_node@U?$pair@$$CBEV?$shared_ptr@VItem@Core@@@boost@@@std@@PAX@std@@@std@@@?$_Tree@V?$_Tmap_traits@EV?$shared_ptr@VItem@Core@@@boost@@U?$less@E@std@@V?$allocator@U?$pair@$$CBEV?$shared_ptr@VItem@Core@@@boost@@@std@@@4@$0A@@std@@@std@@QAE@ABV01@$$QAV?$allocator@U?$_Tree_node@U?$pair@$$CBEV?$shared_ptr@VItem@Core@@@boost@@@std@@PAX@std@@@1@@Z
	??$?0V?$allocator@U?$_Tree_node@U?$pair@$$CBEV?$shared_ptr@VItem@Core@@@boost@@@std@@PAX@std@@@std@@X@?$_Tree_comp_alloc@V?$_Tmap_traits@EV?$shared_ptr@VItem@Core@@@boost@@U?$less@E@std@@V?$allocator@U?$pair@$$CBEV?$shared_ptr@VItem@Core@@@boost@@@std@@@4@$0A@@std@@@std@@QAE@ABU?$less@E@1@$$QAV?$allocator@U?$_Tree_node@U?$pair@$$CBEV?$shared_ptr@VItem@Core@@@boost@@@std@@PAX@std@@@1@@Z
	??$?0V?$allocator@U?$_Tree_node@U?$pair@$$CBEV?$shared_ptr@VStatusEffect@1Core@@@boost@@@std@@PAX@std@@@std@@$$V@?$_Compressed_pair@V?$allocator@U?$_Tree_node@U?$pair@$$CBEV?$shared_ptr@VStatusEffect@1Core@@@boost@@@std@@PAX@std@@@std@@V?$_Tree_val@U?$_Tree_simple_types@U?$pair@$$CBEV?$shared_ptr@VStatusEffect@1Core@@@boost@@@std@@@std@@@2@$00@std@@QAE@U_One_then_variadic_args_t@1@$$QAV?$allocator@U?$_Tree_node@U?$pair@$$CBEV?$shared_ptr@VStatusEffect@1Core@@@boost@@@std@@PAX@std@@@1@@Z
	??$?0V?$allocator@U?$_Tree_node@U?$pair@$$CBEV?$shared_ptr@VStatusEffect@1Core@@@boost@@@std@@PAX@std@@@std@@@?$_Tree@V?$_Tmap_traits@EV?$shared_ptr@VStatusEffect@1Core@@@boost@@U?$less@E@std@@V?$allocator@U?$pair@$$CBEV?$shared_ptr@VStatusEffect@1Core@@@boost@@@std@@@4@$0A@@std@@@std@@QAE@ABV01@$$QAV?$allocator@U?$_Tree_node@U?$pair@$$CBEV?$shared_ptr@VStatusEffect@1Core@@@boost@@@std@@PAX@std@@@1@@Z
	??$?0V?$allocator@U?$_Tree_node@U?$pair@$$CBEV?$shared_ptr@VStatusEffect@1Core@@@boost@@@std@@PAX@std@@@std@@X@?$_Tree_comp_alloc@V?$_Tmap_traits@EV?$shared_ptr@VStatusEffect@1Core@@@boost@@U?$less@E@std@@V?$allocator@U?$pair@$$CBEV?$shared_ptr@VStatusEffect@1Core@@@boost@@@std@@@4@$0A@@std@@@std@@QAE@ABU?$less@E@1@$$QAV?$allocator@U?$_Tree_node@U?$pair@$$CBEV?$shared_ptr@VStatusEffect@1Core@@@boost@@@std@@PAX@std@@@1@@Z
	??$?0V?$allocator@U?$_Tree_node@U?$pair@$$CBIV?$shared_ptr@VEventHandler@Event@Core@@@boost@@@std@@PAX@std@@@std@@$$V@?$_Compressed_pair@V?$allocator@U?$_Tree_node@U?$pair@$$CBIV?$shared_ptr@VEventHandler@Event@Core@@@boost@@@std@@PAX@std@@@std@@V?$_Tree_val@U?$_Tree_simple_types@U?$pair@$$CBIV?$shared_ptr@VEventHandler@Event@Core@@@boost@@@std@@@std@@@2@$00@std@@QAE@U_One_then_variadic_args_t@1@$$QAV?$allocator@U?$_Tree_node@U?$pair@$$CBIV?$shared_ptr@VEventHandler@Event@Core@@@boost@@@std@@PAX@std@@@1@@Z
	??$?0V?$allocator@U?$_Tree_node@U?$pair@$$CBIV?$shared_ptr@VEventHandler@Event@Core@@@boost@@@std@@PAX@std@@@std@@@?$_Tree@V?$_Tmap_traits@IV?$shared_ptr@VEventHandler@Event@Core@@@boost@@U?$less@I@std@@V?$allocator@U?$pair@$$CBIV?$shared_ptr@VEventHandler@Event@Core@@@boost@@@std@@@4@$0A@@std@@@std@@QAE@ABV01@$$QAV?$allocator@U?$_Tree_node@U?$pair@$$CBIV?$shared_ptr@VEventHandler@Event@Core@@@boost@@@std@@PAX@std@@@1@@Z
	??$?0V?$allocator@U?$_Tree_node@U?$pair@$$CBIV?$shared_ptr@VEventHandler@Event@Core@@@boost@@@std@@PAX@std@@@std@@X@?$_Tree_comp_alloc@V?$_Tmap_traits@IV?$shared_ptr@VEventHandler@Event@Core@@@boost@@U?$less@I@std@@V?$allocator@U?$pair@$$CBIV?$shared_ptr@VEventHandler@Event@Core@@@boost@@@std@@@4@$0A@@std@@@std@@QAE@ABU?$less@I@1@$$QAV?$allocator@U?$_Tree_node@U?$pair@$$CBIV?$shared_ptr@VEventHandler@Event@Core@@@boost@@@std@@PAX@std@@@1@@Z
	??$?0V?$allocator@U?$_Tree_node@U?$pair@$$CBV?$basic_string@DU?$char_traits@D@std@@V?$allocator@D@2@@std@@_J@std@@PAX@std@@@std@@$$V@?$_Compressed_pair@V?$allocator@U?$_Tree_node@U?$pair@$$CBV?$basic_string@DU?$char_traits@D@std@@V?$allocator@D@2@@std@@_J@std@@PAX@std@@@std@@V?$_Tree_val@U?$_Tree_simple_types@U?$pair@$$CBV?$basic_string@DU?$char_traits@D@std@@V?$allocator@D@2@@std@@_J@std@@@std@@@2@$00@std@@QAE@U_One_then_variadic_args_t@1@$$QAV?$allocator@U?$_Tree_node@U?$pair@$$CBV?$basic_string@DU?$char_traits@D@std@@V?$allocator@D@2@@std@@_J@std@@PAX@std@@@1@@Z
	??$?0V?$allocator@U?$_Tree_node@U?$pair@$$CBV?$basic_string@DU?$char_traits@D@std@@V?$allocator@D@2@@std@@_J@std@@PAX@std@@@std@@X@?$_Tree_comp_alloc@V?$_Tmap_traits@V?$basic_string@DU?$char_traits@D@std@@V?$allocator@D@2@@std@@_JU?$less@V?$basic_string@DU?$char_traits@D@std@@V?$allocator@D@2@@std@@@2@V?$allocator@U?$pair@$$CBV?$basic_string@DU?$char_traits@D@std@@V?$allocator@D@2@@std@@_J@std@@@2@$0A@@std@@@std@@QAE@ABU?$less@V?$basic_string@DU?$char_traits@D@std@@V?$allocator@D@2@@std@@@1@$$QAV?$allocator@U?$_Tree_node@U?$pair@$$CBV?$basic_string@DU?$char_traits@D@std@@V?$allocator@D@2@@std@@_J@std@@PAX@std@@@1@@Z
	??$?0V?$allocator@U?$_Tree_node@V?$shared_ptr@VActor@Entity@Core@@@boost@@PAX@std@@@std@@$$V@?$_Compressed_pair@V?$allocator@U?$_Tree_node@V?$shared_ptr@VActor@Entity@Core@@@boost@@PAX@std@@@std@@V?$_Tree_val@U?$_Tree_simple_types@V?$shared_ptr@VActor@Entity@Core@@@boost@@@std@@@2@$00@std@@QAE@U_One_then_variadic_args_t@1@$$QAV?$allocator@U?$_Tree_node@V?$shared_ptr@VActor@Entity@Core@@@boost@@PAX@std@@@1@@Z
	??$?0V?$allocator@U?$_Tree_node@V?$shared_ptr@VActor@Entity@Core@@@boost@@PAX@std@@@std@@@?$_Tree@V?$_Tset_traits@V?$shared_ptr@VActor@Entity@Core@@@boost@@U?$less@V?$shared_ptr@VActor@Entity@Core@@@boost@@@std@@V?$allocator@V?$shared_ptr@VActor@Entity@Core@@@boost@@@4@$0A@@std@@@std@@QAE@ABV01@$$QAV?$allocator@U?$_Tree_node@V?$shared_ptr@VActor@Entity@Core@@@boost@@PAX@std@@@1@@Z
	??$?0V?$allocator@U?$_Tree_node@V?$shared_ptr@VActor@Entity@Core@@@boost@@PAX@std@@@std@@X@?$_Tree_comp_alloc@V?$_Tset_traits@V?$shared_ptr@VActor@Entity@Core@@@boost@@U?$less@V?$shared_ptr@VActor@Entity@Core@@@boost@@@std@@V?$allocator@V?$shared_ptr@VActor@Entity@Core@@@boost@@@4@$0A@@std@@@std@@QAE@ABU?$less@V?$shared_ptr@VActor@Entity@Core@@@boost@@@1@$$QAV?$allocator@U?$_Tree_node@V?$shared_ptr@VActor@Entity@Core@@@boost@@PAX@std@@@1@@Z
	??$?0V?$allocator@U?$_Tree_node@_KPAX@std@@@std@@$$V@?$_Compressed_pair@V?$allocator@U?$_Tree_node@_KPAX@std@@@std@@V?$_Tree_val@U?$_Tree_simple_types@_K@std@@@2@$00@std@@QAE@U_One_then_variadic_args_t@1@$$QAV?$allocator@U?$_Tree_node@_KPAX@std@@@1@@Z
	??$?0V?$allocator@U?$_Tree_node@_KPAX@std@@@std@@@?$_Tree@V?$_Tset_traits@_KU?$less@_K@std@@V?$allocator@_K@2@$0A@@std@@@std@@QAE@ABV01@$$QAV?$allocator@U?$_Tree_node@_KPAX@std@@@1@@Z
	??$?0V?$allocator@U?$_Tree_node@_KPAX@std@@@std@@X@?$_Tree_comp_alloc@V?$_Tset_traits@_KU?$less@_K@std@@V?$allocator@_K@2@$0A@@std@@@std@@QAE@ABU?$less@_K@1@$$QAV?$allocator@U?$_Tree_node@_KPAX@std@@@1@@Z
	??$?0V?$allocator@U?$pair@GC@std@@@std@@$$V@?$_Compressed_pair@V?$allocator@U?$pair@GC@std@@@std@@V?$_Vector_val@U?$_Simple_types@U?$pair@GC@std@@@std@@@2@$00@std@@QAE@U_One_then_variadic_args_t@1@$$QAV?$allocator@U?$pair@GC@std@@@1@@Z
	??$?0V?$allocator@U?$pair@GC@std@@@std@@X@?$_Vector_alloc@U?$_Vec_base_types@U?$pair@GC@std@@V?$allocator@U?$pair@GC@std@@@2@@std@@@std@@QAE@$$QAV?$allocator@U?$pair@GC@std@@@1@@Z
	??$?0V?$allocator@_W@std@@$$V@?$_Compressed_pair@V?$allocator@_W@std@@V?$_String_val@U?$_Simple_types@_W@std@@@2@$00@std@@QAE@U_One_then_variadic_args_t@1@$$QAV?$allocator@_W@1@@Z
	??$?0V?$allocator@_W@std@@X@?$_String_alloc@U?$_String_base_types@_WV?$allocator@_W@std@@@std@@@std@@QAE@$$QAV?$allocator@_W@1@@Z
	??$?0V?$basic_altstringbuf@DU?$char_traits@D@std@@V?$allocator@D@2@@io@boost@@VNo_Op@?$basic_oaltstringstream@DU?$char_traits@D@std@@V?$allocator@D@2@@12@@?$shared_ptr@V?$basic_altstringbuf@DU?$char_traits@D@std@@V?$allocator@D@2@@io@boost@@@boost@@QAE@PAV?$basic_altstringbuf@DU?$char_traits@D@std@@V?$allocator@D@2@@io@1@VNo_Op@?$basic_oaltstringstream@DU?$char_traits@D@std@@V?$allocator@D@2@@31@@Z
	??$?0V?$basic_string@DU?$char_traits@D@std@@V?$allocator@D@2@@std@@$$V$0A@@?$tuple@$$QAV?$basic_string@DU?$char_traits@D@std@@V?$allocator@D@2@@std@@@std@@QAE@$$QAV?$basic_string@DU?$char_traits@D@std@@V?$allocator@D@2@@1@@Z
	??$?0V?$basic_string@DU?$char_traits@D@std@@V?$allocator@D@2@@std@@@?$_Tuple_val@$$QAV?$basic_string@DU?$char_traits@D@std@@V?$allocator@D@2@@std@@@std@@QAE@$$QAV?$basic_string@DU?$char_traits@D@std@@V?$allocator@D@2@@1@@Z
	??$?0V?$basic_string@DU?$char_traits@D@std@@V?$allocator@D@2@@std@@@?$allocator@PAV?$basic_string@DU?$char_traits@D@std@@V?$allocator@D@2@@std@@@std@@QAE@ABV?$allocator@V?$basic_string@DU?$char_traits@D@std@@V?$allocator@D@2@@std@@@1@@Z
	??$?0V?$basic_string@DU?$char_traits@D@std@@V?$allocator@D@2@@std@@@?$allocator@U_Container_proxy@std@@@std@@QAE@ABV?$allocator@V?$basic_string@DU?$char_traits@D@std@@V?$allocator@D@2@@std@@@1@@Z
	??$?0V?$basic_string@DU?$char_traits@D@std@@V?$allocator@D@2@@std@@@?$iterator_range@V?$_String_const_iterator@V?$_String_val@U?$_Simple_types@D@std@@@std@@@std@@@boost@@QAE@ABV?$basic_string@DU?$char_traits@D@std@@V?$allocator@D@2@@std@@Uconst_range_tag@iterator_range_detail@1@@Z
	??$?0V?$basic_string@DU?$char_traits@D@std@@V?$allocator@D@2@@std@@@any@boost@@QAE@ABV?$basic_string@DU?$char_traits@D@std@@V?$allocator@D@2@@std@@@Z
	??$?0V?$basic_string@DU?$char_traits@D@std@@V?$allocator@D@2@@std@@@path@filesystem@boost@@QAE@ABV?$basic_string@DU?$char_traits@D@std@@V?$allocator@D@2@@std@@PAX@Z
	??$?0V?$basic_string@DU?$char_traits@D@std@@V?$allocator@D@2@@std@@@ptree_bad_data@property_tree@boost@@QAE@ABV?$basic_string@DU?$char_traits@D@std@@V?$allocator@D@2@@std@@0@Z
	??$?0V?$basic_string@DU?$char_traits@D@std@@V?$allocator@D@2@@std@@PAVScriptInfo@Scripting@Core@@X$0A@@?$pair@$$CBV?$basic_string@DU?$char_traits@D@std@@V?$allocator@D@2@@std@@PAVScriptInfo@Scripting@Core@@@std@@QAE@$$QAU?$pair@V?$basic_string@DU?$char_traits@D@std@@V?$allocator@D@2@@std@@PAVScriptInfo@Scripting@Core@@@1@@Z
	??$?0V?$basic_string@DU?$char_traits@D@std@@V?$allocator@D@2@@std@@VWatcher@Watchdog@@X$0A@@?$pair@$$CBV?$basic_string@DU?$char_traits@D@std@@V?$allocator@D@2@@std@@VWatcher@Watchdog@@@std@@QAE@$$QAU?$pair@V?$basic_string@DU?$char_traits@D@std@@V?$allocator@D@2@@std@@VWatcher@Watchdog@@@1@@Z
	??$?0V?$bidir_node_iterator@U?$sequenced_index_node@U?$ordered_index_node@Unull_augment_policy@detail@multi_index@boost@@U?$index_node_base@U?$pair@$$CBV?$basic_string@DU?$char_traits@D@std@@V?$allocator@D@2@@std@@V?$basic_ptree@V?$basic_string@DU?$char_traits@D@std@@V?$allocator@D@2@@std@@V12@U?$less@V?$basic_string@DU?$char_traits@D@std@@V?$allocator@D@2@@std@@@2@@property_tree@boost@@@std@@V?$allocator@U?$pair@$$CBV?$basic_string@DU?$char_traits@D@std@@V?$allocator@D@2@@std@@V?$basic_ptree@V?$basic_string@DU?$char_traits@D@std@@V?$allocator@D@2@@std@@V12@U?$less@V?$basic_string@DU?$char_traits@D@std@@V?$allocator@D@2@@std@@@2@@property_tree@boost@@@std@@@2@@234@@detail@multi_index@boost@@@detail@multi_index@boost@@@detail@multi_index@boost@@AA_NX$0A@@?$pair@V?$bidir_node_iterator@U?$sequenced_index_node@U?$ordered_index_node@Unull_augment_policy@detail@multi_index@boost@@U?$index_node_base@U?$pair@$$CBV?$basic_string@DU?$char_traits@D@std@@V?$allocator@D@2@@std@@V?$basic_ptree@V?$basic_string@DU?$char_traits@D@std@@V?$allocator@D@2@@std@@V12@U?$less@V?$basic_string@DU?$char_traits@D@std@@V?$allocator@D@2@@std@@@2@@property_tree@boost@@@std@@V?$allocator@U?$pair@$$CBV?$basic_string@DU?$char_traits@D@std@@V?$allocator@D@2@@std@@V?$basic_ptree@V?$basic_string@DU?$char_traits@D@std@@V?$allocator@D@2@@std@@V12@U?$less@V?$basic_string@DU?$char_traits@D@std@@V?$allocator@D@2@@std@@@2@@property_tree@boost@@@std@@@2@@234@@detail@multi_index@boost@@@detail@multi_index@boost@@@detail@multi_index@boost@@_N@std@@QAE@$$QAV?$bidir_node_iterator@U?$sequenced_index_node@U?$ordered_index_node@Unull_augment_policy@detail@multi_index@boost@@U?$index_node_base@U?$pair@$$CBV?$basic_string@DU?$char_traits@D@std@@V?$allocator@D@2@@std@@V?$basic_ptree@V?$basic_string@DU?$char_traits@D@std@@V?$allocator@D@2@@std@@V12@U?$less@V?$basic_string@DU?$char_traits@D@std@@V?$allocator@D@2@@std@@@2@@property_tree@boost@@@std@@V?$allocator@U?$pair@$$CBV?$basic_string@DU?$char_traits@D@std@@V?$allocator@D@2@@std@@V?$basic_ptree@V?$basic_string@DU?$char_traits@D@std@@V?$allocator@D@2@@std@@V12@U?$less@V?$basic_string@DU?$char_traits@D@std@@V?$allocator@D@2@@std@@@2@@property_tree@boost@@@std@@@2@@234@@detail@multi_index@boost@@@detail@multi_index@boost@@@detail@multi_index@boost@@AA_N@Z
	??$?0V?$function@$$A6AXXZ@std@@@?$allocator@PAV?$function@$$A6AXXZ@std@@@std@@QAE@ABV?$allocator@V?$function@$$A6AXXZ@std@@@1@@Z
	??$?0V?$function@$$A6AXXZ@std@@@?$allocator@U_Container_proxy@std@@@std@@QAE@ABV?$allocator@V?$function@$$A6AXXZ@std@@@1@@Z
	??$?0V?$function@$$A6A_NXZ@std@@@?$allocator@PAV?$function@$$A6A_NXZ@std@@@std@@QAE@ABV?$allocator@V?$function@$$A6A_NXZ@std@@@1@@Z
	??$?0V?$function@$$A6A_NXZ@std@@@?$allocator@U_Container_proxy@std@@@std@@QAE@ABV?$allocator@V?$function@$$A6A_NXZ@std@@@1@@Z
	??$?0V?$iterator_range@PBD@boost@@@?$first_finderF@PBDUis_equal@algorithm@boost@@@detail@algorithm@boost@@QAE@ABV?$iterator_range@PBD@3@Uis_equal@23@@Z
	??$?0V?$iterator_range@PBD@boost@@@?$is_any_ofF@D@detail@algorithm@boost@@QAE@ABV?$iterator_range@PBD@3@@Z
	??$?0V?$iterator_range@V?$_String_iterator@V?$_String_val@U?$_Simple_types@D@std@@@std@@@std@@@boost@@@?$iterator_range@V?$_String_const_iterator@V?$_String_val@U?$_Simple_types@D@std@@@std@@@std@@@boost@@QAE@AAV?$iterator_range@V?$_String_iterator@V?$_String_val@U?$_Simple_types@D@std@@@std@@@std@@@1@PAX@Z
	??$?0V?$iterator_range@V?$_String_iterator@V?$_String_val@U?$_Simple_types@D@std@@@std@@@std@@@boost@@@?$iterator_range@V?$_String_iterator@V?$_String_val@U?$_Simple_types@D@std@@@std@@@std@@@boost@@QAE@AAV01@PAX@Z
	??$?0V?$shared_ptr@VGamePacket@Packets@Network@Core@@@boost@@@?$allocator@PAV?$shared_ptr@VGamePacket@Packets@Network@Core@@@boost@@@std@@QAE@ABV?$allocator@V?$shared_ptr@VGamePacket@Packets@Network@Core@@@boost@@@1@@Z
	??$?0V?$shared_ptr@VGamePacket@Packets@Network@Core@@@boost@@@?$allocator@U_Container_proxy@std@@@std@@QAE@ABV?$allocator@V?$shared_ptr@VGamePacket@Packets@Network@Core@@@boost@@@1@@Z
	??$?0V?$string_path@V?$basic_string@DU?$char_traits@D@std@@V?$allocator@D@2@@std@@U?$id_translator@V?$basic_string@DU?$char_traits@D@std@@V?$allocator@D@2@@std@@@property_tree@boost@@@property_tree@boost@@@any@boost@@QAE@ABV?$string_path@V?$basic_string@DU?$char_traits@D@std@@V?$allocator@D@2@@std@@U?$id_translator@V?$basic_string@DU?$char_traits@D@std@@V?$allocator@D@2@@std@@@property_tree@boost@@@property_tree@1@@Z
	??$?0V?$string_path@V?$basic_string@DU?$char_traits@D@std@@V?$allocator@D@2@@std@@U?$id_translator@V?$basic_string@DU?$char_traits@D@std@@V?$allocator@D@2@@std@@@property_tree@boost@@@property_tree@boost@@@ptree_bad_path@property_tree@boost@@QAE@ABV?$basic_string@DU?$char_traits@D@std@@V?$allocator@D@2@@std@@ABV?$string_path@V?$basic_string@DU?$char_traits@D@std@@V?$allocator@D@2@@std@@U?$id_translator@V?$basic_string@DU?$char_traits@D@std@@V?$allocator@D@2@@std@@@property_tree@boost@@@12@@Z
	??$?0V?$transform_iterator@U?$to_lowerF@D@detail@algorithm@boost@@V?$_String_const_iterator@V?$_String_val@U?$_Simple_types@D@std@@@std@@@std@@Uuse_default@iterators@4@U784@@iterators@boost@@X@?$basic_string@DU?$char_traits@D@std@@V?$allocator@D@2@@std@@QAE@V?$transform_iterator@U?$to_lowerF@D@detail@algorithm@boost@@V?$_String_const_iterator@V?$_String_val@U?$_Simple_types@D@std@@@std@@@std@@Uuse_default@iterators@4@U784@@iterators@boost@@0ABV?$allocator@D@1@@Z
	??$?0V?$tuple@$$QAE@std@@V?$tuple@$$V@1@$0A@$$Z$S@?$pair@$$CBEV?$shared_ptr@VItem@Core@@@boost@@@std@@QAE@AAV?$tuple@$$QAE@1@AAV?$tuple@$$V@1@U?$integer_sequence@I$0A@@1@U?$integer_sequence@I$S@1@@Z
	??$?0V?$tuple@$$QAG@std@@V?$tuple@$$V@1@$0A@$$Z$S@?$pair@$$CBGV?$shared_ptr@VItemContainer@Core@@@boost@@@std@@QAE@AAV?$tuple@$$QAG@1@AAV?$tuple@$$V@1@U?$integer_sequence@I$0A@@1@U?$integer_sequence@I$S@1@@Z
	??$?0V?$tuple@$$QAG@std@@V?$tuple@$$V@1@$0A@$$Z$S@?$pair@$$CBGV?$unordered_map@IV?$shared_ptr@VZone@Core@@@boost@@U?$hash@I@std@@U?$equal_to@I@4@V?$allocator@U?$pair@$$CBIV?$shared_ptr@VZone@Core@@@boost@@@std@@@4@@std@@@std@@QAE@AAV?$tuple@$$QAG@1@AAV?$tuple@$$V@1@U?$integer_sequence@I$0A@@1@U?$integer_sequence@I$S@1@@Z
	??$?0V?$tuple@$$QAH@std@@V?$tuple@$$V@1@$0A@$$Z$S@?$pair@$$CBHV?$shared_ptr@VEventObject@Entity@Core@@@boost@@@std@@QAE@AAV?$tuple@$$QAH@1@AAV?$tuple@$$V@1@U?$integer_sequence@I$0A@@1@U?$integer_sequence@I$S@1@@Z
	??$?0V?$tuple@$$QAH@std@@V?$tuple@$$V@1@$0A@$$Z$S@?$pair@$$CBHV?$shared_ptr@VPlayer@Entity@Core@@@boost@@@std@@QAE@AAV?$tuple@$$QAH@1@AAV?$tuple@$$V@1@U?$integer_sequence@I$0A@@1@U?$integer_sequence@I$S@1@@Z
	??$?0V?$tuple@$$QAI@std@@V?$tuple@$$V@1@$0A@$$Z$S@?$pair@$$CBII@std@@QAE@AAV?$tuple@$$QAI@1@AAV?$tuple@$$V@1@U?$integer_sequence@I$0A@@1@U?$integer_sequence@I$S@1@@Z
	??$?0V?$tuple@$$QAI@std@@V?$tuple@$$V@1@$0A@$$Z$S@?$pair@$$CBIPAVScriptObject@@@std@@QAE@AAV?$tuple@$$QAI@1@AAV?$tuple@$$V@1@U?$integer_sequence@I$0A@@1@U?$integer_sequence@I$S@1@@Z
	??$?0V?$tuple@$$QAI@std@@V?$tuple@$$V@1@$0A@$$Z$S@?$pair@$$CBIV?$shared_ptr@VEventHandler@Event@Core@@@boost@@@std@@QAE@AAV?$tuple@$$QAI@1@AAV?$tuple@$$V@1@U?$integer_sequence@I$0A@@1@U?$integer_sequence@I$S@1@@Z
	??$?0V?$tuple@$$QAI@std@@V?$tuple@$$V@1@$0A@$$Z$S@?$pair@$$CBIV?$shared_ptr@VZone@Core@@@boost@@@std@@QAE@AAV?$tuple@$$QAI@1@AAV?$tuple@$$V@1@U?$integer_sequence@I$0A@@1@U?$integer_sequence@I$S@1@@Z
	??$?0V?$tuple@$$QAI@std@@V?$tuple@$$V@1@$0A@$$Z$S@?$pair@$$CBIV?$unordered_map@IPAVScriptObject@@U?$hash@I@std@@U?$equal_to@I@3@V?$allocator@U?$pair@$$CBIPAVScriptObject@@@std@@@3@@std@@@std@@QAE@AAV?$tuple@$$QAI@1@AAV?$tuple@$$V@1@U?$integer_sequence@I$0A@@1@U?$integer_sequence@I$S@1@@Z
	??$?0V?$tuple@$$QAV?$basic_string@DU?$char_traits@D@std@@V?$allocator@D@2@@std@@@std@@V?$tuple@$$V@1@$0A@$$Z$S@?$pair@$$CBV?$basic_string@DU?$char_traits@D@std@@V?$allocator@D@2@@std@@V?$shared_ptr@VDebugCommand@Core@@@boost@@@std@@QAE@AAV?$tuple@$$QAV?$basic_string@DU?$char_traits@D@std@@V?$allocator@D@2@@std@@@1@AAV?$tuple@$$V@1@U?$integer_sequence@I$0A@@1@U?$integer_sequence@I$S@1@@Z
	??$?0V?$tuple@$$QAV?$basic_string@DU?$char_traits@D@std@@V?$allocator@D@2@@std@@@std@@V?$tuple@$$V@1@$0A@$$Z$S@?$pair@$$CBV?$basic_string@DU?$char_traits@D@std@@V?$allocator@D@2@@std@@V?$shared_ptr@VSession@Core@@@boost@@@std@@QAE@AAV?$tuple@$$QAV?$basic_string@DU?$char_traits@D@std@@V?$allocator@D@2@@std@@@1@AAV?$tuple@$$V@1@U?$integer_sequence@I$0A@@1@U?$integer_sequence@I$S@1@@Z
	??$?0V?$tuple@$$QAVtype_index@std@@@std@@V?$tuple@$$V@1@$0A@$$Z$S@?$pair@$$CBVtype_index@std@@V?$shared_ptr@X@boost@@@std@@QAE@AAV?$tuple@$$QAVtype_index@std@@@1@AAV?$tuple@$$V@1@U?$integer_sequence@I$0A@@1@U?$integer_sequence@I$S@1@@Z
	??$?0V?$tuple@ABE@std@@V?$tuple@$$V@1@$0A@$$Z$S@?$pair@$$CBEH@std@@QAE@AAV?$tuple@ABE@1@AAV?$tuple@$$V@1@U?$integer_sequence@I$0A@@1@U?$integer_sequence@I$S@1@@Z
	??$?0V?$tuple@ABE@std@@V?$tuple@$$V@1@$0A@$$Z$S@?$pair@$$CBEI@std@@QAE@AAV?$tuple@ABE@1@AAV?$tuple@$$V@1@U?$integer_sequence@I$0A@@1@U?$integer_sequence@I$S@1@@Z
	??$?0V?$tuple@ABE@std@@V?$tuple@$$V@1@$0A@$$Z$S@?$pair@$$CBEV?$shared_ptr@VItem@Core@@@boost@@@std@@QAE@AAV?$tuple@ABE@1@AAV?$tuple@$$V@1@U?$integer_sequence@I$0A@@1@U?$integer_sequence@I$S@1@@Z
	??$?0V?$tuple@ABE@std@@V?$tuple@$$V@1@$0A@$$Z$S@?$pair@$$CBEV?$shared_ptr@VStatusEffect@1Core@@@boost@@@std@@QAE@AAV?$tuple@ABE@1@AAV?$tuple@$$V@1@U?$integer_sequence@I$0A@@1@U?$integer_sequence@I$S@1@@Z
	??$?0V?$tuple@ABG@std@@V?$tuple@$$V@1@$0A@$$Z$S@?$pair@$$CBGP8GameConnection@Network@Core@@AEXABVGamePacket@Packets@23@AAVPlayer@Entity@3@@Z@std@@QAE@AAV?$tuple@ABG@1@AAV?$tuple@$$V@1@U?$integer_sequence@I$0A@@1@U?$integer_sequence@I$S@1@@Z
	??$?0V?$tuple@ABG@std@@V?$tuple@$$V@1@$0A@$$Z$S@?$pair@$$CBGV?$basic_string@DU?$char_traits@D@std@@V?$allocator@D@2@@std@@@std@@QAE@AAV?$tuple@ABG@1@AAV?$tuple@$$V@1@U?$integer_sequence@I$0A@@1@U?$integer_sequence@I$S@1@@Z
	??$?0V?$tuple@ABG@std@@V?$tuple@$$V@1@$0A@$$Z$S@?$pair@$$CBGV?$shared_ptr@UTerritoryType@Data@Core@@@boost@@@std@@QAE@AAV?$tuple@ABG@1@AAV?$tuple@$$V@1@U?$integer_sequence@I$0A@@1@U?$integer_sequence@I$S@1@@Z
	??$?0V?$tuple@ABG@std@@V?$tuple@$$V@1@$0A@$$Z$S@?$pair@$$CBGV?$shared_ptr@VItemContainer@Core@@@boost@@@std@@QAE@AAV?$tuple@ABG@1@AAV?$tuple@$$V@1@U?$integer_sequence@I$0A@@1@U?$integer_sequence@I$S@1@@Z
	??$?0V?$tuple@ABG@std@@V?$tuple@$$V@1@$0A@$$Z$S@?$pair@$$CBGV?$unordered_map@IV?$shared_ptr@VZone@Core@@@boost@@U?$hash@I@std@@U?$equal_to@I@4@V?$allocator@U?$pair@$$CBIV?$shared_ptr@VZone@Core@@@boost@@@std@@@4@@std@@@std@@QAE@AAV?$tuple@ABG@1@AAV?$tuple@$$V@1@U?$integer_sequence@I$0A@@1@U?$integer_sequence@I$S@1@@Z
	??$?0V?$tuple@ABH@std@@V?$tuple@$$V@1@$0A@$$Z$S@?$pair@$$CBHV?$shared_ptr@VZonePosition@Core@@@boost@@@std@@QAE@AAV?$tuple@ABH@1@AAV?$tuple@$$V@1@U?$integer_sequence@I$0A@@1@U?$integer_sequence@I$S@1@@Z
	??$?0V?$tuple@ABI@std@@V?$tuple@$$V@1@$0A@$$Z$S@?$pair@$$CBIE@std@@QAE@AAV?$tuple@ABI@1@AAV?$tuple@$$V@1@U?$integer_sequence@I$0A@@1@U?$integer_sequence@I$S@1@@Z
	??$?0V?$tuple@ABI@std@@V?$tuple@$$V@1@$0A@$$Z$S@?$pair@$$CBIV?$shared_ptr@VEventObject@Entity@Core@@@boost@@@std@@QAE@AAV?$tuple@ABI@1@AAV?$tuple@$$V@1@U?$integer_sequence@I$0A@@1@U?$integer_sequence@I$S@1@@Z
	??$?0V?$tuple@ABI@std@@V?$tuple@$$V@1@$0A@$$Z$S@?$pair@$$CBIV?$shared_ptr@VSession@Core@@@boost@@@std@@QAE@AAV?$tuple@ABI@1@AAV?$tuple@$$V@1@U?$integer_sequence@I$0A@@1@U?$integer_sequence@I$S@1@@Z
	??$?0V?$tuple@ABI@std@@V?$tuple@$$V@1@$0A@$$Z$S@?$pair@$$CBIV?$shared_ptr@VZone@Core@@@boost@@@std@@QAE@AAV?$tuple@ABI@1@AAV?$tuple@$$V@1@U?$integer_sequence@I$0A@@1@U?$integer_sequence@I$S@1@@Z
	??$?0V?$tuple@ABI@std@@V?$tuple@$$V@1@$0A@$$Z$S@?$pair@$$CBIV?$unordered_map@IPAVScriptObject@@U?$hash@I@std@@U?$equal_to@I@3@V?$allocator@U?$pair@$$CBIPAVScriptObject@@@std@@@3@@std@@@std@@QAE@AAV?$tuple@ABI@1@AAV?$tuple@$$V@1@U?$integer_sequence@I$0A@@1@U?$integer_sequence@I$S@1@@Z
	??$?0V?$tuple@ABV?$basic_string@DU?$char_traits@D@std@@V?$allocator@D@2@@std@@@std@@V?$tuple@$$V@1@$0A@$$Z$S@?$pair@$$CBV?$basic_string@DU?$char_traits@D@std@@V?$allocator@D@2@@std@@V?$shared_ptr@VEventObject@Entity@Core@@@boost@@@std@@QAE@AAV?$tuple@ABV?$basic_string@DU?$char_traits@D@std@@V?$allocator@D@2@@std@@@1@AAV?$tuple@$$V@1@U?$integer_sequence@I$0A@@1@U?$integer_sequence@I$S@1@@Z
	??$?0V?$tuple@ABV?$basic_string@DU?$char_traits@D@std@@V?$allocator@D@2@@std@@@std@@V?$tuple@$$V@1@$0A@$$Z$S@?$pair@$$CBV?$basic_string@DU?$char_traits@D@std@@V?$allocator@D@2@@std@@V?$shared_ptr@VLinkshell@Core@@@boost@@@std@@QAE@AAV?$tuple@ABV?$basic_string@DU?$char_traits@D@std@@V?$allocator@D@2@@std@@@1@AAV?$tuple@$$V@1@U?$integer_sequence@I$0A@@1@U?$integer_sequence@I$S@1@@Z
	??$?0V?$tuple@ABV?$basic_string@DU?$char_traits@D@std@@V?$allocator@D@2@@std@@@std@@V?$tuple@$$V@1@$0A@$$Z$S@?$pair@$$CBV?$basic_string@DU?$char_traits@D@std@@V?$allocator@D@2@@std@@_J@std@@QAE@AAV?$tuple@ABV?$basic_string@DU?$char_traits@D@std@@V?$allocator@D@2@@std@@@1@AAV?$tuple@$$V@1@U?$integer_sequence@I$0A@@1@U?$integer_sequence@I$S@1@@Z
	??$?0V?$tuple@AB_K@std@@V?$tuple@$$V@1@$0A@$$Z$S@?$pair@$$CB_KV?$shared_ptr@VLinkshell@Core@@@boost@@@std@@QAE@AAV?$tuple@AB_K@1@AAV?$tuple@$$V@1@U?$integer_sequence@I$0A@@1@U?$integer_sequence@I$S@1@@Z
	??$?0V?$tuple@_KV?$basic_string@DU?$char_traits@D@std@@V?$allocator@D@2@@std@@@std@@@?$allocator@U_Container_proxy@std@@@std@@QAE@ABV?$allocator@V?$tuple@_KV?$basic_string@DU?$char_traits@D@std@@V?$allocator@D@2@@std@@@std@@@1@@Z
	??$?0V?$unique_ptr@V?$tuple@V?$_Binder@U_Unforced@std@@P8Hive@Network@Core@@AEXXZPAV345@@std@@@std@@U?$default_delete@V?$tuple@V?$_Binder@U_Unforced@std@@P8Hive@Network@Core@@AEXXZPAV345@@std@@@std@@@2@@std@@@?$_LaunchPad@V?$unique_ptr@V?$tuple@V?$_Binder@U_Unforced@std@@P8Hive@Network@Core@@AEXXZPAV345@@std@@@std@@U?$default_delete@V?$tuple@V?$_Binder@U_Unforced@std@@P8Hive@Network@Core@@AEXXZPAV345@@std@@@std@@@2@@std@@@std@@QAE@$$QAV?$unique_ptr@V?$tuple@V?$_Binder@U_Unforced@std@@P8Hive@Network@Core@@AEXXZPAV345@@std@@@std@@U?$default_delete@V?$tuple@V?$_Binder@U_Unforced@std@@P8Hive@Network@Core@@AEXXZPAV345@@std@@@std@@@2@@1@@Z
	??$?0V?$variant@V?$basic_string@DU?$char_traits@D@std@@V?$allocator@D@2@@std@@_NCEFGHIM_K@boost@@@?$allocator@U_Container_proxy@std@@@std@@QAE@ABV?$allocator@V?$variant@V?$basic_string@DU?$char_traits@D@std@@V?$allocator@D@2@@std@@_NCEFGHIM_K@boost@@@1@@Z
	??$?0VAcceptor@Network@Core@@@?$shared_ptr@VAcceptor@Network@Core@@@boost@@QAE@ABV01@PAVAcceptor@Network@Core@@@Z
	??$?0VAcceptor@Network@Core@@@?$shared_ptr@VAcceptor@Network@Core@@@boost@@QAE@PAVAcceptor@Network@Core@@@Z
	??$?0VAcceptor@Network@Core@@@shared_count@detail@boost@@QAE@PAVAcceptor@Network@Core@@@Z
	??$?0VActionCast@Action@Core@@@?$shared_ptr@VAction@1Core@@@boost@@QAE@ABV?$shared_ptr@VActionCast@Action@Core@@@1@Usp_empty@detail@1@@Z
	??$?0VActionCast@Action@Core@@@?$shared_ptr@VActionCast@Action@Core@@@boost@@QAE@ABV01@PAVActionCast@Action@Core@@@Z
	??$?0VActionCast@Action@Core@@U?$sp_inplace_tag@V?$sp_ms_deleter@VActionCast@Action@Core@@@detail@boost@@@detail@boost@@@?$shared_ptr@VActionCast@Action@Core@@@boost@@QAE@PAVActionCast@Action@Core@@U?$sp_inplace_tag@V?$sp_ms_deleter@VActionCast@Action@Core@@@detail@boost@@@detail@1@@Z
	??$?0VActionMount@Action@Core@@@?$shared_ptr@VAction@1Core@@@boost@@QAE@ABV?$shared_ptr@VActionMount@Action@Core@@@1@Usp_empty@detail@1@@Z
	??$?0VActionMount@Action@Core@@@?$shared_ptr@VActionMount@Action@Core@@@boost@@QAE@ABV01@PAVActionMount@Action@Core@@@Z
	??$?0VActionMount@Action@Core@@U?$sp_inplace_tag@V?$sp_ms_deleter@VActionMount@Action@Core@@@detail@boost@@@detail@boost@@@?$shared_ptr@VActionMount@Action@Core@@@boost@@QAE@PAVActionMount@Action@Core@@U?$sp_inplace_tag@V?$sp_ms_deleter@VActionMount@Action@Core@@@detail@boost@@@detail@1@@Z
	??$?0VActionTeleport@Action@Core@@@?$shared_ptr@VAction@1Core@@@boost@@QAE@$$QAV?$shared_ptr@VActionTeleport@Action@Core@@@1@Usp_empty@detail@1@@Z
	??$?0VActionTeleport@Action@Core@@@?$shared_ptr@VActionTeleport@Action@Core@@@boost@@QAE@ABV01@PAVActionTeleport@Action@Core@@@Z
	??$?0VActionTeleport@Action@Core@@U?$sp_inplace_tag@V?$sp_ms_deleter@VActionTeleport@Action@Core@@@detail@boost@@@detail@boost@@@?$shared_ptr@VActionTeleport@Action@Core@@@boost@@QAE@PAVActionTeleport@Action@Core@@U?$sp_inplace_tag@V?$sp_ms_deleter@VActionTeleport@Action@Core@@@detail@boost@@@detail@1@@Z
	??$?0VActor@Entity@Core@@@?$shared_ptr@VActor@Entity@Core@@@boost@@QAE@ABV?$weak_ptr@VActor@Entity@Core@@@1@@Z
	??$?0VActor@Entity@Core@@@?$shared_ptr@VChara@Entity@Core@@@boost@@QAE@ABV?$shared_ptr@VActor@Entity@Core@@@1@PAVChara@Entity@Core@@@Z
	??$?0VActor@Entity@Core@@@?$shared_ptr@VEventObject@Entity@Core@@@boost@@QAE@ABV?$shared_ptr@VActor@Entity@Core@@@1@PAVEventObject@Entity@Core@@@Z
	??$?0VActor@Entity@Core@@@?$shared_ptr@VPlayer@Entity@Core@@@boost@@QAE@ABV?$shared_ptr@VActor@Entity@Core@@@1@PAVPlayer@Entity@Core@@@Z
	??$?0VConnection@Network@Core@@@?$shared_ptr@VConnection@Network@Core@@@boost@@QAE@ABV?$weak_ptr@VConnection@Network@Core@@@1@@Z
	??$?0VConnection@Network@Core@@@?$shared_ptr@VGameConnection@Network@Core@@@boost@@QAE@ABV?$shared_ptr@VConnection@Network@Core@@@1@PAVGameConnection@Network@Core@@@Z
	??$?0VDebugCommand@Core@@@?$shared_ptr@VDebugCommand@Core@@@boost@@QAE@ABV01@PAVDebugCommand@Core@@@Z
	??$?0VDebugCommand@Core@@U?$sp_inplace_tag@V?$sp_ms_deleter@VDebugCommand@Core@@@detail@boost@@@detail@boost@@@?$shared_ptr@VDebugCommand@Core@@@boost@@QAE@PAVDebugCommand@Core@@U?$sp_inplace_tag@V?$sp_ms_deleter@VDebugCommand@Core@@@detail@boost@@@detail@1@@Z
	??$?0VDebugCommandHandler@Core@@@?$shared_ptr@VDebugCommandHandler@Core@@@boost@@QAE@ABV01@PAVDebugCommandHandler@Core@@@Z
	??$?0VDebugCommandHandler@Core@@@?$shared_ptr@X@boost@@QAE@ABV?$shared_ptr@VDebugCommandHandler@Core@@@1@Usp_empty@detail@1@@Z
	??$?0VDebugCommandHandler@Core@@U?$sp_inplace_tag@V?$sp_ms_deleter@VDebugCommandHandler@Core@@@detail@boost@@@detail@boost@@@?$shared_ptr@VDebugCommandHandler@Core@@@boost@@QAE@PAVDebugCommandHandler@Core@@U?$sp_inplace_tag@V?$sp_ms_deleter@VDebugCommandHandler@Core@@@detail@boost@@@detail@1@@Z
	??$?0VEventAction@Action@Core@@@?$shared_ptr@VAction@1Core@@@boost@@QAE@ABV?$shared_ptr@VEventAction@Action@Core@@@1@Usp_empty@detail@1@@Z
	??$?0VEventAction@Action@Core@@@?$shared_ptr@VEventAction@Action@Core@@@boost@@QAE@ABV01@PAVEventAction@Action@Core@@@Z
	??$?0VEventAction@Action@Core@@U?$sp_inplace_tag@V?$sp_ms_deleter@VEventAction@Action@Core@@@detail@boost@@@detail@boost@@@?$shared_ptr@VEventAction@Action@Core@@@boost@@QAE@PAVEventAction@Action@Core@@U?$sp_inplace_tag@V?$sp_ms_deleter@VEventAction@Action@Core@@@detail@boost@@@detail@1@@Z
	??$?0VEventHandler@Event@Core@@@?$shared_ptr@VEventHandler@Event@Core@@@boost@@QAE@ABV01@PAVEventHandler@Event@Core@@@Z
	??$?0VEventHandler@Event@Core@@U?$sp_inplace_tag@V?$sp_ms_deleter@VEventHandler@Event@Core@@@detail@boost@@@detail@boost@@@?$shared_ptr@VEventHandler@Event@Core@@@boost@@QAE@PAVEventHandler@Event@Core@@U?$sp_inplace_tag@V?$sp_ms_deleter@VEventHandler@Event@Core@@@detail@boost@@@detail@1@@Z
	??$?0VEventItemAction@Action@Core@@@?$shared_ptr@VAction@1Core@@@boost@@QAE@$$QAV?$shared_ptr@VEventItemAction@Action@Core@@@1@Usp_empty@detail@1@@Z
	??$?0VEventItemAction@Action@Core@@@?$shared_ptr@VEventItemAction@Action@Core@@@boost@@QAE@ABV01@PAVEventItemAction@Action@Core@@@Z
	??$?0VEventItemAction@Action@Core@@U?$sp_inplace_tag@V?$sp_ms_deleter@VEventItemAction@Action@Core@@@detail@boost@@@detail@boost@@@?$shared_ptr@VEventItemAction@Action@Core@@@boost@@QAE@PAVEventItemAction@Action@Core@@U?$sp_inplace_tag@V?$sp_ms_deleter@VEventItemAction@Action@Core@@@detail@boost@@@detail@1@@Z
	??$?0VEventObject@Entity@Core@@@?$shared_ptr@VActor@Entity@Core@@@boost@@QAE@ABV?$shared_ptr@VEventObject@Entity@Core@@@1@PAVActor@Entity@Core@@@Z
	??$?0VEventObject@Entity@Core@@@?$shared_ptr@VActor@Entity@Core@@@boost@@QAE@ABV?$shared_ptr@VEventObject@Entity@Core@@@1@Usp_empty@detail@1@@Z
	??$?0VEventObject@Entity@Core@@@?$shared_ptr@VEventObject@Entity@Core@@@boost@@QAE@ABV01@PAVEventObject@Entity@Core@@@Z
	??$?0VEventObject@Entity@Core@@U?$sp_inplace_tag@V?$sp_ms_deleter@VEventObject@Entity@Core@@@detail@boost@@@detail@boost@@@?$shared_ptr@VEventObject@Entity@Core@@@boost@@QAE@PAVEventObject@Entity@Core@@U?$sp_inplace_tag@V?$sp_ms_deleter@VEventObject@Entity@Core@@@detail@boost@@@detail@1@@Z
	??$?0VExdDataGenerated@Data@Core@@@?$shared_ptr@VExdDataGenerated@Data@Core@@@boost@@QAE@ABV01@PAVExdDataGenerated@Data@Core@@@Z
	??$?0VExdDataGenerated@Data@Core@@@?$shared_ptr@X@boost@@QAE@ABV?$shared_ptr@VExdDataGenerated@Data@Core@@@1@Usp_empty@detail@1@@Z
	??$?0VExdDataGenerated@Data@Core@@U?$sp_inplace_tag@V?$sp_ms_deleter@VExdDataGenerated@Data@Core@@@detail@boost@@@detail@boost@@@?$shared_ptr@VExdDataGenerated@Data@Core@@@boost@@QAE@PAVExdDataGenerated@Data@Core@@U?$sp_inplace_tag@V?$sp_ms_deleter@VExdDataGenerated@Data@Core@@@detail@boost@@@detail@1@@Z
	??$?0VGameConnection@Network@Core@@@?$shared_ptr@VConnection@Network@Core@@@boost@@QAE@ABV?$shared_ptr@VGameConnection@Network@Core@@@1@PAVConnection@Network@Core@@@Z
	??$?0VGameConnection@Network@Core@@@?$shared_ptr@VConnection@Network@Core@@@boost@@QAE@ABV?$shared_ptr@VGameConnection@Network@Core@@@1@Usp_empty@detail@1@@Z
	??$?0VGameConnection@Network@Core@@@?$shared_ptr@VGameConnection@Network@Core@@@boost@@QAE@PAVGameConnection@Network@Core@@@Z
	??$?0VGameConnection@Network@Core@@@shared_count@detail@boost@@QAE@PAVGameConnection@Network@Core@@@Z
	??$?0VGamePacket@Packets@Network@Core@@@?$shared_ptr@VGamePacket@Packets@Network@Core@@@boost@@QAE@ABV01@PAVGamePacket@Packets@Network@Core@@@Z
	??$?0VGamePacket@Packets@Network@Core@@@?$shared_ptr@VGamePacket@Packets@Network@Core@@@boost@@QAE@PAVGamePacket@Packets@Network@Core@@@Z
	??$?0VGamePacket@Packets@Network@Core@@@shared_count@detail@boost@@QAE@PAVGamePacket@Packets@Network@Core@@@Z
	??$?0VGamePacket@Packets@Network@Core@@U?$sp_inplace_tag@V?$sp_ms_deleter@VGamePacket@Packets@Network@Core@@@detail@boost@@@detail@boost@@@?$shared_ptr@VGamePacket@Packets@Network@Core@@@boost@@QAE@PAVGamePacket@Packets@Network@Core@@U?$sp_inplace_tag@V?$sp_ms_deleter@VGamePacket@Packets@Network@Core@@@detail@boost@@@detail@1@@Z
	??$?0VHive@Network@Core@@@?$shared_ptr@VHive@Network@Core@@@boost@@QAE@ABV01@PAVHive@Network@Core@@@Z
	??$?0VHive@Network@Core@@@?$shared_ptr@VHive@Network@Core@@@boost@@QAE@PAVHive@Network@Core@@@Z
	??$?0VHive@Network@Core@@@shared_count@detail@boost@@QAE@PAVHive@Network@Core@@@Z
	??$?0VInstanceContent@Core@@@?$shared_ptr@VInstanceContent@Core@@@boost@@QAE@ABV01@PAVInstanceContent@Core@@@Z
	??$?0VInstanceContent@Core@@@?$shared_ptr@VZone@Core@@@boost@@QAE@$$QAV?$shared_ptr@VInstanceContent@Core@@@1@Usp_empty@detail@1@@Z
	??$?0VInstanceContent@Core@@@?$shared_ptr@VZone@Core@@@boost@@QAE@ABV?$shared_ptr@VInstanceContent@Core@@@1@PAVZone@Core@@@Z
	??$?0VInstanceContent@Core@@@?$shared_ptr@VZone@Core@@@boost@@QAE@ABV?$shared_ptr@VInstanceContent@Core@@@1@Usp_empty@detail@1@@Z
	??$?0VInstanceContent@Core@@U?$sp_inplace_tag@V?$sp_ms_deleter@VInstanceContent@Core@@@detail@boost@@@detail@boost@@@?$shared_ptr@VInstanceContent@Core@@@boost@@QAE@PAVInstanceContent@Core@@U?$sp_inplace_tag@V?$sp_ms_deleter@VInstanceContent@Core@@@detail@boost@@@detail@1@@Z
	??$?0VInventory@Core@@@?$shared_ptr@VInventory@Core@@@boost@@QAE@ABV01@PAVInventory@Core@@@Z
	??$?0VInventory@Core@@U?$sp_inplace_tag@V?$sp_ms_deleter@VInventory@Core@@@detail@boost@@@detail@boost@@@?$shared_ptr@VInventory@Core@@@boost@@QAE@PAVInventory@Core@@U?$sp_inplace_tag@V?$sp_ms_deleter@VInventory@Core@@@detail@boost@@@detail@1@@Z
	??$?0VItem@Core@@@?$shared_ptr@VItem@Core@@@boost@@QAE@PAVItem@Core@@@Z
	??$?0VItem@Core@@@shared_count@detail@boost@@QAE@PAVItem@Core@@@Z
	??$?0VItemContainer@Core@@@?$shared_ptr@VItemContainer@Core@@@boost@@QAE@ABV01@PAVItemContainer@Core@@@Z
	??$?0VItemContainer@Core@@U?$sp_inplace_tag@V?$sp_ms_deleter@VItemContainer@Core@@@detail@boost@@@detail@boost@@@?$shared_ptr@VItemContainer@Core@@@boost@@QAE@PAVItemContainer@Core@@U?$sp_inplace_tag@V?$sp_ms_deleter@VItemContainer@Core@@@detail@boost@@@detail@1@@Z
	??$?0VLinkshell@Core@@@?$shared_ptr@VLinkshell@Core@@@boost@@QAE@ABV01@PAVLinkshell@Core@@@Z
	??$?0VLinkshell@Core@@U?$sp_inplace_tag@V?$sp_ms_deleter@VLinkshell@Core@@@detail@boost@@@detail@boost@@@?$shared_ptr@VLinkshell@Core@@@boost@@QAE@PAVLinkshell@Core@@U?$sp_inplace_tag@V?$sp_ms_deleter@VLinkshell@Core@@@detail@boost@@@detail@1@@Z
	??$?0VLinkshellMgr@Core@@@?$shared_ptr@VLinkshellMgr@Core@@@boost@@QAE@ABV01@PAVLinkshellMgr@Core@@@Z
	??$?0VLinkshellMgr@Core@@@?$shared_ptr@X@boost@@QAE@ABV?$shared_ptr@VLinkshellMgr@Core@@@1@Usp_empty@detail@1@@Z
	??$?0VLinkshellMgr@Core@@U?$sp_inplace_tag@V?$sp_ms_deleter@VLinkshellMgr@Core@@@detail@boost@@@detail@boost@@@?$shared_ptr@VLinkshellMgr@Core@@@boost@@QAE@PAVLinkshellMgr@Core@@U?$sp_inplace_tag@V?$sp_ms_deleter@VLinkshellMgr@Core@@@detail@boost@@@detail@1@@Z
	??$?0VLogger@Core@@@?$shared_ptr@VLogger@Core@@@boost@@QAE@ABV01@PAVLogger@Core@@@Z
	??$?0VLogger@Core@@@?$shared_ptr@X@boost@@QAE@ABV?$shared_ptr@VLogger@Core@@@1@Usp_empty@detail@1@@Z
	??$?0VLogger@Core@@U?$sp_inplace_tag@V?$sp_ms_deleter@VLogger@Core@@@detail@boost@@@detail@boost@@@?$shared_ptr@VLogger@Core@@@boost@@QAE@PAVLogger@Core@@U?$sp_inplace_tag@V?$sp_ms_deleter@VLogger@Core@@@detail@boost@@@detail@1@@Z
	??$?0VNativeScriptMgr@Scripting@Core@@@?$shared_ptr@VNativeScriptMgr@Scripting@Core@@@boost@@QAE@ABV01@PAVNativeScriptMgr@Scripting@Core@@@Z
	??$?0VNativeScriptMgr@Scripting@Core@@U?$sp_inplace_tag@V?$sp_ms_deleter@VNativeScriptMgr@Scripting@Core@@@detail@boost@@@detail@boost@@@?$shared_ptr@VNativeScriptMgr@Scripting@Core@@@boost@@QAE@PAVNativeScriptMgr@Scripting@Core@@U?$sp_inplace_tag@V?$sp_ms_deleter@VNativeScriptMgr@Scripting@Core@@@detail@boost@@@detail@1@@Z
	??$?0VPlayer@Entity@Core@@@?$shared_ptr@VActor@Entity@Core@@@boost@@QAE@$$QAV?$shared_ptr@VPlayer@Entity@Core@@@1@Usp_empty@detail@1@@Z
	??$?0VPlayer@Entity@Core@@@?$shared_ptr@VActor@Entity@Core@@@boost@@QAE@ABV?$shared_ptr@VPlayer@Entity@Core@@@1@PAVActor@Entity@Core@@@Z
	??$?0VPlayer@Entity@Core@@@?$shared_ptr@VActor@Entity@Core@@@boost@@QAE@ABV?$shared_ptr@VPlayer@Entity@Core@@@1@Usp_empty@detail@1@@Z
	??$?0VPlayer@Entity@Core@@@?$shared_ptr@VChara@Entity@Core@@@boost@@QAE@$$QAV?$shared_ptr@VPlayer@Entity@Core@@@1@Usp_empty@detail@1@@Z
	??$?0VPlayer@Entity@Core@@@?$shared_ptr@VPlayer@Entity@Core@@@boost@@QAE@ABV01@PAVPlayer@Entity@Core@@@Z
	??$?0VPlayer@Entity@Core@@U?$sp_inplace_tag@V?$sp_ms_deleter@VPlayer@Entity@Core@@@detail@boost@@@detail@boost@@@?$shared_ptr@VPlayer@Entity@Core@@@boost@@QAE@PAVPlayer@Entity@Core@@U?$sp_inplace_tag@V?$sp_ms_deleter@VPlayer@Entity@Core@@@detail@boost@@@detail@1@@Z
	??$?0VScriptMgr@Scripting@Core@@@?$shared_ptr@VScriptMgr@Scripting@Core@@@boost@@QAE@ABV01@PAVScriptMgr@Scripting@Core@@@Z
	??$?0VScriptMgr@Scripting@Core@@@?$shared_ptr@X@boost@@QAE@ABV?$shared_ptr@VScriptMgr@Scripting@Core@@@1@Usp_empty@detail@1@@Z
	??$?0VScriptMgr@Scripting@Core@@U?$sp_inplace_tag@V?$sp_ms_deleter@VScriptMgr@Scripting@Core@@@detail@boost@@@detail@boost@@@?$shared_ptr@VScriptMgr@Scripting@Core@@@boost@@QAE@PAVScriptMgr@Scripting@Core@@U?$sp_inplace_tag@V?$sp_ms_deleter@VScriptMgr@Scripting@Core@@@detail@boost@@@detail@1@@Z
	??$?0VServerZone@Core@@@?$shared_ptr@VServerZone@Core@@@boost@@QAE@ABV01@PAVServerZone@Core@@@Z
	??$?0VServerZone@Core@@@?$shared_ptr@X@boost@@QAE@ABV?$shared_ptr@VServerZone@Core@@@1@Usp_empty@detail@1@@Z
	??$?0VServerZone@Core@@U?$sp_inplace_tag@V?$sp_ms_deleter@VServerZone@Core@@@detail@boost@@@detail@boost@@@?$shared_ptr@VServerZone@Core@@@boost@@QAE@PAVServerZone@Core@@U?$sp_inplace_tag@V?$sp_ms_deleter@VServerZone@Core@@@detail@boost@@@detail@1@@Z
	??$?0VSession@Core@@@?$shared_ptr@VSession@Core@@@boost@@QAE@ABV01@PAVSession@Core@@@Z
	??$?0VSession@Core@@@?$shared_ptr@VSession@Core@@@boost@@QAE@ABV?$weak_ptr@VSession@Core@@@1@@Z
	??$?0VSession@Core@@@?$shared_ptr@VSession@Core@@@boost@@QAE@PAVSession@Core@@@Z
	??$?0VSession@Core@@@shared_count@detail@boost@@QAE@PAVSession@Core@@@Z
	??$?0VStatusEffect@0Core@@@?$shared_ptr@VStatusEffect@1Core@@@boost@@QAE@ABV01@PAVStatusEffect@2Core@@@Z
	??$?0VStatusEffect@0Core@@U?$sp_inplace_tag@V?$sp_ms_deleter@VStatusEffect@1Core@@@detail@boost@@@detail@boost@@@?$shared_ptr@VStatusEffect@1Core@@@boost@@QAE@PAVStatusEffect@2Core@@U?$sp_inplace_tag@V?$sp_ms_deleter@VStatusEffect@1Core@@@detail@boost@@@detail@1@@Z
	??$?0VTerritoryMgr@Core@@@?$shared_ptr@VTerritoryMgr@Core@@@boost@@QAE@ABV01@PAVTerritoryMgr@Core@@@Z
	??$?0VTerritoryMgr@Core@@@?$shared_ptr@X@boost@@QAE@ABV?$shared_ptr@VTerritoryMgr@Core@@@1@Usp_empty@detail@1@@Z
	??$?0VTerritoryMgr@Core@@U?$sp_inplace_tag@V?$sp_ms_deleter@VTerritoryMgr@Core@@@detail@boost@@@detail@boost@@@?$shared_ptr@VTerritoryMgr@Core@@@boost@@QAE@PAVTerritoryMgr@Core@@U?$sp_inplace_tag@V?$sp_ms_deleter@VTerritoryMgr@Core@@@detail@boost@@@detail@1@@Z
	??$?0VXMLConfig@Core@@@?$shared_ptr@VXMLConfig@Core@@@boost@@QAE@ABV01@PAVXMLConfig@Core@@@Z
	??$?0VXMLConfig@Core@@@?$shared_ptr@X@boost@@QAE@ABV?$shared_ptr@VXMLConfig@Core@@@1@Usp_empty@detail@1@@Z
	??$?0VXMLConfig@Core@@U?$sp_inplace_tag@V?$sp_ms_deleter@VXMLConfig@Core@@@detail@boost@@@detail@boost@@@?$shared_ptr@VXMLConfig@Core@@@boost@@QAE@PAVXMLConfig@Core@@U?$sp_inplace_tag@V?$sp_ms_deleter@VXMLConfig@Core@@@detail@boost@@@detail@1@@Z
	??$?0VZone@Core@@@?$shared_ptr@VInstanceContent@Core@@@boost@@QAE@ABV?$shared_ptr@VZone@Core@@@1@PAVInstanceContent@Core@@@Z
	??$?0VZone@Core@@@?$shared_ptr@VZone@Core@@@boost@@QAE@ABV01@PAVZone@Core@@@Z
	??$?0VZone@Core@@@?$shared_ptr@VZone@Core@@@boost@@QAE@ABV?$weak_ptr@VZone@Core@@@1@@Z
	??$?0VZone@Core@@U?$sp_inplace_tag@V?$sp_ms_deleter@VZone@Core@@@detail@boost@@@detail@boost@@@?$shared_ptr@VZone@Core@@@boost@@QAE@PAVZone@Core@@U?$sp_inplace_tag@V?$sp_ms_deleter@VZone@Core@@@detail@boost@@@detail@1@@Z
	??$?0VZonePosition@Core@@@?$shared_ptr@VZonePosition@Core@@@boost@@QAE@ABV01@PAVZonePosition@Core@@@Z
	??$?0VZonePosition@Core@@U?$sp_inplace_tag@V?$sp_ms_deleter@VZonePosition@Core@@@detail@boost@@@detail@boost@@@?$shared_ptr@VZonePosition@Core@@@boost@@QAE@PAVZonePosition@Core@@U?$sp_inplace_tag@V?$sp_ms_deleter@VZonePosition@Core@@@detail@boost@@@detail@1@@Z
	??$?0Vany@boost@@@ptree_bad_data@property_tree@boost@@QAE@ABV?$basic_string@DU?$char_traits@D@std@@V?$allocator@D@2@@std@@ABVany@2@@Z
	??$?0Vpath@filesystem@boost@@@?$allocator@U_Container_proxy@std@@@std@@QAE@ABV?$allocator@Vpath@filesystem@boost@@@1@@Z
	??$?0Vthread@std@@@?$allocator@U_Container_proxy@std@@@std@@QAE@ABV?$allocator@Vthread@std@@@1@@Z
	??$?0Vtype_index@std@@$$V$0A@@?$tuple@$$QAVtype_index@std@@@std@@QAE@$$QAVtype_index@1@@Z
	??$?0Vtype_index@std@@@?$_Tuple_val@$$QAVtype_index@std@@@std@@QAE@$$QAVtype_index@1@@Z
	??$?0W4InventoryType@Inventory@Core@@CX$0A@@?$pair@GC@std@@QAE@$$QAU?$pair@W4InventoryType@Inventory@Core@@C@1@@Z
	??$?0W4PlayerStateFlag@Common@Core@@@?$allocator@U_Container_proxy@std@@@std@@QAE@ABV?$allocator@W4PlayerStateFlag@Common@Core@@@1@@Z
	??$?0W4basic_errors@error@asio@boost@@@error_code@system@boost@@QAE@W4basic_errors@error@asio@2@PAX@Z
	??$?0X@?$shared_ptr@V?$DbWorkerPool@VCharaDbConnection@Db@Core@@@Db@Core@@@boost@@QAE@ABV?$shared_ptr@X@1@PAV?$DbWorkerPool@VCharaDbConnection@Db@Core@@@Db@Core@@@Z
	??$?0X@?$shared_ptr@VDebugCommandHandler@Core@@@boost@@QAE@ABV?$shared_ptr@X@1@PAVDebugCommandHandler@Core@@@Z
	??$?0X@?$shared_ptr@VExdDataGenerated@Data@Core@@@boost@@QAE@ABV?$shared_ptr@X@1@PAVExdDataGenerated@Data@Core@@@Z
	??$?0X@?$shared_ptr@VLinkshellMgr@Core@@@boost@@QAE@ABV?$shared_ptr@X@1@PAVLinkshellMgr@Core@@@Z
	??$?0X@?$shared_ptr@VLogger@Core@@@boost@@QAE@ABV?$shared_ptr@X@1@PAVLogger@Core@@@Z
	??$?0X@?$shared_ptr@VScriptMgr@Scripting@Core@@@boost@@QAE@ABV?$shared_ptr@X@1@PAVScriptMgr@Scripting@Core@@@Z
	??$?0X@?$shared_ptr@VServerZone@Core@@@boost@@QAE@ABV?$shared_ptr@X@1@PAVServerZone@Core@@@Z
	??$?0X@?$shared_ptr@VTerritoryMgr@Core@@@boost@@QAE@ABV?$shared_ptr@X@1@PAVTerritoryMgr@Core@@@Z
	??$?0X@?$shared_ptr@VXMLConfig@Core@@@boost@@QAE@ABV?$shared_ptr@X@1@PAVXMLConfig@Core@@@Z
	??$?0_JU?$ratio@$00$00@std@@X@?$duration@_JU?$ratio@$00$0DLJKMKAA@@std@@@chrono@std@@QAE@ABV?$duration@_JU?$ratio@$00$00@std@@@12@@Z
	??$?0_JU?$ratio@$00$0JIJGIA@@std@@X@?$duration@_JU?$ratio@$00$0DLJKMKAA@@std@@@chrono@std@@QAE@ABV?$duration@_JU?$ratio@$00$0JIJGIA@@std@@@12@@Z
	??$?0_JX@?$duration@_JU?$ratio@$00$00@std@@@chrono@std@@QAE@AB_J@Z
	??$?0_JX@?$duration@_JU?$ratio@$00$0DLJKMKAA@@std@@@chrono@std@@QAE@AB_J@Z
	??$?0_JX@?$duration@_JU?$ratio@$00$0DOI@@std@@@chrono@std@@QAE@AB_J@Z
	??$?0_JX@?$duration@_JU?$ratio@$00$0JIJGIA@@std@@@chrono@std@@QAE@AB_J@Z
	??$?0_K@?$_Tuple_val@_K@std@@QAE@$$QA_K@Z
	??$?0_K@?$allocator@U_Container_proxy@std@@@std@@QAE@ABV?$allocator@_K@1@@Z
	??$?0_KAAV?$basic_string@DU?$char_traits@D@std@@V?$allocator@D@2@@std@@$0A@@?$tuple@_KV?$basic_string@DU?$char_traits@D@std@@V?$allocator@D@2@@std@@@std@@QAE@$$QA_KAAV?$basic_string@DU?$char_traits@D@std@@V?$allocator@D@2@@1@@Z
	??$?0_W@?$allocator@U_Container_proxy@std@@@std@@QAE@ABV?$allocator@_W@1@@Z
	??$?4AAV?$function@$$A6AXAAVPlayer@Entity@Core@@@Z@std@@X@?$function@$$A6AXAAVPlayer@Entity@Core@@@Z@std@@QAEAAV01@AAV01@@Z
	??$?4AAV?$function@$$A6AXAAVPlayer@Entity@Core@@ABUSceneResult@Event@3@@Z@std@@X@?$function@$$A6AXAAVPlayer@Entity@Core@@ABUSceneResult@Event@3@@Z@std@@QAEAAV01@AAV01@@Z
	??$?4AAV?$function@$$A6AXAAVPlayer@Entity@Core@@I_K@Z@std@@X@?$function@$$A6AXAAVPlayer@Entity@Core@@I_K@Z@std@@QAEAAV01@AAV01@@Z
	??$?4AAV?$function@$$A6AXAAVPlayer@Entity@Core@@V?$shared_ptr@VEventObject@Entity@Core@@@boost@@V?$shared_ptr@VInstanceContent@Core@@@5@_K@Z@std@@X@?$function@$$A6AXAAVPlayer@Entity@Core@@V?$shared_ptr@VEventObject@Entity@Core@@@boost@@V?$shared_ptr@VInstanceContent@Core@@@5@_K@Z@std@@QAEAAV01@AAV01@@Z
	??$?4HH@?$pair@EI@std@@QAEAAU01@$$QAU?$pair@HH@1@@Z
	??$?4V?$DbWorkerPool@VCharaDbConnection@Db@Core@@@Db@Core@@@?$shared_ptr@X@boost@@QAEAAV01@ABV?$shared_ptr@V?$DbWorkerPool@VCharaDbConnection@Db@Core@@@Db@Core@@@1@@Z
	??$?4V?$_String_iterator@V?$_String_val@U?$_Simple_types@D@std@@@std@@@std@@@?$iterator_range@V?$_String_iterator@V?$_String_val@U?$_Simple_types@D@std@@@std@@@std@@@boost@@QAEAAV01@AAV01@@Z
	??$?4V?$iterator_range@V?$_String_iterator@V?$_String_val@U?$_Simple_types@D@std@@@std@@@std@@@boost@@@?$find_format_store@V?$_String_iterator@V?$_String_val@U?$_Simple_types@D@std@@@std@@@std@@U?$empty_formatF@D@detail@algorithm@boost@@U?$empty_container@D@456@@detail@algorithm@boost@@QAEAAV0123@V?$iterator_range@V?$_String_iterator@V?$_String_val@U?$_Simple_types@D@std@@@std@@@std@@@3@@Z
	??$?4VAcceptor@Network@Core@@@?$weak_ptr@VAcceptor@Network@Core@@@boost@@QAEAAV01@ABV?$shared_ptr@VAcceptor@Network@Core@@@1@@Z
	??$?4VActionTeleport@Action@Core@@@?$shared_ptr@VAction@1Core@@@boost@@QAEAAV01@$$QAV?$shared_ptr@VActionTeleport@Action@Core@@@1@@Z
	??$?4VActor@Entity@Core@@@?$weak_ptr@VActor@Entity@Core@@@boost@@QAEAAV01@ABV?$shared_ptr@VActor@Entity@Core@@@1@@Z
	??$?4VConnection@Network@Core@@@?$weak_ptr@VConnection@Network@Core@@@boost@@QAEAAV01@ABV?$shared_ptr@VConnection@Network@Core@@@1@@Z
	??$?4VDebugCommandHandler@Core@@@?$shared_ptr@X@boost@@QAEAAV01@ABV?$shared_ptr@VDebugCommandHandler@Core@@@1@@Z
	??$?4VExdDataGenerated@Data@Core@@@?$shared_ptr@X@boost@@QAEAAV01@ABV?$shared_ptr@VExdDataGenerated@Data@Core@@@1@@Z
	??$?4VHive@Network@Core@@@?$weak_ptr@VHive@Network@Core@@@boost@@QAEAAV01@ABV?$shared_ptr@VHive@Network@Core@@@1@@Z
	??$?4VInstanceContent@Core@@@?$shared_ptr@VZone@Core@@@boost@@QAEAAV01@ABV?$shared_ptr@VInstanceContent@Core@@@1@@Z
	??$?4VLinkshellMgr@Core@@@?$shared_ptr@X@boost@@QAEAAV01@ABV?$shared_ptr@VLinkshellMgr@Core@@@1@@Z
	??$?4VLogger@Core@@@?$shared_ptr@X@boost@@QAEAAV01@ABV?$shared_ptr@VLogger@Core@@@1@@Z
	??$?4VPlayer@Entity@Core@@@?$shared_ptr@VActor@Entity@Core@@@boost@@QAEAAV01@$$QAV?$shared_ptr@VPlayer@Entity@Core@@@1@@Z
	??$?4VPlayer@Entity@Core@@@?$shared_ptr@VChara@Entity@Core@@@boost@@QAEAAV01@$$QAV?$shared_ptr@VPlayer@Entity@Core@@@1@@Z
	??$?4VScriptMgr@Scripting@Core@@@?$shared_ptr@X@boost@@QAEAAV01@ABV?$shared_ptr@VScriptMgr@Scripting@Core@@@1@@Z
	??$?4VServerZone@Core@@@?$shared_ptr@X@boost@@QAEAAV01@ABV?$shared_ptr@VServerZone@Core@@@1@@Z
	??$?4VSession@Core@@@?$weak_ptr@VSession@Core@@@boost@@QAEAAV01@ABV?$shared_ptr@VSession@Core@@@1@@Z
	??$?4VTerritoryMgr@Core@@@?$shared_ptr@X@boost@@QAEAAV01@ABV?$shared_ptr@VTerritoryMgr@Core@@@1@@Z
	??$?4VXMLConfig@Core@@@?$shared_ptr@X@boost@@QAEAAV01@ABV?$shared_ptr@VXMLConfig@Core@@@1@@Z
	??$?4VZone@Core@@@?$weak_ptr@VZone@Core@@@boost@@QAEAAV01@ABV?$shared_ptr@VZone@Core@@@1@@Z
	??$?4W4basic_errors@error@asio@boost@@@error_code@system@boost@@QAEAAV012@W4basic_errors@error@asio@2@@Z
	??$?6U?$char_traits@D@std@@@std@@YAAAV?$basic_ostream@DU?$char_traits@D@std@@@0@AAV10@D@Z
	??$?8DU?$char_traits@D@std@@V?$allocator@D@1@@std@@YA_NABV?$basic_string@DU?$char_traits@D@std@@V?$allocator@D@2@@0@0@Z
	??$?8DU?$char_traits@D@std@@V?$allocator@D@1@@std@@YA_NABV?$basic_string@DU?$char_traits@D@std@@V?$allocator@D@2@@0@QBD@Z
	??$?8U?$ordered_index_node@Unull_augment_policy@detail@multi_index@boost@@U?$index_node_base@U?$pair@$$CBV?$basic_string@DU?$char_traits@D@std@@V?$allocator@D@2@@std@@V?$basic_ptree@V?$basic_string@DU?$char_traits@D@std@@V?$allocator@D@2@@std@@V12@U?$less@V?$basic_string@DU?$char_traits@D@std@@V?$allocator@D@2@@std@@@2@@property_tree@boost@@@std@@V?$allocator@U?$pair@$$CBV?$basic_string@DU?$char_traits@D@std@@V?$allocator@D@2@@std@@V?$basic_ptree@V?$basic_string@DU?$char_traits@D@std@@V?$allocator@D@2@@std@@V12@U?$less@V?$basic_string@DU?$char_traits@D@std@@V?$allocator@D@2@@std@@@2@@property_tree@boost@@@std@@@2@@234@@detail@multi_index@boost@@@detail@multi_index@boost@@YA_NABV?$bidir_node_iterator@U?$ordered_index_node@Unull_augment_policy@detail@multi_index@boost@@U?$index_node_base@U?$pair@$$CBV?$basic_string@DU?$char_traits@D@std@@V?$allocator@D@2@@std@@V?$basic_ptree@V?$basic_string@DU?$char_traits@D@std@@V?$allocator@D@2@@std@@V12@U?$less@V?$basic_string@DU?$char_traits@D@std@@V?$allocator@D@2@@std@@@2@@property_tree@boost@@@std@@V?$allocator@U?$pair@$$CBV?$basic_string@DU?$char_traits@D@std@@V?$allocator@D@2@@std@@V?$basic_ptree@V?$basic_string@DU?$char_traits@D@std@@V?$allocator@D@2@@std@@V12@U?$less@V?$basic_string@DU?$char_traits@D@std@@V?$allocator@D@2@@std@@@2@@property_tree@boost@@@std@@@2@@234@@detail@multi_index@boost@@@012@0@Z
	??$?8U?$sequenced_index_node@U?$ordered_index_node@Unull_augment_policy@detail@multi_index@boost@@U?$index_node_base@U?$pair@$$CBV?$basic_string@DU?$char_traits@D@std@@V?$allocator@D@2@@std@@V?$basic_ptree@V?$basic_string@DU?$char_traits@D@std@@V?$allocator@D@2@@std@@V12@U?$less@V?$basic_string@DU?$char_traits@D@std@@V?$allocator@D@2@@std@@@2@@property_tree@boost@@@std@@V?$allocator@U?$pair@$$CBV?$basic_string@DU?$char_traits@D@std@@V?$allocator@D@2@@std@@V?$basic_ptree@V?$basic_string@DU?$char_traits@D@std@@V?$allocator@D@2@@std@@V12@U?$less@V?$basic_string@DU?$char_traits@D@std@@V?$allocator@D@2@@std@@@2@@property_tree@boost@@@std@@@2@@234@@detail@multi_index@boost@@@detail@multi_index@boost@@@detail@multi_index@boost@@YA_NABV?$bidir_node_iterator@U?$sequenced_index_node@U?$ordered_index_node@Unull_augment_policy@detail@multi_index@boost@@U?$index_node_base@U?$pair@$$CBV?$basic_string@DU?$char_traits@D@std@@V?$allocator@D@2@@std@@V?$basic_ptree@V?$basic_string@DU?$char_traits@D@std@@V?$allocator@D@2@@std@@V12@U?$less@V?$basic_string@DU?$char_traits@D@std@@V?$allocator@D@2@@std@@@2@@property_tree@boost@@@std@@V?$allocator@U?$pair@$$CBV?$basic_string@DU?$char_traits@D@std@@V?$allocator@D@2@@std@@V?$basic_ptree@V?$basic_string@DU?$char_traits@D@std@@V?$allocator@D@2@@std@@V12@U?$less@V?$basic_string@DU?$char_traits@D@std@@V?$allocator@D@2@@std@@@2@@property_tree@boost@@@std@@@2@@234@@detail@multi_index@boost@@@detail@multi_index@boost@@@012@0@Z
	??$?8UAetheryte@Data@Core@@@boost@@YA_NABV?$shared_ptr@UAetheryte@Data@Core@@@0@$$T@Z
	??$?8Udir_itr_imp@detail@filesystem@boost@@U0123@@boost@@YA_NABV?$shared_ptr@Udir_itr_imp@detail@filesystem@boost@@@0@0@Z
	??$?8V?$transform_iterator@U?$to_lowerF@D@detail@algorithm@boost@@V?$_String_const_iterator@V?$_String_val@U?$_Simple_types@D@std@@@std@@@std@@Uuse_default@iterators@4@U784@@iterators@boost@@DUrandom_access_traversal_tag@12@DHV012@DU312@DH@iterators@boost@@YA_NABV?$iterator_facade@V?$transform_iterator@U?$to_lowerF@D@detail@algorithm@boost@@V?$_String_const_iterator@V?$_String_val@U?$_Simple_types@D@std@@@std@@@std@@Uuse_default@iterators@4@U784@@iterators@boost@@DUrandom_access_traversal_tag@23@DH@01@0@Z
	??$?8VAction@0Core@@@boost@@YA_NABV?$shared_ptr@VAction@1Core@@@0@$$T@Z
	??$?8VActor@Entity@Core@@V012@@boost@@YA_NABV?$shared_ptr@VActor@Entity@Core@@@0@0@Z
	??$?8VItem@Core@@@boost@@YA_NABV?$shared_ptr@VItem@Core@@@0@$$T@Z
	??$?8VZone@Core@@@boost@@YA_NABV?$shared_ptr@VZone@Core@@@0@$$T@Z
	??$?8Vassoc_iterator@?$basic_ptree@V?$basic_string@DU?$char_traits@D@std@@V?$allocator@D@2@@std@@V12@U?$less@V?$basic_string@DU?$char_traits@D@std@@V?$allocator@D@2@@std@@@2@@property_tree@boost@@U?$pair@$$CBV?$basic_string@DU?$char_traits@D@std@@V?$allocator@D@2@@std@@V?$basic_ptree@V?$basic_string@DU?$char_traits@D@std@@V?$allocator@D@2@@std@@V12@U?$less@V?$basic_string@DU?$char_traits@D@std@@V?$allocator@D@2@@std@@@2@@property_tree@boost@@@std@@Ubidirectional_traversal_tag@iterators@3@AAU45@HV0123@U45@U673@AAU45@H@iterators@boost@@YA_NABV?$iterator_facade@Vassoc_iterator@?$basic_ptree@V?$basic_string@DU?$char_traits@D@std@@V?$allocator@D@2@@std@@V12@U?$less@V?$basic_string@DU?$char_traits@D@std@@V?$allocator@D@2@@std@@@2@@property_tree@boost@@U?$pair@$$CBV?$basic_string@DU?$char_traits@D@std@@V?$allocator@D@2@@std@@V?$basic_ptree@V?$basic_string@DU?$char_traits@D@std@@V?$allocator@D@2@@std@@V12@U?$less@V?$basic_string@DU?$char_traits@D@std@@V?$allocator@D@2@@std@@@2@@property_tree@boost@@@std@@Ubidirectional_traversal_tag@iterators@4@AAU56@H@01@0@Z
	??$?8Vconst_assoc_iterator@?$basic_ptree@V?$basic_string@DU?$char_traits@D@std@@V?$allocator@D@2@@std@@V12@U?$less@V?$basic_string@DU?$char_traits@D@std@@V?$allocator@D@2@@std@@@2@@property_tree@boost@@U?$pair@$$CBV?$basic_string@DU?$char_traits@D@std@@V?$allocator@D@2@@std@@V?$basic_ptree@V?$basic_string@DU?$char_traits@D@std@@V?$allocator@D@2@@std@@V12@U?$less@V?$basic_string@DU?$char_traits@D@std@@V?$allocator@D@2@@std@@@2@@property_tree@boost@@@std@@Ubidirectional_traversal_tag@iterators@3@ABU45@HV0123@U45@U673@ABU45@H@iterators@boost@@YA_NABV?$iterator_facade@Vconst_assoc_iterator@?$basic_ptree@V?$basic_string@DU?$char_traits@D@std@@V?$allocator@D@2@@std@@V12@U?$less@V?$basic_string@DU?$char_traits@D@std@@V?$allocator@D@2@@std@@@2@@property_tree@boost@@U?$pair@$$CBV?$basic_string@DU?$char_traits@D@std@@V?$allocator@D@2@@std@@V?$basic_ptree@V?$basic_string@DU?$char_traits@D@std@@V?$allocator@D@2@@std@@V12@U?$less@V?$basic_string@DU?$char_traits@D@std@@V?$allocator@D@2@@std@@@2@@property_tree@boost@@@std@@Ubidirectional_traversal_tag@iterators@4@ABU56@H@01@0@Z
	??$?8Vdirectory_iterator@filesystem@boost@@Vdirectory_entry@12@Usingle_pass_traversal_tag@iterators@2@AAV312@HV012@V312@U452@AAV312@H@iterators@boost@@YA_NABV?$iterator_facade@Vdirectory_iterator@filesystem@boost@@Vdirectory_entry@23@Usingle_pass_traversal_tag@iterators@3@AAV423@H@01@0@Z
	??$?9DD@std@@YA_NABV?$allocator@D@0@0@Z
	??$?9DU?$char_traits@D@std@@V?$allocator@D@1@@std@@YA_NABV?$basic_string@DU?$char_traits@D@std@@V?$allocator@D@2@@0@QBD@Z
	??$?9EE@std@@YA_NABV?$allocator@E@0@0@Z
	??$?9UQuestActive@Common@Core@@@boost@@YA_NABV?$shared_ptr@UQuestActive@Common@Core@@@0@$$T@Z
	??$?9V?$transform_iterator@U?$to_lowerF@D@detail@algorithm@boost@@V?$_String_const_iterator@V?$_String_val@U?$_Simple_types@D@std@@@std@@@std@@Uuse_default@iterators@4@U784@@iterators@boost@@DUrandom_access_traversal_tag@12@DHV012@DU312@DH@iterators@boost@@YA_NABV?$iterator_facade@V?$transform_iterator@U?$to_lowerF@D@detail@algorithm@boost@@V?$_String_const_iterator@V?$_String_val@U?$_Simple_types@D@std@@@std@@@std@@Uuse_default@iterators@4@U784@@iterators@boost@@DUrandom_access_traversal_tag@23@DH@01@0@Z
	??$?9VAction@0Core@@@boost@@YA_NABV?$shared_ptr@VAction@1Core@@@0@$$T@Z
	??$?9VEventHandler@Event@Core@@@boost@@YA_NABV?$shared_ptr@VEventHandler@Event@Core@@@0@$$T@Z
	??$?9VEventObject@Entity@Core@@@boost@@YA_NABV?$shared_ptr@VEventObject@Entity@Core@@@0@$$T@Z
	??$?9VSession@Core@@@boost@@YA_NABV?$shared_ptr@VSession@Core@@@0@$$T@Z
	??$?9VZone@Core@@V01@@boost@@YA_NABV?$shared_ptr@VZone@Core@@@0@0@Z
	??$?9VZonePosition@Core@@@boost@@YA_NABV?$shared_ptr@VZonePosition@Core@@@0@$$T@Z
	??$?9Vassoc_iterator@?$basic_ptree@V?$basic_string@DU?$char_traits@D@std@@V?$allocator@D@2@@std@@V12@U?$less@V?$basic_string@DU?$char_traits@D@std@@V?$allocator@D@2@@std@@@2@@property_tree@boost@@U?$pair@$$CBV?$basic_string@DU?$char_traits@D@std@@V?$allocator@D@2@@std@@V?$basic_ptree@V?$basic_string@DU?$char_traits@D@std@@V?$allocator@D@2@@std@@V12@U?$less@V?$basic_string@DU?$char_traits@D@std@@V?$allocator@D@2@@std@@@2@@property_tree@boost@@@std@@Ubidirectional_traversal_tag@iterators@3@AAU45@HV0123@U45@U673@AAU45@H@iterators@boost@@YA_NABV?$iterator_facade@Vassoc_iterator@?$basic_ptree@V?$basic_string@DU?$char_traits@D@std@@V?$allocator@D@2@@std@@V12@U?$less@V?$basic_string@DU?$char_traits@D@std@@V?$allocator@D@2@@std@@@2@@property_tree@boost@@U?$pair@$$CBV?$basic_string@DU?$char_traits@D@std@@V?$allocator@D@2@@std@@V?$basic_ptree@V?$basic_string@DU?$char_traits@D@std@@V?$allocator@D@2@@std@@V12@U?$less@V?$basic_string@DU?$char_traits@D@std@@V?$allocator@D@2@@std@@@2@@property_tree@boost@@@std@@Ubidirectional_traversal_tag@iterators@4@AAU56@H@01@0@Z
	??$?9Vdirectory_iterator@filesystem@boost@@Vdirectory_entry@12@Usingle_pass_traversal_tag@iterators@2@AAV312@HV012@V312@U452@AAV312@H@iterators@boost@@YA_NABV?$iterator_facade@Vdirectory_iterator@filesystem@boost@@Vdirectory_entry@23@Usingle_pass_traversal_tag@iterators@3@AAV423@H@01@0@Z
	??$?9Viterator@?$basic_ptree@V?$basic_string@DU?$char_traits@D@std@@V?$allocator@D@2@@std@@V12@U?$less@V?$basic_string@DU?$char_traits@D@std@@V?$allocator@D@2@@std@@@2@@property_tree@boost@@U?$pair@$$CBV?$basic_string@DU?$char_traits@D@std@@V?$allocator@D@2@@std@@V?$basic_ptree@V?$basic_string@DU?$char_traits@D@std@@V?$allocator@D@2@@std@@V12@U?$less@V?$basic_string@DU?$char_traits@D@std@@V?$allocator@D@2@@std@@@2@@property_tree@boost@@@std@@Ubidirectional_traversal_tag@iterators@3@AAU45@HV0123@U45@U673@AAU45@H@iterators@boost@@YA_NABV?$iterator_facade@Viterator@?$basic_ptree@V?$basic_string@DU?$char_traits@D@std@@V?$allocator@D@2@@std@@V12@U?$less@V?$basic_string@DU?$char_traits@D@std@@V?$allocator@D@2@@std@@@2@@property_tree@boost@@U?$pair@$$CBV?$basic_string@DU?$char_traits@D@std@@V?$allocator@D@2@@std@@V?$basic_ptree@V?$basic_string@DU?$char_traits@D@std@@V?$allocator@D@2@@std@@V12@U?$less@V?$basic_string@DU?$char_traits@D@std@@V?$allocator@D@2@@std@@@2@@property_tree@boost@@@std@@Ubidirectional_traversal_tag@iterators@4@AAU56@H@01@0@Z
	??$?9_W_W@std@@YA_NABV?$allocator@_W@0@0@Z
	??$?HDU?$char_traits@D@std@@V?$allocator@D@1@@std@@YA?AV?$basic_string@DU?$char_traits@D@std@@V?$allocator@D@2@@0@$$QAV10@0@Z
	??$?HDU?$char_traits@D@std@@V?$allocator@D@1@@std@@YA?AV?$basic_string@DU?$char_traits@D@std@@V?$allocator@D@2@@0@$$QAV10@ABV10@@Z
	??$?HDU?$char_traits@D@std@@V?$allocator@D@1@@std@@YA?AV?$basic_string@DU?$char_traits@D@std@@V?$allocator@D@2@@0@$$QAV10@QBD@Z
	??$?HDU?$char_traits@D@std@@V?$allocator@D@1@@std@@YA?AV?$basic_string@DU?$char_traits@D@std@@V?$allocator@D@2@@0@ABV10@QBD@Z
	??$?HDU?$char_traits@D@std@@V?$allocator@D@1@@std@@YA?AV?$basic_string@DU?$char_traits@D@std@@V?$allocator@D@2@@0@QBD$$QAV10@@Z
	??$?HDU?$char_traits@D@std@@V?$allocator@D@1@@std@@YA?AV?$basic_string@DU?$char_traits@D@std@@V?$allocator@D@2@@0@QBDABV10@@Z
	??$?LI@?$basic_format@DU?$char_traits@D@std@@V?$allocator@D@2@@boost@@QAEAAV01@ABI@Z
	??$?LPAPAVScriptObject@@@?$basic_format@DU?$char_traits@D@std@@V?$allocator@D@2@@boost@@QAEAAV01@ABQAPAVScriptObject@@@Z
	??$?LPAUHINSTANCE__@@@?$basic_format@DU?$char_traits@D@std@@V?$allocator@D@2@@boost@@QAEAAV01@ABQAUHINSTANCE__@@@Z
	??$?L_K@?$basic_format@DU?$char_traits@D@std@@V?$allocator@D@2@@boost@@QAEAAV01@AB_K@Z
	??$?MDU?$char_traits@D@std@@V?$allocator@D@1@@std@@YA_NABV?$basic_string@DU?$char_traits@D@std@@V?$allocator@D@2@@0@0@Z
	??$?MVActor@Entity@Core@@V012@@boost@@YA_NABV?$shared_ptr@VActor@Entity@Core@@@0@0@Z
	??$?MVPlayer@Entity@Core@@V012@@boost@@YA_NABV?$shared_ptr@VPlayer@Entity@Core@@@0@0@Z
	??$?MVSession@Core@@V01@@boost@@YA_NABV?$shared_ptr@VSession@Core@@@0@0@Z
	??$?MVZone@Core@@V01@@boost@@YA_NABV?$shared_ptr@VZone@Core@@@0@0@Z
	??$?M_JU?$ratio@$00$0DOI@@std@@_JU01@@chrono@std@@YA_NABV?$duration@_JU?$ratio@$00$0DOI@@std@@@01@0@Z
	??$?N_JU?$ratio@$00$0DOI@@std@@_JU01@@chrono@std@@YA_NABV?$duration@_JU?$ratio@$00$0DOI@@std@@@01@0@Z
	??$?R$$V@?$_Binder@U_Unforced@std@@P8Hive@Network@Core@@AEXXZPAV345@@std@@QAEXXZ
	??$?RAADAAD@?$less@X@std@@QBE_NAAD0@Z
	??$?RAAU?$copy_map_entry@U?$sequenced_index_node@U?$ordered_index_node@Unull_augment_policy@detail@multi_index@boost@@U?$index_node_base@U?$pair@$$CBV?$basic_string@DU?$char_traits@D@std@@V?$allocator@D@2@@std@@V?$basic_ptree@V?$basic_string@DU?$char_traits@D@std@@V?$allocator@D@2@@std@@V12@U?$less@V?$basic_string@DU?$char_traits@D@std@@V?$allocator@D@2@@std@@@2@@property_tree@boost@@@std@@V?$allocator@U?$pair@$$CBV?$basic_string@DU?$char_traits@D@std@@V?$allocator@D@2@@std@@V?$basic_ptree@V?$basic_string@DU?$char_traits@D@std@@V?$allocator@D@2@@std@@V12@U?$less@V?$basic_string@DU?$char_traits@D@std@@V?$allocator@D@2@@std@@@2@@property_tree@boost@@@std@@@2@@234@@detail@multi_index@boost@@@detail@multi_index@boost@@@detail@multi_index@boost@@AAU0123@@?$less@X@std@@QBE_NAAU?$copy_map_entry@U?$sequenced_index_node@U?$ordered_index_node@Unull_augment_policy@detail@multi_index@boost@@U?$index_node_base@U?$pair@$$CBV?$basic_string@DU?$char_traits@D@std@@V?$allocator@D@2@@std@@V?$basic_ptree@V?$basic_string@DU?$char_traits@D@std@@V?$allocator@D@2@@std@@V12@U?$less@V?$basic_string@DU?$char_traits@D@std@@V?$allocator@D@2@@std@@@2@@property_tree@boost@@@std@@V?$allocator@U?$pair@$$CBV?$basic_string@DU?$char_traits@D@std@@V?$allocator@D@2@@std@@V?$basic_ptree@V?$basic_string@DU?$char_traits@D@std@@V?$allocator@D@2@@std@@V12@U?$less@V?$basic_string@DU?$char_traits@D@std@@V?$allocator@D@2@@std@@@2@@property_tree@boost@@@std@@@2@@234@@detail@multi_index@boost@@@detail@multi_index@boost@@@detail@multi_index@boost@@0@Z
	??$?RABDABD@?$less@X@std@@QBE_NABD0@Z
	??$?RABIABI@?$less@X@std@@QBE_NABI0@Z
	??$?RABU?$copy_map_entry@U?$sequenced_index_node@U?$ordered_index_node@Unull_augment_policy@detail@multi_index@boost@@U?$index_node_base@U?$pair@$$CBV?$basic_string@DU?$char_traits@D@std@@V?$allocator@D@2@@std@@V?$basic_ptree@V?$basic_string@DU?$char_traits@D@std@@V?$allocator@D@2@@std@@V12@U?$less@V?$basic_string@DU?$char_traits@D@std@@V?$allocator@D@2@@std@@@2@@property_tree@boost@@@std@@V?$allocator@U?$pair@$$CBV?$basic_string@DU?$char_traits@D@std@@V?$allocator@D@2@@std@@V?$basic_ptree@V?$basic_string@DU?$char_traits@D@std@@V?$allocator@D@2@@std@@V12@U?$less@V?$basic_string@DU?$char_traits@D@std@@V?$allocator@D@2@@std@@@2@@property_tree@boost@@@std@@@2@@234@@detail@multi_index@boost@@@detail@multi_index@boost@@@detail@multi_index@boost@@ABU0123@@?$less@X@std@@QBE_NABU?$copy_map_entry@U?$sequenced_index_node@U?$ordered_index_node@Unull_augment_policy@detail@multi_index@boost@@U?$index_node_base@U?$pair@$$CBV?$basic_string@DU?$char_traits@D@std@@V?$allocator@D@2@@std@@V?$basic_ptree@V?$basic_string@DU?$char_traits@D@std@@V?$allocator@D@2@@std@@V12@U?$less@V?$basic_string@DU?$char_traits@D@std@@V?$allocator@D@2@@std@@@2@@property_tree@boost@@@std@@V?$allocator@U?$pair@$$CBV?$basic_string@DU?$char_traits@D@std@@V?$allocator@D@2@@std@@V?$basic_ptree@V?$basic_string@DU?$char_traits@D@std@@V?$allocator@D@2@@std@@V12@U?$less@V?$basic_string@DU?$char_traits@D@std@@V?$allocator@D@2@@std@@@2@@property_tree@boost@@@std@@@2@@234@@detail@multi_index@boost@@@detail@multi_index@boost@@@detail@multi_index@boost@@0@Z
	??$?RAB_JAB_J@?$less@X@std@@QBE_NAB_J0@Z
	??$?RC@?$get_visitor@E@variant@detail@boost@@QBEPAEABC@Z
	??$?RC@?$get_visitor@H@variant@detail@boost@@QBEPAHABC@Z
	??$?RD@?$is_any_ofF@D@detail@algorithm@boost@@QBE_ND@Z
	??$?RDD@is_equal@algorithm@boost@@QBE_NABD0@Z
	??$?RDD@is_iequal@algorithm@boost@@QBE_NABD0@Z
	??$?RE@?$get_visitor@H@variant@detail@boost@@QBEPAHABE@Z
	??$?RF@?$get_visitor@E@variant@detail@boost@@QBEPAEABF@Z
	??$?RF@?$get_visitor@H@variant@detail@boost@@QBEPAHABF@Z
	??$?RG@?$get_visitor@E@variant@detail@boost@@QBEPAEABG@Z
	??$?RG@?$get_visitor@H@variant@detail@boost@@QBEPAHABG@Z
	??$?RH@?$get_visitor@E@variant@detail@boost@@QBEPAEABH@Z
	??$?RI@?$get_visitor@E@variant@detail@boost@@QBEPAEABI@Z
	??$?RI@?$get_visitor@H@variant@detail@boost@@QBEPAHABI@Z
	??$?RM@?$get_visitor@E@variant@detail@boost@@QBEPAEABM@Z
	??$?RM@?$get_visitor@H@variant@detail@boost@@QBEPAHABM@Z
	??$?RPAV?$basic_altstringbuf@DU?$char_traits@D@std@@V?$allocator@D@2@@io@boost@@@No_Op@?$basic_oaltstringstream@DU?$char_traits@D@std@@V?$allocator@D@2@@io@boost@@QAEABQAV?$basic_altstringbuf@DU?$char_traits@D@std@@V?$allocator@D@2@@23@ABQAV423@@Z
	??$?RV?$_String_iterator@V?$_String_val@U?$_Simple_types@D@std@@@std@@@std@@@?$first_finderF@PBDUis_equal@algorithm@boost@@@detail@algorithm@boost@@QBE?AV?$iterator_range@V?$_String_iterator@V?$_String_val@U?$_Simple_types@D@std@@@std@@@std@@@3@V?$_String_iterator@V?$_String_val@U?$_Simple_types@D@std@@@std@@@std@@0@Z
	??$?RV?$basic_string@DU?$char_traits@D@std@@V?$allocator@D@2@@std@@@?$get_visitor@E@variant@detail@boost@@QBEPAEABV?$basic_string@DU?$char_traits@D@std@@V?$allocator@D@2@@std@@@Z
	??$?RV?$basic_string@DU?$char_traits@D@std@@V?$allocator@D@2@@std@@@?$get_visitor@H@variant@detail@boost@@QBEPAHABV?$basic_string@DU?$char_traits@D@std@@V?$allocator@D@2@@std@@@Z
	??$?RV?$deque@DV?$allocator@D@std@@@std@@V?$basic_string@DU?$char_traits@D@std@@V?$allocator@D@2@@1@V?$_String_iterator@V?$_String_val@U?$_Simple_types@D@std@@@std@@@1@@?$process_segment_helper@$0A@@detail@algorithm@boost@@QAE?AV?$_String_iterator@V?$_String_val@U?$_Simple_types@D@std@@@std@@@std@@AAV?$deque@DV?$allocator@D@std@@@5@AAV?$basic_string@DU?$char_traits@D@std@@V?$allocator@D@2@@5@V45@22@Z
	??$?RV?$iterator_range@V?$_String_iterator@V?$_String_val@U?$_Simple_types@D@std@@@std@@@std@@@boost@@@?$empty_formatF@D@detail@algorithm@boost@@QBE?AU?$empty_container@D@123@ABV?$iterator_range@V?$_String_iterator@V?$_String_val@U?$_Simple_types@D@std@@@std@@@std@@@3@@Z
	??$?R_K@?$get_visitor@E@variant@detail@boost@@QBEPAEAB_K@Z
	??$?R_K@?$get_visitor@H@variant@detail@boost@@QBEPAHAB_K@Z
	??$?R_N@?$get_visitor@E@variant@detail@boost@@QBEPAEAB_N@Z
	??$?R_N@?$get_visitor@H@variant@detail@boost@@QBEPAHAB_N@Z
	??$?_0V?$basic_string@DU?$char_traits@D@std@@V?$allocator@D@2@@std@@@path@filesystem@boost@@QAEAAV012@ABV?$basic_string@DU?$char_traits@D@std@@V?$allocator@D@2@@std@@@Z
	??$_Advance1@PAEH@std@@YAXAAPAEHUrandom_access_iterator_tag@0@@Z
	??$_Advance1@PAV?$_List_unchecked_iterator@V?$_List_val@U?$_List_simple_types@U?$pair@$$CBIV?$shared_ptr@VZone@Core@@@boost@@@std@@@std@@@std@@@std@@H@std@@YAXAAPAV?$_List_unchecked_iterator@V?$_List_val@U?$_List_simple_types@U?$pair@$$CBIV?$shared_ptr@VZone@Core@@@boost@@@std@@@std@@@std@@@0@HUrandom_access_iterator_tag@0@@Z
	??$_Advance1@PBDH@std@@YAXAAPBDHUrandom_access_iterator_tag@0@@Z
	??$_Advance1@PBU?$copy_map_entry@U?$sequenced_index_node@U?$ordered_index_node@Unull_augment_policy@detail@multi_index@boost@@U?$index_node_base@U?$pair@$$CBV?$basic_string@DU?$char_traits@D@std@@V?$allocator@D@2@@std@@V?$basic_ptree@V?$basic_string@DU?$char_traits@D@std@@V?$allocator@D@2@@std@@V12@U?$less@V?$basic_string@DU?$char_traits@D@std@@V?$allocator@D@2@@std@@@2@@property_tree@boost@@@std@@V?$allocator@U?$pair@$$CBV?$basic_string@DU?$char_traits@D@std@@V?$allocator@D@2@@std@@V?$basic_ptree@V?$basic_string@DU?$char_traits@D@std@@V?$allocator@D@2@@std@@V12@U?$less@V?$basic_string@DU?$char_traits@D@std@@V?$allocator@D@2@@std@@@2@@property_tree@boost@@@std@@@2@@234@@detail@multi_index@boost@@@detail@multi_index@boost@@@detail@multi_index@boost@@H@std@@YAXAAPBU?$copy_map_entry@U?$sequenced_index_node@U?$ordered_index_node@Unull_augment_policy@detail@multi_index@boost@@U?$index_node_base@U?$pair@$$CBV?$basic_string@DU?$char_traits@D@std@@V?$allocator@D@2@@std@@V?$basic_ptree@V?$basic_string@DU?$char_traits@D@std@@V?$allocator@D@2@@std@@V12@U?$less@V?$basic_string@DU?$char_traits@D@std@@V?$allocator@D@2@@std@@@2@@property_tree@boost@@@std@@V?$allocator@U?$pair@$$CBV?$basic_string@DU?$char_traits@D@std@@V?$allocator@D@2@@std@@V?$basic_ptree@V?$basic_string@DU?$char_traits@D@std@@V?$allocator@D@2@@std@@V12@U?$less@V?$basic_string@DU?$char_traits@D@std@@V?$allocator@D@2@@std@@@2@@property_tree@boost@@@std@@@2@@234@@detail@multi_index@boost@@@detail@multi_index@boost@@@detail@multi_index@boost@@HUrandom_access_iterator_tag@0@@Z
	??$_Advance1@V?$_String_iterator@V?$_String_val@U?$_Simple_types@D@std@@@std@@@std@@H@std@@YAXAAV?$_String_iterator@V?$_String_val@U?$_Simple_types@D@std@@@std@@@0@HUrandom_access_iterator_tag@0@@Z
	??$_Assign_range@PAE@?$vector@EV?$allocator@E@std@@@std@@AAEXPAE0Uforward_iterator_tag@1@@Z
	??$_Assign_range@PAV?$_List_unchecked_iterator@V?$_List_val@U?$_List_simple_types@U?$pair@$$CBIV?$shared_ptr@VZone@Core@@@boost@@@std@@@std@@@std@@@std@@@?$vector@V?$_List_unchecked_iterator@V?$_List_val@U?$_List_simple_types@U?$pair@$$CBIV?$shared_ptr@VZone@Core@@@boost@@@std@@@std@@@std@@@std@@V?$allocator@V?$_List_unchecked_iterator@V?$_List_val@U?$_List_simple_types@U?$pair@$$CBIV?$shared_ptr@VZone@Core@@@boost@@@std@@@std@@@std@@@std@@@2@@std@@AAEXPAV?$_List_unchecked_iterator@V?$_List_val@U?$_List_simple_types@U?$pair@$$CBIV?$shared_ptr@VZone@Core@@@boost@@@std@@@std@@@std@@@1@0Uforward_iterator_tag@1@@Z
	??$_Binary_search_unchecked@PBDDU?$less@X@std@@@std@@YA_NPBD0ABDAAU?$less@X@0@@Z
	??$_Buynode@AAI@?$_Tree_comp_alloc@V?$_Tset_traits@IU?$less@I@std@@V?$allocator@I@2@$0A@@std@@@std@@QAEPAU?$_Tree_node@IPAX@1@AAI@Z
	??$_Buynode@AAU?$pair@$$CBEV?$shared_ptr@VItem@Core@@@boost@@@std@@@?$_Tree_comp_alloc@V?$_Tmap_traits@EV?$shared_ptr@VItem@Core@@@boost@@U?$less@E@std@@V?$allocator@U?$pair@$$CBEV?$shared_ptr@VItem@Core@@@boost@@@std@@@4@$0A@@std@@@std@@QAEPAU?$_Tree_node@U?$pair@$$CBEV?$shared_ptr@VItem@Core@@@boost@@@std@@PAX@1@AAU?$pair@$$CBEV?$shared_ptr@VItem@Core@@@boost@@@1@@Z
	??$_Buynode@AAU?$pair@$$CBEV?$shared_ptr@VStatusEffect@1Core@@@boost@@@std@@@?$_Tree_comp_alloc@V?$_Tmap_traits@EV?$shared_ptr@VStatusEffect@1Core@@@boost@@U?$less@E@std@@V?$allocator@U?$pair@$$CBEV?$shared_ptr@VStatusEffect@1Core@@@boost@@@std@@@4@$0A@@std@@@std@@QAEPAU?$_Tree_node@U?$pair@$$CBEV?$shared_ptr@VStatusEffect@1Core@@@boost@@@std@@PAX@1@AAU?$pair@$$CBEV?$shared_ptr@VStatusEffect@1Core@@@boost@@@1@@Z
	??$_Buynode@AAU?$pair@$$CBIV?$shared_ptr@VEventHandler@Event@Core@@@boost@@@std@@@?$_Tree_comp_alloc@V?$_Tmap_traits@IV?$shared_ptr@VEventHandler@Event@Core@@@boost@@U?$less@I@std@@V?$allocator@U?$pair@$$CBIV?$shared_ptr@VEventHandler@Event@Core@@@boost@@@std@@@4@$0A@@std@@@std@@QAEPAU?$_Tree_node@U?$pair@$$CBIV?$shared_ptr@VEventHandler@Event@Core@@@boost@@@std@@PAX@1@AAU?$pair@$$CBIV?$shared_ptr@VEventHandler@Event@Core@@@boost@@@1@@Z
	??$_Buynode@AAV?$shared_ptr@VActor@Entity@Core@@@boost@@@?$_Tree_comp_alloc@V?$_Tset_traits@V?$shared_ptr@VActor@Entity@Core@@@boost@@U?$less@V?$shared_ptr@VActor@Entity@Core@@@boost@@@std@@V?$allocator@V?$shared_ptr@VActor@Entity@Core@@@boost@@@4@$0A@@std@@@std@@QAEPAU?$_Tree_node@V?$shared_ptr@VActor@Entity@Core@@@boost@@PAX@1@AAV?$shared_ptr@VActor@Entity@Core@@@boost@@@Z
	??$_Buynode@AA_K@?$_Tree_comp_alloc@V?$_Tset_traits@_KU?$less@_K@std@@V?$allocator@_K@2@$0A@@std@@@std@@QAEPAU?$_Tree_node@_KPAX@1@AA_K@Z
	??$_Buynode@ABI@?$_Tree_comp_alloc@V?$_Tset_traits@IU?$less@I@std@@V?$allocator@I@2@$0A@@std@@@std@@QAEPAU?$_Tree_node@IPAX@1@ABI@Z
	??$_Buynode@ABQAVScriptInfo@Scripting@Core@@@?$_Tree_comp_alloc@V?$_Tset_traits@PAVScriptInfo@Scripting@Core@@U?$less@PAVScriptInfo@Scripting@Core@@@std@@V?$allocator@PAVScriptInfo@Scripting@Core@@@5@$0A@@std@@@std@@QAEPAU?$_Tree_node@PAVScriptInfo@Scripting@Core@@PAX@1@ABQAVScriptInfo@Scripting@Core@@@Z
	??$_Buynode@ABU?$pair@$$CBIV?$shared_ptr@VZone@Core@@@boost@@@std@@@?$_List_buy@U?$pair@$$CBIV?$shared_ptr@VZone@Core@@@boost@@@std@@V?$allocator@U?$pair@$$CBIV?$shared_ptr@VZone@Core@@@boost@@@std@@@2@@std@@QAEPAU?$_List_node@U?$pair@$$CBIV?$shared_ptr@VZone@Core@@@boost@@@std@@PAX@1@PAU21@0ABU?$pair@$$CBIV?$shared_ptr@VZone@Core@@@boost@@@1@@Z
	??$_Buynode@ABUpiecewise_construct_t@std@@V?$tuple@$$QAE@2@V?$tuple@$$V@2@@?$_Tree_comp_alloc@V?$_Tmap_traits@EV?$shared_ptr@VItem@Core@@@boost@@U?$less@E@std@@V?$allocator@U?$pair@$$CBEV?$shared_ptr@VItem@Core@@@boost@@@std@@@4@$0A@@std@@@std@@QAEPAU?$_Tree_node@U?$pair@$$CBEV?$shared_ptr@VItem@Core@@@boost@@@std@@PAX@1@ABUpiecewise_construct_t@1@$$QAV?$tuple@$$QAE@1@$$QAV?$tuple@$$V@1@@Z
	??$_Buynode@ABUpiecewise_construct_t@std@@V?$tuple@$$QAG@2@V?$tuple@$$V@2@@?$_List_buy@U?$pair@$$CBGV?$unordered_map@IV?$shared_ptr@VZone@Core@@@boost@@U?$hash@I@std@@U?$equal_to@I@4@V?$allocator@U?$pair@$$CBIV?$shared_ptr@VZone@Core@@@boost@@@std@@@4@@std@@@std@@V?$allocator@U?$pair@$$CBGV?$unordered_map@IV?$shared_ptr@VZone@Core@@@boost@@U?$hash@I@std@@U?$equal_to@I@4@V?$allocator@U?$pair@$$CBIV?$shared_ptr@VZone@Core@@@boost@@@std@@@4@@std@@@std@@@2@@std@@QAEPAU?$_List_node@U?$pair@$$CBGV?$unordered_map@IV?$shared_ptr@VZone@Core@@@boost@@U?$hash@I@std@@U?$equal_to@I@4@V?$allocator@U?$pair@$$CBIV?$shared_ptr@VZone@Core@@@boost@@@std@@@4@@std@@@std@@PAX@1@PAU21@0ABUpiecewise_construct_t@1@$$QAV?$tuple@$$QAG@1@$$QAV?$tuple@$$V@1@@Z
	??$_Buynode@ABUpiecewise_construct_t@std@@V?$tuple@$$QAG@2@V?$tuple@$$V@2@@?$_Tree_comp_alloc@V?$_Tmap_traits@GV?$shared_ptr@VItemContainer@Core@@@boost@@U?$less@G@std@@V?$allocator@U?$pair@$$CBGV?$shared_ptr@VItemContainer@Core@@@boost@@@std@@@4@$0A@@std@@@std@@QAEPAU?$_Tree_node@U?$pair@$$CBGV?$shared_ptr@VItemContainer@Core@@@boost@@@std@@PAX@1@ABUpiecewise_construct_t@1@$$QAV?$tuple@$$QAG@1@$$QAV?$tuple@$$V@1@@Z
	??$_Buynode@ABUpiecewise_construct_t@std@@V?$tuple@$$QAH@2@V?$tuple@$$V@2@@?$_List_buy@U?$pair@$$CBHV?$shared_ptr@VEventObject@Entity@Core@@@boost@@@std@@V?$allocator@U?$pair@$$CBHV?$shared_ptr@VEventObject@Entity@Core@@@boost@@@std@@@2@@std@@QAEPAU?$_List_node@U?$pair@$$CBHV?$shared_ptr@VEventObject@Entity@Core@@@boost@@@std@@PAX@1@PAU21@0ABUpiecewise_construct_t@1@$$QAV?$tuple@$$QAH@1@$$QAV?$tuple@$$V@1@@Z
	??$_Buynode@ABUpiecewise_construct_t@std@@V?$tuple@$$QAH@2@V?$tuple@$$V@2@@?$_List_buy@U?$pair@$$CBHV?$shared_ptr@VPlayer@Entity@Core@@@boost@@@std@@V?$allocator@U?$pair@$$CBHV?$shared_ptr@VPlayer@Entity@Core@@@boost@@@std@@@2@@std@@QAEPAU?$_List_node@U?$pair@$$CBHV?$shared_ptr@VPlayer@Entity@Core@@@boost@@@std@@PAX@1@PAU21@0ABUpiecewise_construct_t@1@$$QAV?$tuple@$$QAH@1@$$QAV?$tuple@$$V@1@@Z
	??$_Buynode@ABUpiecewise_construct_t@std@@V?$tuple@$$QAI@2@V?$tuple@$$V@2@@?$_List_buy@U?$pair@$$CBII@std@@V?$allocator@U?$pair@$$CBII@std@@@2@@std@@QAEPAU?$_List_node@U?$pair@$$CBII@std@@PAX@1@PAU21@0ABUpiecewise_construct_t@1@$$QAV?$tuple@$$QAI@1@$$QAV?$tuple@$$V@1@@Z
	??$_Buynode@ABUpiecewise_construct_t@std@@V?$tuple@$$QAI@2@V?$tuple@$$V@2@@?$_List_buy@U?$pair@$$CBIPAVScriptObject@@@std@@V?$allocator@U?$pair@$$CBIPAVScriptObject@@@std@@@2@@std@@QAEPAU?$_List_node@U?$pair@$$CBIPAVScriptObject@@@std@@PAX@1@PAU21@0ABUpiecewise_construct_t@1@$$QAV?$tuple@$$QAI@1@$$QAV?$tuple@$$V@1@@Z
	??$_Buynode@ABUpiecewise_construct_t@std@@V?$tuple@$$QAI@2@V?$tuple@$$V@2@@?$_List_buy@U?$pair@$$CBIV?$shared_ptr@VZone@Core@@@boost@@@std@@V?$allocator@U?$pair@$$CBIV?$shared_ptr@VZone@Core@@@boost@@@std@@@2@@std@@QAEPAU?$_List_node@U?$pair@$$CBIV?$shared_ptr@VZone@Core@@@boost@@@std@@PAX@1@PAU21@0ABUpiecewise_construct_t@1@$$QAV?$tuple@$$QAI@1@$$QAV?$tuple@$$V@1@@Z
	??$_Buynode@ABUpiecewise_construct_t@std@@V?$tuple@$$QAI@2@V?$tuple@$$V@2@@?$_List_buy@U?$pair@$$CBIV?$unordered_map@IPAVScriptObject@@U?$hash@I@std@@U?$equal_to@I@3@V?$allocator@U?$pair@$$CBIPAVScriptObject@@@std@@@3@@std@@@std@@V?$allocator@U?$pair@$$CBIV?$unordered_map@IPAVScriptObject@@U?$hash@I@std@@U?$equal_to@I@3@V?$allocator@U?$pair@$$CBIPAVScriptObject@@@std@@@3@@std@@@std@@@2@@std@@QAEPAU?$_List_node@U?$pair@$$CBIV?$unordered_map@IPAVScriptObject@@U?$hash@I@std@@U?$equal_to@I@3@V?$allocator@U?$pair@$$CBIPAVScriptObject@@@std@@@3@@std@@@std@@PAX@1@PAU21@0ABUpiecewise_construct_t@1@$$QAV?$tuple@$$QAI@1@$$QAV?$tuple@$$V@1@@Z
	??$_Buynode@ABUpiecewise_construct_t@std@@V?$tuple@$$QAI@2@V?$tuple@$$V@2@@?$_Tree_comp_alloc@V?$_Tmap_traits@IV?$shared_ptr@VEventHandler@Event@Core@@@boost@@U?$less@I@std@@V?$allocator@U?$pair@$$CBIV?$shared_ptr@VEventHandler@Event@Core@@@boost@@@std@@@4@$0A@@std@@@std@@QAEPAU?$_Tree_node@U?$pair@$$CBIV?$shared_ptr@VEventHandler@Event@Core@@@boost@@@std@@PAX@1@ABUpiecewise_construct_t@1@$$QAV?$tuple@$$QAI@1@$$QAV?$tuple@$$V@1@@Z
	??$_Buynode@ABUpiecewise_construct_t@std@@V?$tuple@$$QAV?$basic_string@DU?$char_traits@D@std@@V?$allocator@D@2@@std@@@2@V?$tuple@$$V@2@@?$_Tree_comp_alloc@V?$_Tmap_traits@V?$basic_string@DU?$char_traits@D@std@@V?$allocator@D@2@@std@@V?$shared_ptr@VDebugCommand@Core@@@boost@@U?$less@V?$basic_string@DU?$char_traits@D@std@@V?$allocator@D@2@@std@@@2@V?$allocator@U?$pair@$$CBV?$basic_string@DU?$char_traits@D@std@@V?$allocator@D@2@@std@@V?$shared_ptr@VDebugCommand@Core@@@boost@@@std@@@2@$0A@@std@@@std@@QAEPAU?$_Tree_node@U?$pair@$$CBV?$basic_string@DU?$char_traits@D@std@@V?$allocator@D@2@@std@@V?$shared_ptr@VDebugCommand@Core@@@boost@@@std@@PAX@1@ABUpiecewise_construct_t@1@$$QAV?$tuple@$$QAV?$basic_string@DU?$char_traits@D@std@@V?$allocator@D@2@@std@@@1@$$QAV?$tuple@$$V@1@@Z
	??$_Buynode@ABUpiecewise_construct_t@std@@V?$tuple@$$QAV?$basic_string@DU?$char_traits@D@std@@V?$allocator@D@2@@std@@@2@V?$tuple@$$V@2@@?$_Tree_comp_alloc@V?$_Tmap_traits@V?$basic_string@DU?$char_traits@D@std@@V?$allocator@D@2@@std@@V?$shared_ptr@VSession@Core@@@boost@@U?$less@V?$basic_string@DU?$char_traits@D@std@@V?$allocator@D@2@@std@@@2@V?$allocator@U?$pair@$$CBV?$basic_string@DU?$char_traits@D@std@@V?$allocator@D@2@@std@@V?$shared_ptr@VSession@Core@@@boost@@@std@@@2@$0A@@std@@@std@@QAEPAU?$_Tree_node@U?$pair@$$CBV?$basic_string@DU?$char_traits@D@std@@V?$allocator@D@2@@std@@V?$shared_ptr@VSession@Core@@@boost@@@std@@PAX@1@ABUpiecewise_construct_t@1@$$QAV?$tuple@$$QAV?$basic_string@DU?$char_traits@D@std@@V?$allocator@D@2@@std@@@1@$$QAV?$tuple@$$V@1@@Z
	??$_Buynode@ABUpiecewise_construct_t@std@@V?$tuple@$$QAVtype_index@std@@@2@V?$tuple@$$V@2@@?$_Tree_comp_alloc@V?$_Tmap_traits@Vtype_index@std@@V?$shared_ptr@X@boost@@U?$less@Vtype_index@std@@@2@V?$allocator@U?$pair@$$CBVtype_index@std@@V?$shared_ptr@X@boost@@@std@@@2@$0A@@std@@@std@@QAEPAU?$_Tree_node@U?$pair@$$CBVtype_index@std@@V?$shared_ptr@X@boost@@@std@@PAX@1@ABUpiecewise_construct_t@1@$$QAV?$tuple@$$QAVtype_index@std@@@1@$$QAV?$tuple@$$V@1@@Z
	??$_Buynode@ABUpiecewise_construct_t@std@@V?$tuple@ABE@2@V?$tuple@$$V@2@@?$_Tree_comp_alloc@V?$_Tmap_traits@EHU?$less@E@std@@V?$allocator@U?$pair@$$CBEH@std@@@2@$0A@@std@@@std@@QAEPAU?$_Tree_node@U?$pair@$$CBEH@std@@PAX@1@ABUpiecewise_construct_t@1@$$QAV?$tuple@ABE@1@$$QAV?$tuple@$$V@1@@Z
	??$_Buynode@ABUpiecewise_construct_t@std@@V?$tuple@ABE@2@V?$tuple@$$V@2@@?$_Tree_comp_alloc@V?$_Tmap_traits@EIU?$less@E@std@@V?$allocator@U?$pair@$$CBEI@std@@@2@$0A@@std@@@std@@QAEPAU?$_Tree_node@U?$pair@$$CBEI@std@@PAX@1@ABUpiecewise_construct_t@1@$$QAV?$tuple@ABE@1@$$QAV?$tuple@$$V@1@@Z
	??$_Buynode@ABUpiecewise_construct_t@std@@V?$tuple@ABE@2@V?$tuple@$$V@2@@?$_Tree_comp_alloc@V?$_Tmap_traits@EV?$shared_ptr@VItem@Core@@@boost@@U?$less@E@std@@V?$allocator@U?$pair@$$CBEV?$shared_ptr@VItem@Core@@@boost@@@std@@@4@$0A@@std@@@std@@QAEPAU?$_Tree_node@U?$pair@$$CBEV?$shared_ptr@VItem@Core@@@boost@@@std@@PAX@1@ABUpiecewise_construct_t@1@$$QAV?$tuple@ABE@1@$$QAV?$tuple@$$V@1@@Z
	??$_Buynode@ABUpiecewise_construct_t@std@@V?$tuple@ABE@2@V?$tuple@$$V@2@@?$_Tree_comp_alloc@V?$_Tmap_traits@EV?$shared_ptr@VStatusEffect@1Core@@@boost@@U?$less@E@std@@V?$allocator@U?$pair@$$CBEV?$shared_ptr@VStatusEffect@1Core@@@boost@@@std@@@4@$0A@@std@@@std@@QAEPAU?$_Tree_node@U?$pair@$$CBEV?$shared_ptr@VStatusEffect@1Core@@@boost@@@std@@PAX@1@ABUpiecewise_construct_t@1@$$QAV?$tuple@ABE@1@$$QAV?$tuple@$$V@1@@Z
	??$_Buynode@ABUpiecewise_construct_t@std@@V?$tuple@ABG@2@V?$tuple@$$V@2@@?$_List_buy@U?$pair@$$CBGV?$shared_ptr@UTerritoryType@Data@Core@@@boost@@@std@@V?$allocator@U?$pair@$$CBGV?$shared_ptr@UTerritoryType@Data@Core@@@boost@@@std@@@2@@std@@QAEPAU?$_List_node@U?$pair@$$CBGV?$shared_ptr@UTerritoryType@Data@Core@@@boost@@@std@@PAX@1@PAU21@0ABUpiecewise_construct_t@1@$$QAV?$tuple@ABG@1@$$QAV?$tuple@$$V@1@@Z
	??$_Buynode@ABUpiecewise_construct_t@std@@V?$tuple@ABG@2@V?$tuple@$$V@2@@?$_List_buy@U?$pair@$$CBGV?$unordered_map@IV?$shared_ptr@VZone@Core@@@boost@@U?$hash@I@std@@U?$equal_to@I@4@V?$allocator@U?$pair@$$CBIV?$shared_ptr@VZone@Core@@@boost@@@std@@@4@@std@@@std@@V?$allocator@U?$pair@$$CBGV?$unordered_map@IV?$shared_ptr@VZone@Core@@@boost@@U?$hash@I@std@@U?$equal_to@I@4@V?$allocator@U?$pair@$$CBIV?$shared_ptr@VZone@Core@@@boost@@@std@@@4@@std@@@std@@@2@@std@@QAEPAU?$_List_node@U?$pair@$$CBGV?$unordered_map@IV?$shared_ptr@VZone@Core@@@boost@@U?$hash@I@std@@U?$equal_to@I@4@V?$allocator@U?$pair@$$CBIV?$shared_ptr@VZone@Core@@@boost@@@std@@@4@@std@@@std@@PAX@1@PAU21@0ABUpiecewise_construct_t@1@$$QAV?$tuple@ABG@1@$$QAV?$tuple@$$V@1@@Z
	??$_Buynode@ABUpiecewise_construct_t@std@@V?$tuple@ABG@2@V?$tuple@$$V@2@@?$_Tree_comp_alloc@V?$_Tmap_traits@GP8GameConnection@Network@Core@@AEXABVGamePacket@Packets@23@AAVPlayer@Entity@3@@ZU?$less@G@std@@V?$allocator@U?$pair@$$CBGP8GameConnection@Network@Core@@AEXABVGamePacket@Packets@23@AAVPlayer@Entity@3@@Z@std@@@9@$0A@@std@@@std@@QAEPAU?$_Tree_node@U?$pair@$$CBGP8GameConnection@Network@Core@@AEXABVGamePacket@Packets@23@AAVPlayer@Entity@3@@Z@std@@PAX@1@ABUpiecewise_construct_t@1@$$QAV?$tuple@ABG@1@$$QAV?$tuple@$$V@1@@Z
	??$_Buynode@ABUpiecewise_construct_t@std@@V?$tuple@ABG@2@V?$tuple@$$V@2@@?$_Tree_comp_alloc@V?$_Tmap_traits@GV?$basic_string@DU?$char_traits@D@std@@V?$allocator@D@2@@std@@U?$less@G@2@V?$allocator@U?$pair@$$CBGV?$basic_string@DU?$char_traits@D@std@@V?$allocator@D@2@@std@@@std@@@2@$0A@@std@@@std@@QAEPAU?$_Tree_node@U?$pair@$$CBGV?$basic_string@DU?$char_traits@D@std@@V?$allocator@D@2@@std@@@std@@PAX@1@ABUpiecewise_construct_t@1@$$QAV?$tuple@ABG@1@$$QAV?$tuple@$$V@1@@Z
	??$_Buynode@ABUpiecewise_construct_t@std@@V?$tuple@ABG@2@V?$tuple@$$V@2@@?$_Tree_comp_alloc@V?$_Tmap_traits@GV?$shared_ptr@VItemContainer@Core@@@boost@@U?$less@G@std@@V?$allocator@U?$pair@$$CBGV?$shared_ptr@VItemContainer@Core@@@boost@@@std@@@4@$0A@@std@@@std@@QAEPAU?$_Tree_node@U?$pair@$$CBGV?$shared_ptr@VItemContainer@Core@@@boost@@@std@@PAX@1@ABUpiecewise_construct_t@1@$$QAV?$tuple@ABG@1@$$QAV?$tuple@$$V@1@@Z
	??$_Buynode@ABUpiecewise_construct_t@std@@V?$tuple@ABH@2@V?$tuple@$$V@2@@?$_List_buy@U?$pair@$$CBHV?$shared_ptr@VZonePosition@Core@@@boost@@@std@@V?$allocator@U?$pair@$$CBHV?$shared_ptr@VZonePosition@Core@@@boost@@@std@@@2@@std@@QAEPAU?$_List_node@U?$pair@$$CBHV?$shared_ptr@VZonePosition@Core@@@boost@@@std@@PAX@1@PAU21@0ABUpiecewise_construct_t@1@$$QAV?$tuple@ABH@1@$$QAV?$tuple@$$V@1@@Z
	??$_Buynode@ABUpiecewise_construct_t@std@@V?$tuple@ABI@2@V?$tuple@$$V@2@@?$_List_buy@U?$pair@$$CBIE@std@@V?$allocator@U?$pair@$$CBIE@std@@@2@@std@@QAEPAU?$_List_node@U?$pair@$$CBIE@std@@PAX@1@PAU21@0ABUpiecewise_construct_t@1@$$QAV?$tuple@ABI@1@$$QAV?$tuple@$$V@1@@Z
	??$_Buynode@ABUpiecewise_construct_t@std@@V?$tuple@ABI@2@V?$tuple@$$V@2@@?$_List_buy@U?$pair@$$CBIV?$shared_ptr@VEventObject@Entity@Core@@@boost@@@std@@V?$allocator@U?$pair@$$CBIV?$shared_ptr@VEventObject@Entity@Core@@@boost@@@std@@@2@@std@@QAEPAU?$_List_node@U?$pair@$$CBIV?$shared_ptr@VEventObject@Entity@Core@@@boost@@@std@@PAX@1@PAU21@0ABUpiecewise_construct_t@1@$$QAV?$tuple@ABI@1@$$QAV?$tuple@$$V@1@@Z
	??$_Buynode@ABUpiecewise_construct_t@std@@V?$tuple@ABI@2@V?$tuple@$$V@2@@?$_List_buy@U?$pair@$$CBIV?$shared_ptr@VZone@Core@@@boost@@@std@@V?$allocator@U?$pair@$$CBIV?$shared_ptr@VZone@Core@@@boost@@@std@@@2@@std@@QAEPAU?$_List_node@U?$pair@$$CBIV?$shared_ptr@VZone@Core@@@boost@@@std@@PAX@1@PAU21@0ABUpiecewise_construct_t@1@$$QAV?$tuple@ABI@1@$$QAV?$tuple@$$V@1@@Z
	??$_Buynode@ABUpiecewise_construct_t@std@@V?$tuple@ABI@2@V?$tuple@$$V@2@@?$_List_buy@U?$pair@$$CBIV?$unordered_map@IPAVScriptObject@@U?$hash@I@std@@U?$equal_to@I@3@V?$allocator@U?$pair@$$CBIPAVScriptObject@@@std@@@3@@std@@@std@@V?$allocator@U?$pair@$$CBIV?$unordered_map@IPAVScriptObject@@U?$hash@I@std@@U?$equal_to@I@3@V?$allocator@U?$pair@$$CBIPAVScriptObject@@@std@@@3@@std@@@std@@@2@@std@@QAEPAU?$_List_node@U?$pair@$$CBIV?$unordered_map@IPAVScriptObject@@U?$hash@I@std@@U?$equal_to@I@3@V?$allocator@U?$pair@$$CBIPAVScriptObject@@@std@@@3@@std@@@std@@PAX@1@PAU21@0ABUpiecewise_construct_t@1@$$QAV?$tuple@ABI@1@$$QAV?$tuple@$$V@1@@Z
	??$_Buynode@ABUpiecewise_construct_t@std@@V?$tuple@ABI@2@V?$tuple@$$V@2@@?$_Tree_comp_alloc@V?$_Tmap_traits@IEU?$less@I@std@@V?$allocator@U?$pair@$$CBIE@std@@@2@$0A@@std@@@std@@QAEPAU?$_Tree_node@U?$pair@$$CBIE@std@@PAX@1@ABUpiecewise_construct_t@1@$$QAV?$tuple@ABI@1@$$QAV?$tuple@$$V@1@@Z
	??$_Buynode@ABUpiecewise_construct_t@std@@V?$tuple@ABI@2@V?$tuple@$$V@2@@?$_Tree_comp_alloc@V?$_Tmap_traits@IV?$shared_ptr@VSession@Core@@@boost@@U?$less@I@std@@V?$allocator@U?$pair@$$CBIV?$shared_ptr@VSession@Core@@@boost@@@std@@@4@$0A@@std@@@std@@QAEPAU?$_Tree_node@U?$pair@$$CBIV?$shared_ptr@VSession@Core@@@boost@@@std@@PAX@1@ABUpiecewise_construct_t@1@$$QAV?$tuple@ABI@1@$$QAV?$tuple@$$V@1@@Z
	??$_Buynode@ABUpiecewise_construct_t@std@@V?$tuple@ABV?$basic_string@DU?$char_traits@D@std@@V?$allocator@D@2@@std@@@2@V?$tuple@$$V@2@@?$_Tree_comp_alloc@V?$_Tmap_traits@V?$basic_string@DU?$char_traits@D@std@@V?$allocator@D@2@@std@@V?$shared_ptr@VEventObject@Entity@Core@@@boost@@U?$less@V?$basic_string@DU?$char_traits@D@std@@V?$allocator@D@2@@std@@@2@V?$allocator@U?$pair@$$CBV?$basic_string@DU?$char_traits@D@std@@V?$allocator@D@2@@std@@V?$shared_ptr@VEventObject@Entity@Core@@@boost@@@std@@@2@$0A@@std@@@std@@QAEPAU?$_Tree_node@U?$pair@$$CBV?$basic_string@DU?$char_traits@D@std@@V?$allocator@D@2@@std@@V?$shared_ptr@VEventObject@Entity@Core@@@boost@@@std@@PAX@1@ABUpiecewise_construct_t@1@$$QAV?$tuple@ABV?$basic_string@DU?$char_traits@D@std@@V?$allocator@D@2@@std@@@1@$$QAV?$tuple@$$V@1@@Z
	??$_Buynode@ABUpiecewise_construct_t@std@@V?$tuple@ABV?$basic_string@DU?$char_traits@D@std@@V?$allocator@D@2@@std@@@2@V?$tuple@$$V@2@@?$_Tree_comp_alloc@V?$_Tmap_traits@V?$basic_string@DU?$char_traits@D@std@@V?$allocator@D@2@@std@@V?$shared_ptr@VLinkshell@Core@@@boost@@U?$less@V?$basic_string@DU?$char_traits@D@std@@V?$allocator@D@2@@std@@@2@V?$allocator@U?$pair@$$CBV?$basic_string@DU?$char_traits@D@std@@V?$allocator@D@2@@std@@V?$shared_ptr@VLinkshell@Core@@@boost@@@std@@@2@$0A@@std@@@std@@QAEPAU?$_Tree_node@U?$pair@$$CBV?$basic_string@DU?$char_traits@D@std@@V?$allocator@D@2@@std@@V?$shared_ptr@VLinkshell@Core@@@boost@@@std@@PAX@1@ABUpiecewise_construct_t@1@$$QAV?$tuple@ABV?$basic_string@DU?$char_traits@D@std@@V?$allocator@D@2@@std@@@1@$$QAV?$tuple@$$V@1@@Z
	??$_Buynode@ABUpiecewise_construct_t@std@@V?$tuple@ABV?$basic_string@DU?$char_traits@D@std@@V?$allocator@D@2@@std@@@2@V?$tuple@$$V@2@@?$_Tree_comp_alloc@V?$_Tmap_traits@V?$basic_string@DU?$char_traits@D@std@@V?$allocator@D@2@@std@@_JU?$less@V?$basic_string@DU?$char_traits@D@std@@V?$allocator@D@2@@std@@@2@V?$allocator@U?$pair@$$CBV?$basic_string@DU?$char_traits@D@std@@V?$allocator@D@2@@std@@_J@std@@@2@$0A@@std@@@std@@QAEPAU?$_Tree_node@U?$pair@$$CBV?$basic_string@DU?$char_traits@D@std@@V?$allocator@D@2@@std@@_J@std@@PAX@1@ABUpiecewise_construct_t@1@$$QAV?$tuple@ABV?$basic_string@DU?$char_traits@D@std@@V?$allocator@D@2@@std@@@1@$$QAV?$tuple@$$V@1@@Z
	??$_Buynode@ABUpiecewise_construct_t@std@@V?$tuple@AB_K@2@V?$tuple@$$V@2@@?$_Tree_comp_alloc@V?$_Tmap_traits@_KV?$shared_ptr@VLinkshell@Core@@@boost@@U?$less@_K@std@@V?$allocator@U?$pair@$$CB_KV?$shared_ptr@VLinkshell@Core@@@boost@@@std@@@4@$0A@@std@@@std@@QAEPAU?$_Tree_node@U?$pair@$$CB_KV?$shared_ptr@VLinkshell@Core@@@boost@@@std@@PAX@1@ABUpiecewise_construct_t@1@$$QAV?$tuple@AB_K@1@$$QAV?$tuple@$$V@1@@Z
	??$_Buynode@ABV?$basic_string@DU?$char_traits@D@std@@V?$allocator@D@2@@std@@@?$_Tree_comp_alloc@V?$_Tset_traits@V?$basic_string@DU?$char_traits@D@std@@V?$allocator@D@2@@std@@U?$less@V?$basic_string@DU?$char_traits@D@std@@V?$allocator@D@2@@std@@@2@V?$allocator@V?$basic_string@DU?$char_traits@D@std@@V?$allocator@D@2@@std@@@2@$0A@@std@@@std@@QAEPAU?$_Tree_node@V?$basic_string@DU?$char_traits@D@std@@V?$allocator@D@2@@std@@PAX@1@ABV?$basic_string@DU?$char_traits@D@std@@V?$allocator@D@2@@1@@Z
	??$_Buynode@ABV?$shared_ptr@VActor@Entity@Core@@@boost@@@?$_Tree_comp_alloc@V?$_Tset_traits@V?$shared_ptr@VActor@Entity@Core@@@boost@@U?$less@V?$shared_ptr@VActor@Entity@Core@@@boost@@@std@@V?$allocator@V?$shared_ptr@VActor@Entity@Core@@@boost@@@4@$0A@@std@@@std@@QAEPAU?$_Tree_node@V?$shared_ptr@VActor@Entity@Core@@@boost@@PAX@1@ABV?$shared_ptr@VActor@Entity@Core@@@boost@@@Z
	??$_Buynode@ABV?$shared_ptr@VPlayer@Entity@Core@@@boost@@@?$_Tree_comp_alloc@V?$_Tset_traits@V?$shared_ptr@VPlayer@Entity@Core@@@boost@@U?$less@V?$shared_ptr@VPlayer@Entity@Core@@@boost@@@std@@V?$allocator@V?$shared_ptr@VPlayer@Entity@Core@@@boost@@@4@$0A@@std@@@std@@QAEPAU?$_Tree_node@V?$shared_ptr@VPlayer@Entity@Core@@@boost@@PAX@1@ABV?$shared_ptr@VPlayer@Entity@Core@@@boost@@@Z
	??$_Buynode@ABV?$shared_ptr@VSession@Core@@@boost@@@?$_Tree_comp_alloc@V?$_Tset_traits@V?$shared_ptr@VSession@Core@@@boost@@U?$less@V?$shared_ptr@VSession@Core@@@boost@@@std@@V?$allocator@V?$shared_ptr@VSession@Core@@@boost@@@4@$0A@@std@@@std@@QAEPAU?$_Tree_node@V?$shared_ptr@VSession@Core@@@boost@@PAX@1@ABV?$shared_ptr@VSession@Core@@@boost@@@Z
	??$_Buynode@ABV?$shared_ptr@VZone@Core@@@boost@@@?$_Tree_comp_alloc@V?$_Tset_traits@V?$shared_ptr@VZone@Core@@@boost@@U?$less@V?$shared_ptr@VZone@Core@@@boost@@@std@@V?$allocator@V?$shared_ptr@VZone@Core@@@boost@@@4@$0A@@std@@@std@@QAEPAU?$_Tree_node@V?$shared_ptr@VZone@Core@@@boost@@PAX@1@ABV?$shared_ptr@VZone@Core@@@boost@@@Z
	??$_Buynode@AB_K@?$_Tree_comp_alloc@V?$_Tset_traits@_KU?$less@_K@std@@V?$allocator@_K@2@$0A@@std@@@std@@QAEPAU?$_Tree_node@_KPAX@1@AB_K@Z
	??$_Buynode@I@?$_Tree_comp_alloc@V?$_Tset_traits@IU?$less@I@std@@V?$allocator@I@2@$0A@@std@@@std@@QAEPAU?$_Tree_node@IPAX@1@$$QAI@Z
	??$_Buynode@U?$pair@V?$basic_string@DU?$char_traits@D@std@@V?$allocator@D@2@@std@@PAVScriptInfo@Scripting@Core@@@std@@@?$_List_buy@U?$pair@$$CBV?$basic_string@DU?$char_traits@D@std@@V?$allocator@D@2@@std@@PAVScriptInfo@Scripting@Core@@@std@@V?$allocator@U?$pair@$$CBV?$basic_string@DU?$char_traits@D@std@@V?$allocator@D@2@@std@@PAVScriptInfo@Scripting@Core@@@std@@@2@@std@@QAEPAU?$_List_node@U?$pair@$$CBV?$basic_string@DU?$char_traits@D@std@@V?$allocator@D@2@@std@@PAVScriptInfo@Scripting@Core@@@std@@PAX@1@PAU21@0$$QAU?$pair@V?$basic_string@DU?$char_traits@D@std@@V?$allocator@D@2@@std@@PAVScriptInfo@Scripting@Core@@@1@@Z
	??$_Buynode@U?$pair@V?$basic_string@DU?$char_traits@D@std@@V?$allocator@D@2@@std@@VWatcher@Watchdog@@@std@@@?$_Tree_comp_alloc@V?$_Tmap_traits@V?$basic_string@DU?$char_traits@D@std@@V?$allocator@D@2@@std@@VWatcher@Watchdog@@U?$less@V?$basic_string@DU?$char_traits@D@std@@V?$allocator@D@2@@std@@@2@V?$allocator@U?$pair@$$CBV?$basic_string@DU?$char_traits@D@std@@V?$allocator@D@2@@std@@VWatcher@Watchdog@@@std@@@2@$0A@@std@@@std@@QAEPAU?$_Tree_node@U?$pair@$$CBV?$basic_string@DU?$char_traits@D@std@@V?$allocator@D@2@@std@@VWatcher@Watchdog@@@std@@PAX@1@$$QAU?$pair@V?$basic_string@DU?$char_traits@D@std@@V?$allocator@D@2@@std@@VWatcher@Watchdog@@@1@@Z
	??$_Buynode@V?$shared_ptr@VActor@Entity@Core@@@boost@@@?$_Tree_comp_alloc@V?$_Tset_traits@V?$shared_ptr@VActor@Entity@Core@@@boost@@U?$less@V?$shared_ptr@VActor@Entity@Core@@@boost@@@std@@V?$allocator@V?$shared_ptr@VActor@Entity@Core@@@boost@@@4@$0A@@std@@@std@@QAEPAU?$_Tree_node@V?$shared_ptr@VActor@Entity@Core@@@boost@@PAX@1@$$QAV?$shared_ptr@VActor@Entity@Core@@@boost@@@Z
	??$_Buynode@V?$shared_ptr@VZone@Core@@@boost@@@?$_Tree_comp_alloc@V?$_Tset_traits@V?$shared_ptr@VZone@Core@@@boost@@U?$less@V?$shared_ptr@VZone@Core@@@boost@@@std@@V?$allocator@V?$shared_ptr@VZone@Core@@@boost@@@4@$0A@@std@@@std@@QAEPAU?$_Tree_node@V?$shared_ptr@VZone@Core@@@boost@@PAX@1@$$QAV?$shared_ptr@VZone@Core@@@boost@@@Z
	??$_Buynode_if_nil@AAU?$pair@$$CBEH@std@@@?$_Tree@V?$_Tmap_traits@EHU?$less@E@std@@V?$allocator@U?$pair@$$CBEH@std@@@2@$0A@@std@@@std@@IAEPAU?$_Tree_node@U?$pair@$$CBEH@std@@PAX@1@PAU21@AAU?$pair@$$CBEH@1@@Z
	??$_Buynode_if_nil@AAU?$pair@$$CBEI@std@@@?$_Tree@V?$_Tmap_traits@EIU?$less@E@std@@V?$allocator@U?$pair@$$CBEI@std@@@2@$0A@@std@@@std@@IAEPAU?$_Tree_node@U?$pair@$$CBEI@std@@PAX@1@PAU21@AAU?$pair@$$CBEI@1@@Z
	??$_Buynode_if_nil@AAU?$pair@$$CBEV?$shared_ptr@VItem@Core@@@boost@@@std@@@?$_Tree@V?$_Tmap_traits@EV?$shared_ptr@VItem@Core@@@boost@@U?$less@E@std@@V?$allocator@U?$pair@$$CBEV?$shared_ptr@VItem@Core@@@boost@@@std@@@4@$0A@@std@@@std@@IAEPAU?$_Tree_node@U?$pair@$$CBEV?$shared_ptr@VItem@Core@@@boost@@@std@@PAX@1@PAU21@AAU?$pair@$$CBEV?$shared_ptr@VItem@Core@@@boost@@@1@@Z
	??$_Buynode_if_nil@AAU?$pair@$$CBEV?$shared_ptr@VStatusEffect@1Core@@@boost@@@std@@@?$_Tree@V?$_Tmap_traits@EV?$shared_ptr@VStatusEffect@1Core@@@boost@@U?$less@E@std@@V?$allocator@U?$pair@$$CBEV?$shared_ptr@VStatusEffect@1Core@@@boost@@@std@@@4@$0A@@std@@@std@@IAEPAU?$_Tree_node@U?$pair@$$CBEV?$shared_ptr@VStatusEffect@1Core@@@boost@@@std@@PAX@1@PAU21@AAU?$pair@$$CBEV?$shared_ptr@VStatusEffect@1Core@@@boost@@@1@@Z
	??$_Buynode_if_nil@AAU?$pair@$$CBGP8GameConnection@Network@Core@@AEXABVGamePacket@Packets@23@AAVPlayer@Entity@3@@Z@std@@@?$_Tree@V?$_Tmap_traits@GP8GameConnection@Network@Core@@AEXABVGamePacket@Packets@23@AAVPlayer@Entity@3@@ZU?$less@G@std@@V?$allocator@U?$pair@$$CBGP8GameConnection@Network@Core@@AEXABVGamePacket@Packets@23@AAVPlayer@Entity@3@@Z@std@@@9@$0A@@std@@@std@@IAEPAU?$_Tree_node@U?$pair@$$CBGP8GameConnection@Network@Core@@AEXABVGamePacket@Packets@23@AAVPlayer@Entity@3@@Z@std@@PAX@1@PAU21@AAU?$pair@$$CBGP8GameConnection@Network@Core@@AEXABVGamePacket@Packets@23@AAVPlayer@Entity@3@@Z@1@@Z
	??$_Buynode_if_nil@AAU?$pair@$$CBGV?$basic_string@DU?$char_traits@D@std@@V?$allocator@D@2@@std@@@std@@@?$_Tree@V?$_Tmap_traits@GV?$basic_string@DU?$char_traits@D@std@@V?$allocator@D@2@@std@@U?$less@G@2@V?$allocator@U?$pair@$$CBGV?$basic_string@DU?$char_traits@D@std@@V?$allocator@D@2@@std@@@std@@@2@$0A@@std@@@std@@IAEPAU?$_Tree_node@U?$pair@$$CBGV?$basic_string@DU?$char_traits@D@std@@V?$allocator@D@2@@std@@@std@@PAX@1@PAU21@AAU?$pair@$$CBGV?$basic_string@DU?$char_traits@D@std@@V?$allocator@D@2@@std@@@1@@Z
	??$_Buynode_if_nil@AAU?$pair@$$CBGV?$shared_ptr@UTerritoryType@Data@Core@@@boost@@@std@@@?$_Hash@V?$_Umap_traits@GV?$shared_ptr@UTerritoryType@Data@Core@@@boost@@V?$_Uhash_compare@GU?$hash@G@std@@U?$equal_to@G@2@@std@@V?$allocator@U?$pair@$$CBGV?$shared_ptr@UTerritoryType@Data@Core@@@boost@@@std@@@4@$0A@@std@@@std@@IAE?AV?$_List_unchecked_iterator@V?$_List_val@U?$_List_simple_types@U?$pair@$$CBGV?$shared_ptr@UTerritoryType@Data@Core@@@boost@@@std@@@std@@@std@@@1@AAU?$pair@$$CBGV?$shared_ptr@UTerritoryType@Data@Core@@@boost@@@1@V21@@Z
	??$_Buynode_if_nil@AAU?$pair@$$CBGV?$shared_ptr@VItemContainer@Core@@@boost@@@std@@@?$_Tree@V?$_Tmap_traits@GV?$shared_ptr@VItemContainer@Core@@@boost@@U?$less@G@std@@V?$allocator@U?$pair@$$CBGV?$shared_ptr@VItemContainer@Core@@@boost@@@std@@@4@$0A@@std@@@std@@IAEPAU?$_Tree_node@U?$pair@$$CBGV?$shared_ptr@VItemContainer@Core@@@boost@@@std@@PAX@1@PAU21@AAU?$pair@$$CBGV?$shared_ptr@VItemContainer@Core@@@boost@@@1@@Z
	??$_Buynode_if_nil@AAU?$pair@$$CBGV?$unordered_map@IV?$shared_ptr@VZone@Core@@@boost@@U?$hash@I@std@@U?$equal_to@I@4@V?$allocator@U?$pair@$$CBIV?$shared_ptr@VZone@Core@@@boost@@@std@@@4@@std@@@std@@@?$_Hash@V?$_Umap_traits@GV?$unordered_map@IV?$shared_ptr@VZone@Core@@@boost@@U?$hash@I@std@@U?$equal_to@I@4@V?$allocator@U?$pair@$$CBIV?$shared_ptr@VZone@Core@@@boost@@@std@@@4@@std@@V?$_Uhash_compare@GU?$hash@G@std@@U?$equal_to@G@2@@2@V?$allocator@U?$pair@$$CBGV?$unordered_map@IV?$shared_ptr@VZone@Core@@@boost@@U?$hash@I@std@@U?$equal_to@I@4@V?$allocator@U?$pair@$$CBIV?$shared_ptr@VZone@Core@@@boost@@@std@@@4@@std@@@std@@@2@$0A@@std@@@std@@IAE?AV?$_List_unchecked_iterator@V?$_List_val@U?$_List_simple_types@U?$pair@$$CBGV?$unordered_map@IV?$shared_ptr@VZone@Core@@@boost@@U?$hash@I@std@@U?$equal_to@I@4@V?$allocator@U?$pair@$$CBIV?$shared_ptr@VZone@Core@@@boost@@@std@@@4@@std@@@std@@@std@@@std@@@1@AAU?$pair@$$CBGV?$unordered_map@IV?$shared_ptr@VZone@Core@@@boost@@U?$hash@I@std@@U?$equal_to@I@4@V?$allocator@U?$pair@$$CBIV?$shared_ptr@VZone@Core@@@boost@@@std@@@4@@std@@@1@V21@@Z
	??$_Buynode_if_nil@AAU?$pair@$$CBHV?$shared_ptr@VEventObject@Entity@Core@@@boost@@@std@@@?$_Hash@V?$_Umap_traits@HV?$shared_ptr@VEventObject@Entity@Core@@@boost@@V?$_Uhash_compare@HU?$hash@H@std@@U?$equal_to@H@2@@std@@V?$allocator@U?$pair@$$CBHV?$shared_ptr@VEventObject@Entity@Core@@@boost@@@std@@@4@$0A@@std@@@std@@IAE?AV?$_List_unchecked_iterator@V?$_List_val@U?$_List_simple_types@U?$pair@$$CBHV?$shared_ptr@VEventObject@Entity@Core@@@boost@@@std@@@std@@@std@@@1@AAU?$pair@$$CBHV?$shared_ptr@VEventObject@Entity@Core@@@boost@@@1@V21@@Z
	??$_Buynode_if_nil@AAU?$pair@$$CBHV?$shared_ptr@VPlayer@Entity@Core@@@boost@@@std@@@?$_Hash@V?$_Umap_traits@HV?$shared_ptr@VPlayer@Entity@Core@@@boost@@V?$_Uhash_compare@HU?$hash@H@std@@U?$equal_to@H@2@@std@@V?$allocator@U?$pair@$$CBHV?$shared_ptr@VPlayer@Entity@Core@@@boost@@@std@@@4@$0A@@std@@@std@@IAE?AV?$_List_unchecked_iterator@V?$_List_val@U?$_List_simple_types@U?$pair@$$CBHV?$shared_ptr@VPlayer@Entity@Core@@@boost@@@std@@@std@@@std@@@1@AAU?$pair@$$CBHV?$shared_ptr@VPlayer@Entity@Core@@@boost@@@1@V21@@Z
	??$_Buynode_if_nil@AAU?$pair@$$CBHV?$shared_ptr@VZonePosition@Core@@@boost@@@std@@@?$_Hash@V?$_Umap_traits@HV?$shared_ptr@VZonePosition@Core@@@boost@@V?$_Uhash_compare@HU?$hash@H@std@@U?$equal_to@H@2@@std@@V?$allocator@U?$pair@$$CBHV?$shared_ptr@VZonePosition@Core@@@boost@@@std@@@4@$0A@@std@@@std@@IAE?AV?$_List_unchecked_iterator@V?$_List_val@U?$_List_simple_types@U?$pair@$$CBHV?$shared_ptr@VZonePosition@Core@@@boost@@@std@@@std@@@std@@@1@AAU?$pair@$$CBHV?$shared_ptr@VZonePosition@Core@@@boost@@@1@V21@@Z
	??$_Buynode_if_nil@AAU?$pair@$$CBIE@std@@@?$_Hash@V?$_Umap_traits@IEV?$_Uhash_compare@IU?$hash@I@std@@U?$equal_to@I@2@@std@@V?$allocator@U?$pair@$$CBIE@std@@@2@$0A@@std@@@std@@IAE?AV?$_List_unchecked_iterator@V?$_List_val@U?$_List_simple_types@U?$pair@$$CBIE@std@@@std@@@std@@@1@AAU?$pair@$$CBIE@1@V21@@Z
	??$_Buynode_if_nil@AAU?$pair@$$CBIE@std@@@?$_Tree@V?$_Tmap_traits@IEU?$less@I@std@@V?$allocator@U?$pair@$$CBIE@std@@@2@$0A@@std@@@std@@IAEPAU?$_Tree_node@U?$pair@$$CBIE@std@@PAX@1@PAU21@AAU?$pair@$$CBIE@1@@Z
	??$_Buynode_if_nil@AAU?$pair@$$CBII@std@@@?$_Hash@V?$_Umap_traits@IIV?$_Uhash_compare@IU?$hash@I@std@@U?$equal_to@I@2@@std@@V?$allocator@U?$pair@$$CBII@std@@@2@$0A@@std@@@std@@IAE?AV?$_List_unchecked_iterator@V?$_List_val@U?$_List_simple_types@U?$pair@$$CBII@std@@@std@@@std@@@1@AAU?$pair@$$CBII@1@V21@@Z
	??$_Buynode_if_nil@AAU?$pair@$$CBIPAVScriptObject@@@std@@@?$_Hash@V?$_Umap_traits@IPAVScriptObject@@V?$_Uhash_compare@IU?$hash@I@std@@U?$equal_to@I@2@@std@@V?$allocator@U?$pair@$$CBIPAVScriptObject@@@std@@@3@$0A@@std@@@std@@IAE?AV?$_List_unchecked_iterator@V?$_List_val@U?$_List_simple_types@U?$pair@$$CBIPAVScriptObject@@@std@@@std@@@std@@@1@AAU?$pair@$$CBIPAVScriptObject@@@1@V21@@Z
	??$_Buynode_if_nil@AAU?$pair@$$CBIV?$shared_ptr@VEventHandler@Event@Core@@@boost@@@std@@@?$_Tree@V?$_Tmap_traits@IV?$shared_ptr@VEventHandler@Event@Core@@@boost@@U?$less@I@std@@V?$allocator@U?$pair@$$CBIV?$shared_ptr@VEventHandler@Event@Core@@@boost@@@std@@@4@$0A@@std@@@std@@IAEPAU?$_Tree_node@U?$pair@$$CBIV?$shared_ptr@VEventHandler@Event@Core@@@boost@@@std@@PAX@1@PAU21@AAU?$pair@$$CBIV?$shared_ptr@VEventHandler@Event@Core@@@boost@@@1@@Z
	??$_Buynode_if_nil@AAU?$pair@$$CBIV?$shared_ptr@VEventObject@Entity@Core@@@boost@@@std@@@?$_Hash@V?$_Umap_traits@IV?$shared_ptr@VEventObject@Entity@Core@@@boost@@V?$_Uhash_compare@IU?$hash@I@std@@U?$equal_to@I@2@@std@@V?$allocator@U?$pair@$$CBIV?$shared_ptr@VEventObject@Entity@Core@@@boost@@@std@@@4@$0A@@std@@@std@@IAE?AV?$_List_unchecked_iterator@V?$_List_val@U?$_List_simple_types@U?$pair@$$CBIV?$shared_ptr@VEventObject@Entity@Core@@@boost@@@std@@@std@@@std@@@1@AAU?$pair@$$CBIV?$shared_ptr@VEventObject@Entity@Core@@@boost@@@1@V21@@Z
	??$_Buynode_if_nil@AAU?$pair@$$CBIV?$shared_ptr@VSession@Core@@@boost@@@std@@@?$_Tree@V?$_Tmap_traits@IV?$shared_ptr@VSession@Core@@@boost@@U?$less@I@std@@V?$allocator@U?$pair@$$CBIV?$shared_ptr@VSession@Core@@@boost@@@std@@@4@$0A@@std@@@std@@IAEPAU?$_Tree_node@U?$pair@$$CBIV?$shared_ptr@VSession@Core@@@boost@@@std@@PAX@1@PAU21@AAU?$pair@$$CBIV?$shared_ptr@VSession@Core@@@boost@@@1@@Z
	??$_Buynode_if_nil@AAU?$pair@$$CBIV?$shared_ptr@VZone@Core@@@boost@@@std@@@?$_Hash@V?$_Umap_traits@IV?$shared_ptr@VZone@Core@@@boost@@V?$_Uhash_compare@IU?$hash@I@std@@U?$equal_to@I@2@@std@@V?$allocator@U?$pair@$$CBIV?$shared_ptr@VZone@Core@@@boost@@@std@@@4@$0A@@std@@@std@@IAE?AV?$_List_unchecked_iterator@V?$_List_val@U?$_List_simple_types@U?$pair@$$CBIV?$shared_ptr@VZone@Core@@@boost@@@std@@@std@@@std@@@1@AAU?$pair@$$CBIV?$shared_ptr@VZone@Core@@@boost@@@1@V21@@Z
	??$_Buynode_if_nil@AAU?$pair@$$CBIV?$unordered_map@IPAVScriptObject@@U?$hash@I@std@@U?$equal_to@I@3@V?$allocator@U?$pair@$$CBIPAVScriptObject@@@std@@@3@@std@@@std@@@?$_Hash@V?$_Umap_traits@IV?$unordered_map@IPAVScriptObject@@U?$hash@I@std@@U?$equal_to@I@3@V?$allocator@U?$pair@$$CBIPAVScriptObject@@@std@@@3@@std@@V?$_Uhash_compare@IU?$hash@I@std@@U?$equal_to@I@2@@2@V?$allocator@U?$pair@$$CBIV?$unordered_map@IPAVScriptObject@@U?$hash@I@std@@U?$equal_to@I@3@V?$allocator@U?$pair@$$CBIPAVScriptObject@@@std@@@3@@std@@@std@@@2@$0A@@std@@@std@@IAE?AV?$_List_unchecked_iterator@V?$_List_val@U?$_List_simple_types@U?$pair@$$CBIV?$unordered_map@IPAVScriptObject@@U?$hash@I@std@@U?$equal_to@I@3@V?$allocator@U?$pair@$$CBIPAVScriptObject@@@std@@@3@@std@@@std@@@std@@@std@@@1@AAU?$pair@$$CBIV?$unordered_map@IPAVScriptObject@@U?$hash@I@std@@U?$equal_to@I@3@V?$allocator@U?$pair@$$CBIPAVScriptObject@@@std@@@3@@std@@@1@V21@@Z
	??$_Buynode_if_nil@AAU?$pair@$$CBV?$basic_string@DU?$char_traits@D@std@@V?$allocator@D@2@@std@@PAVScriptInfo@Scripting@Core@@@std@@@?$_Hash@V?$_Umap_traits@V?$basic_string@DU?$char_traits@D@std@@V?$allocator@D@2@@std@@PAVScriptInfo@Scripting@Core@@V?$_Uhash_compare@V?$basic_string@DU?$char_traits@D@std@@V?$allocator@D@2@@std@@U?$hash@V?$basic_string@DU?$char_traits@D@std@@V?$allocator@D@2@@std@@@2@U?$equal_to@V?$basic_string@DU?$char_traits@D@std@@V?$allocator@D@2@@std@@@2@@2@V?$allocator@U?$pair@$$CBV?$basic_string@DU?$char_traits@D@std@@V?$allocator@D@2@@std@@PAVScriptInfo@Scripting@Core@@@std@@@2@$0A@@std@@@std@@IAE?AV?$_List_unchecked_iterator@V?$_List_val@U?$_List_simple_types@U?$pair@$$CBV?$basic_string@DU?$char_traits@D@std@@V?$allocator@D@2@@std@@PAVScriptInfo@Scripting@Core@@@std@@@std@@@std@@@1@AAU?$pair@$$CBV?$basic_string@DU?$char_traits@D@std@@V?$allocator@D@2@@std@@PAVScriptInfo@Scripting@Core@@@1@V21@@Z
	??$_Buynode_if_nil@AAU?$pair@$$CBV?$basic_string@DU?$char_traits@D@std@@V?$allocator@D@2@@std@@V?$shared_ptr@VDebugCommand@Core@@@boost@@@std@@@?$_Tree@V?$_Tmap_traits@V?$basic_string@DU?$char_traits@D@std@@V?$allocator@D@2@@std@@V?$shared_ptr@VDebugCommand@Core@@@boost@@U?$less@V?$basic_string@DU?$char_traits@D@std@@V?$allocator@D@2@@std@@@2@V?$allocator@U?$pair@$$CBV?$basic_string@DU?$char_traits@D@std@@V?$allocator@D@2@@std@@V?$shared_ptr@VDebugCommand@Core@@@boost@@@std@@@2@$0A@@std@@@std@@IAEPAU?$_Tree_node@U?$pair@$$CBV?$basic_string@DU?$char_traits@D@std@@V?$allocator@D@2@@std@@V?$shared_ptr@VDebugCommand@Core@@@boost@@@std@@PAX@1@PAU21@AAU?$pair@$$CBV?$basic_string@DU?$char_traits@D@std@@V?$allocator@D@2@@std@@V?$shared_ptr@VDebugCommand@Core@@@boost@@@1@@Z
	??$_Buynode_if_nil@AAU?$pair@$$CBV?$basic_string@DU?$char_traits@D@std@@V?$allocator@D@2@@std@@V?$shared_ptr@VEventObject@Entity@Core@@@boost@@@std@@@?$_Tree@V?$_Tmap_traits@V?$basic_string@DU?$char_traits@D@std@@V?$allocator@D@2@@std@@V?$shared_ptr@VEventObject@Entity@Core@@@boost@@U?$less@V?$basic_string@DU?$char_traits@D@std@@V?$allocator@D@2@@std@@@2@V?$allocator@U?$pair@$$CBV?$basic_string@DU?$char_traits@D@std@@V?$allocator@D@2@@std@@V?$shared_ptr@VEventObject@Entity@Core@@@boost@@@std@@@2@$0A@@std@@@std@@IAEPAU?$_Tree_node@U?$pair@$$CBV?$basic_string@DU?$char_traits@D@std@@V?$allocator@D@2@@std@@V?$shared_ptr@VEventObject@Entity@Core@@@boost@@@std@@PAX@1@PAU21@AAU?$pair@$$CBV?$basic_string@DU?$char_traits@D@std@@V?$allocator@D@2@@std@@V?$shared_ptr@VEventObject@Entity@Core@@@boost@@@1@@Z
	??$_Buynode_if_nil@AAU?$pair@$$CBV?$basic_string@DU?$char_traits@D@std@@V?$allocator@D@2@@std@@V?$shared_ptr@VLinkshell@Core@@@boost@@@std@@@?$_Tree@V?$_Tmap_traits@V?$basic_string@DU?$char_traits@D@std@@V?$allocator@D@2@@std@@V?$shared_ptr@VLinkshell@Core@@@boost@@U?$less@V?$basic_string@DU?$char_traits@D@std@@V?$allocator@D@2@@std@@@2@V?$allocator@U?$pair@$$CBV?$basic_string@DU?$char_traits@D@std@@V?$allocator@D@2@@std@@V?$shared_ptr@VLinkshell@Core@@@boost@@@std@@@2@$0A@@std@@@std@@IAEPAU?$_Tree_node@U?$pair@$$CBV?$basic_string@DU?$char_traits@D@std@@V?$allocator@D@2@@std@@V?$shared_ptr@VLinkshell@Core@@@boost@@@std@@PAX@1@PAU21@AAU?$pair@$$CBV?$basic_string@DU?$char_traits@D@std@@V?$allocator@D@2@@std@@V?$shared_ptr@VLinkshell@Core@@@boost@@@1@@Z
	??$_Buynode_if_nil@AAU?$pair@$$CBV?$basic_string@DU?$char_traits@D@std@@V?$allocator@D@2@@std@@V?$shared_ptr@VSession@Core@@@boost@@@std@@@?$_Tree@V?$_Tmap_traits@V?$basic_string@DU?$char_traits@D@std@@V?$allocator@D@2@@std@@V?$shared_ptr@VSession@Core@@@boost@@U?$less@V?$basic_string@DU?$char_traits@D@std@@V?$allocator@D@2@@std@@@2@V?$allocator@U?$pair@$$CBV?$basic_string@DU?$char_traits@D@std@@V?$allocator@D@2@@std@@V?$shared_ptr@VSession@Core@@@boost@@@std@@@2@$0A@@std@@@std@@IAEPAU?$_Tree_node@U?$pair@$$CBV?$basic_string@DU?$char_traits@D@std@@V?$allocator@D@2@@std@@V?$shared_ptr@VSession@Core@@@boost@@@std@@PAX@1@PAU21@AAU?$pair@$$CBV?$basic_string@DU?$char_traits@D@std@@V?$allocator@D@2@@std@@V?$shared_ptr@VSession@Core@@@boost@@@1@@Z
	??$_Buynode_if_nil@AAU?$pair@$$CBV?$basic_string@DU?$char_traits@D@std@@V?$allocator@D@2@@std@@VWatcher@Watchdog@@@std@@@?$_Tree@V?$_Tmap_traits@V?$basic_string@DU?$char_traits@D@std@@V?$allocator@D@2@@std@@VWatcher@Watchdog@@U?$less@V?$basic_string@DU?$char_traits@D@std@@V?$allocator@D@2@@std@@@2@V?$allocator@U?$pair@$$CBV?$basic_string@DU?$char_traits@D@std@@V?$allocator@D@2@@std@@VWatcher@Watchdog@@@std@@@2@$0A@@std@@@std@@IAEPAU?$_Tree_node@U?$pair@$$CBV?$basic_string@DU?$char_traits@D@std@@V?$allocator@D@2@@std@@VWatcher@Watchdog@@@std@@PAX@1@PAU21@AAU?$pair@$$CBV?$basic_string@DU?$char_traits@D@std@@V?$allocator@D@2@@std@@VWatcher@Watchdog@@@1@@Z
	??$_Buynode_if_nil@AAU?$pair@$$CBV?$basic_string@DU?$char_traits@D@std@@V?$allocator@D@2@@std@@_J@std@@@?$_Tree@V?$_Tmap_traits@V?$basic_string@DU?$char_traits@D@std@@V?$allocator@D@2@@std@@_JU?$less@V?$basic_string@DU?$char_traits@D@std@@V?$allocator@D@2@@std@@@2@V?$allocator@U?$pair@$$CBV?$basic_string@DU?$char_traits@D@std@@V?$allocator@D@2@@std@@_J@std@@@2@$0A@@std@@@std@@IAEPAU?$_Tree_node@U?$pair@$$CBV?$basic_string@DU?$char_traits@D@std@@V?$allocator@D@2@@std@@_J@std@@PAX@1@PAU21@AAU?$pair@$$CBV?$basic_string@DU?$char_traits@D@std@@V?$allocator@D@2@@std@@_J@1@@Z
	??$_Buynode_if_nil@AAU?$pair@$$CBVtype_index@std@@V?$shared_ptr@X@boost@@@std@@@?$_Tree@V?$_Tmap_traits@Vtype_index@std@@V?$shared_ptr@X@boost@@U?$less@Vtype_index@std@@@2@V?$allocator@U?$pair@$$CBVtype_index@std@@V?$shared_ptr@X@boost@@@std@@@2@$0A@@std@@@std@@IAEPAU?$_Tree_node@U?$pair@$$CBVtype_index@std@@V?$shared_ptr@X@boost@@@std@@PAX@1@PAU21@AAU?$pair@$$CBVtype_index@std@@V?$shared_ptr@X@boost@@@1@@Z
	??$_Buynode_if_nil@AAU?$pair@$$CB_KV?$shared_ptr@VLinkshell@Core@@@boost@@@std@@@?$_Tree@V?$_Tmap_traits@_KV?$shared_ptr@VLinkshell@Core@@@boost@@U?$less@_K@std@@V?$allocator@U?$pair@$$CB_KV?$shared_ptr@VLinkshell@Core@@@boost@@@std@@@4@$0A@@std@@@std@@IAEPAU?$_Tree_node@U?$pair@$$CB_KV?$shared_ptr@VLinkshell@Core@@@boost@@@std@@PAX@1@PAU21@AAU?$pair@$$CB_KV?$shared_ptr@VLinkshell@Core@@@boost@@@1@@Z
	??$_Buynode_if_nil@AAV?$shared_ptr@VZone@Core@@@boost@@@?$_Tree@V?$_Tset_traits@V?$shared_ptr@VZone@Core@@@boost@@U?$less@V?$shared_ptr@VZone@Core@@@boost@@@std@@V?$allocator@V?$shared_ptr@VZone@Core@@@boost@@@4@$0A@@std@@@std@@IAEPAU?$_Tree_node@V?$shared_ptr@VZone@Core@@@boost@@PAX@1@PAU21@AAV?$shared_ptr@VZone@Core@@@boost@@@Z
	??$_Buynode_if_nil@AA_K@?$_Tree@V?$_Tset_traits@_KU?$less@_K@std@@V?$allocator@_K@2@$0A@@std@@@std@@IAEPAU?$_Tree_node@_KPAX@1@PAU21@AA_K@Z
	??$_Buynode_if_nil@ABI@?$_Tree@V?$_Tset_traits@IU?$less@I@std@@V?$allocator@I@2@$0A@@std@@@std@@IAEPAU?$_Tree_node@IPAX@1@U_Nil@1@ABI@Z
	??$_Buynode_if_nil@ABQAVScriptInfo@Scripting@Core@@@?$_Tree@V?$_Tset_traits@PAVScriptInfo@Scripting@Core@@U?$less@PAVScriptInfo@Scripting@Core@@@std@@V?$allocator@PAVScriptInfo@Scripting@Core@@@5@$0A@@std@@@std@@IAEPAU?$_Tree_node@PAVScriptInfo@Scripting@Core@@PAX@1@U_Nil@1@ABQAVScriptInfo@Scripting@Core@@@Z
	??$_Buynode_if_nil@ABV?$basic_string@DU?$char_traits@D@std@@V?$allocator@D@2@@std@@@?$_Tree@V?$_Tset_traits@V?$basic_string@DU?$char_traits@D@std@@V?$allocator@D@2@@std@@U?$less@V?$basic_string@DU?$char_traits@D@std@@V?$allocator@D@2@@std@@@2@V?$allocator@V?$basic_string@DU?$char_traits@D@std@@V?$allocator@D@2@@std@@@2@$0A@@std@@@std@@IAEPAU?$_Tree_node@V?$basic_string@DU?$char_traits@D@std@@V?$allocator@D@2@@std@@PAX@1@U_Nil@1@ABV?$basic_string@DU?$char_traits@D@std@@V?$allocator@D@2@@1@@Z
	??$_Buynode_if_nil@ABV?$shared_ptr@VActor@Entity@Core@@@boost@@@?$_Tree@V?$_Tset_traits@V?$shared_ptr@VActor@Entity@Core@@@boost@@U?$less@V?$shared_ptr@VActor@Entity@Core@@@boost@@@std@@V?$allocator@V?$shared_ptr@VActor@Entity@Core@@@boost@@@4@$0A@@std@@@std@@IAEPAU?$_Tree_node@V?$shared_ptr@VActor@Entity@Core@@@boost@@PAX@1@U_Nil@1@ABV?$shared_ptr@VActor@Entity@Core@@@boost@@@Z
	??$_Buynode_if_nil@ABV?$shared_ptr@VPlayer@Entity@Core@@@boost@@@?$_Tree@V?$_Tset_traits@V?$shared_ptr@VPlayer@Entity@Core@@@boost@@U?$less@V?$shared_ptr@VPlayer@Entity@Core@@@boost@@@std@@V?$allocator@V?$shared_ptr@VPlayer@Entity@Core@@@boost@@@4@$0A@@std@@@std@@IAEPAU?$_Tree_node@V?$shared_ptr@VPlayer@Entity@Core@@@boost@@PAX@1@U_Nil@1@ABV?$shared_ptr@VPlayer@Entity@Core@@@boost@@@Z
	??$_Buynode_if_nil@ABV?$shared_ptr@VSession@Core@@@boost@@@?$_Tree@V?$_Tset_traits@V?$shared_ptr@VSession@Core@@@boost@@U?$less@V?$shared_ptr@VSession@Core@@@boost@@@std@@V?$allocator@V?$shared_ptr@VSession@Core@@@boost@@@4@$0A@@std@@@std@@IAEPAU?$_Tree_node@V?$shared_ptr@VSession@Core@@@boost@@PAX@1@U_Nil@1@ABV?$shared_ptr@VSession@Core@@@boost@@@Z
	??$_Buynode_if_nil@AB_K@?$_Tree@V?$_Tset_traits@_KU?$less@_K@std@@V?$allocator@_K@2@$0A@@std@@@std@@IAEPAU?$_Tree_node@_KPAX@1@U_Nil@1@AB_K@Z
	??$_Buynode_if_nil@I@?$_Tree@V?$_Tset_traits@IU?$less@I@std@@V?$allocator@I@2@$0A@@std@@@std@@IAEPAU?$_Tree_node@IPAX@1@U_Nil@1@$$QAI@Z
	??$_Buynode_if_nil@V?$shared_ptr@VActor@Entity@Core@@@boost@@@?$_Tree@V?$_Tset_traits@V?$shared_ptr@VActor@Entity@Core@@@boost@@U?$less@V?$shared_ptr@VActor@Entity@Core@@@boost@@@std@@V?$allocator@V?$shared_ptr@VActor@Entity@Core@@@boost@@@4@$0A@@std@@@std@@IAEPAU?$_Tree_node@V?$shared_ptr@VActor@Entity@Core@@@boost@@PAX@1@U_Nil@1@$$QAV?$shared_ptr@VActor@Entity@Core@@@boost@@@Z
	??$_Buynode_if_nil@V?$shared_ptr@VZone@Core@@@boost@@@?$_Tree@V?$_Tset_traits@V?$shared_ptr@VZone@Core@@@boost@@U?$less@V?$shared_ptr@VZone@Core@@@boost@@@std@@V?$allocator@V?$shared_ptr@VZone@Core@@@boost@@@4@$0A@@std@@@std@@IAEPAU?$_Tree_node@V?$shared_ptr@VZone@Core@@@boost@@PAX@1@U_Nil@1@$$QAV?$shared_ptr@VZone@Core@@@boost@@@Z
	??$_Call@AAP8Hive@Network@Core@@AEXXZAAPAV123@@?$_Invoker_ret@U_Unforced@std@@$0A@@std@@SAXAAP8Hive@Network@Core@@AEXXZAAPAV234@@Z
	??$_Call@P8Hive@Network@Core@@AEXXZAAPAV123@$$V@_Invoker_pmf_pointer@std@@SAXP8Hive@Network@Core@@AEXXZAAPAV234@@Z
	??$_Call@V?$_Binder@U_Unforced@std@@P8Hive@Network@Core@@AEXXZPAV345@@std@@$$V@_Invoker_functor@std@@SAX$$QAV?$_Binder@U_Unforced@std@@P8Hive@Network@Core@@AEXXZPAV345@@1@@Z
	??$_Call_binder@U_Unforced@std@@$0A@P8Hive@Network@Core@@AEXXZV?$tuple@PAVHive@Network@Core@@@2@V?$tuple@$$V@2@@std@@YAXU?$_Invoker_ret@U_Unforced@std@@$0A@@0@U?$integer_sequence@I$0A@@0@AAP8Hive@Network@Core@@AEXXZAAV?$tuple@PAVHive@Network@Core@@@0@$$QAV?$tuple@$$V@0@@Z
	??$_Const_cast@$$CBD@std@@YAPADPBD@Z
	??$_Construct@V?$_Deque_unchecked_iterator@V?$_Deque_val@U?$_Deque_simple_types@D@std@@@std@@@std@@@?$basic_string@DU?$char_traits@D@std@@V?$allocator@D@2@@std@@QAEXV?$_Deque_unchecked_iterator@V?$_Deque_val@U?$_Deque_simple_types@D@std@@@std@@@1@0Uforward_iterator_tag@1@@Z
	??$_Construct@V?$_Deque_unchecked_iterator@V?$_Deque_val@U?$_Deque_simple_types@D@std@@@std@@@std@@@?$basic_string@DU?$char_traits@D@std@@V?$allocator@D@2@@std@@QAEXV?$_Deque_unchecked_iterator@V?$_Deque_val@U?$_Deque_simple_types@D@std@@@std@@@1@V21@Uinput_iterator_tag@1@@Z
	??$_Construct@V?$transform_iterator@U?$to_lowerF@D@detail@algorithm@boost@@V?$_String_const_iterator@V?$_String_val@U?$_Simple_types@D@std@@@std@@@std@@Uuse_default@iterators@4@U784@@iterators@boost@@@?$basic_string@DU?$char_traits@D@std@@V?$allocator@D@2@@std@@QAEXV?$transform_iterator@U?$to_lowerF@D@detail@algorithm@boost@@V?$_String_const_iterator@V?$_String_val@U?$_Simple_types@D@std@@@std@@@std@@Uuse_default@iterators@4@U784@@iterators@boost@@V234@Uinput_iterator_tag@1@@Z
	??$_Convert_size@I@std@@YAII@Z
	??$_Copy@U_Copy_tag@?$_Tree@V?$_Tmap_traits@EV?$shared_ptr@VItem@Core@@@boost@@U?$less@E@std@@V?$allocator@U?$pair@$$CBEV?$shared_ptr@VItem@Core@@@boost@@@std@@@4@$0A@@std@@@std@@@?$_Tree@V?$_Tmap_traits@EV?$shared_ptr@VItem@Core@@@boost@@U?$less@E@std@@V?$allocator@U?$pair@$$CBEV?$shared_ptr@VItem@Core@@@boost@@@std@@@4@$0A@@std@@@std@@IAEXABV01@U_Copy_tag@01@@Z
	??$_Copy@U_Copy_tag@?$_Tree@V?$_Tmap_traits@EV?$shared_ptr@VStatusEffect@1Core@@@boost@@U?$less@E@std@@V?$allocator@U?$pair@$$CBEV?$shared_ptr@VStatusEffect@1Core@@@boost@@@std@@@4@$0A@@std@@@std@@@?$_Tree@V?$_Tmap_traits@EV?$shared_ptr@VStatusEffect@1Core@@@boost@@U?$less@E@std@@V?$allocator@U?$pair@$$CBEV?$shared_ptr@VStatusEffect@1Core@@@boost@@@std@@@4@$0A@@std@@@std@@IAEXABV01@U_Copy_tag@01@@Z
	??$_Copy@U_Copy_tag@?$_Tree@V?$_Tmap_traits@IV?$shared_ptr@VEventHandler@Event@Core@@@boost@@U?$less@I@std@@V?$allocator@U?$pair@$$CBIV?$shared_ptr@VEventHandler@Event@Core@@@boost@@@std@@@4@$0A@@std@@@std@@@?$_Tree@V?$_Tmap_traits@IV?$shared_ptr@VEventHandler@Event@Core@@@boost@@U?$less@I@std@@V?$allocator@U?$pair@$$CBIV?$shared_ptr@VEventHandler@Event@Core@@@boost@@@std@@@4@$0A@@std@@@std@@IAEXABV01@U_Copy_tag@01@@Z
	??$_Copy@U_Copy_tag@?$_Tree@V?$_Tset_traits@IU?$less@I@std@@V?$allocator@I@2@$0A@@std@@@std@@@?$_Tree@V?$_Tset_traits@IU?$less@I@std@@V?$allocator@I@2@$0A@@std@@@std@@IAEXABV01@U_Copy_tag@01@@Z
	??$_Copy@U_Copy_tag@?$_Tree@V?$_Tset_traits@V?$shared_ptr@VActor@Entity@Core@@@boost@@U?$less@V?$shared_ptr@VActor@Entity@Core@@@boost@@@std@@V?$allocator@V?$shared_ptr@VActor@Entity@Core@@@boost@@@4@$0A@@std@@@std@@@?$_Tree@V?$_Tset_traits@V?$shared_ptr@VActor@Entity@Core@@@boost@@U?$less@V?$shared_ptr@VActor@Entity@Core@@@boost@@@std@@V?$allocator@V?$shared_ptr@VActor@Entity@Core@@@boost@@@4@$0A@@std@@@std@@IAEXABV01@U_Copy_tag@01@@Z
	??$_Copy@U_Copy_tag@?$_Tree@V?$_Tset_traits@_KU?$less@_K@std@@V?$allocator@_K@2@$0A@@std@@@std@@@?$_Tree@V?$_Tset_traits@_KU?$less@_K@std@@V?$allocator@_K@2@$0A@@std@@@std@@IAEXABV01@U_Copy_tag@01@@Z
	??$_Copy_backward_memmove@PADPAD@std@@YAPADPAD00@Z
	??$_Copy_backward_memmove@PAU?$copy_map_entry@U?$sequenced_index_node@U?$ordered_index_node@Unull_augment_policy@detail@multi_index@boost@@U?$index_node_base@U?$pair@$$CBV?$basic_string@DU?$char_traits@D@std@@V?$allocator@D@2@@std@@V?$basic_ptree@V?$basic_string@DU?$char_traits@D@std@@V?$allocator@D@2@@std@@V12@U?$less@V?$basic_string@DU?$char_traits@D@std@@V?$allocator@D@2@@std@@@2@@property_tree@boost@@@std@@V?$allocator@U?$pair@$$CBV?$basic_string@DU?$char_traits@D@std@@V?$allocator@D@2@@std@@V?$basic_ptree@V?$basic_string@DU?$char_traits@D@std@@V?$allocator@D@2@@std@@V12@U?$less@V?$basic_string@DU?$char_traits@D@std@@V?$allocator@D@2@@std@@@2@@property_tree@boost@@@std@@@2@@234@@detail@multi_index@boost@@@detail@multi_index@boost@@@detail@multi_index@boost@@PAU1234@@std@@YAPAU?$copy_map_entry@U?$sequenced_index_node@U?$ordered_index_node@Unull_augment_policy@detail@multi_index@boost@@U?$index_node_base@U?$pair@$$CBV?$basic_string@DU?$char_traits@D@std@@V?$allocator@D@2@@std@@V?$basic_ptree@V?$basic_string@DU?$char_traits@D@std@@V?$allocator@D@2@@std@@V12@U?$less@V?$basic_string@DU?$char_traits@D@std@@V?$allocator@D@2@@std@@@2@@property_tree@boost@@@std@@V?$allocator@U?$pair@$$CBV?$basic_string@DU?$char_traits@D@std@@V?$allocator@D@2@@std@@V?$basic_ptree@V?$basic_string@DU?$char_traits@D@std@@V?$allocator@D@2@@std@@V12@U?$less@V?$basic_string@DU?$char_traits@D@std@@V?$allocator@D@2@@std@@@2@@property_tree@boost@@@std@@@2@@234@@detail@multi_index@boost@@@detail@multi_index@boost@@@detail@multi_index@boost@@PAU1234@00@Z
	??$_Copy_backward_unchecked@V?$_Vb_iterator@U?$_Wrap_alloc@V?$allocator@I@std@@@std@@@std@@V12@@std@@YA?AV?$_Vb_iterator@U?$_Wrap_alloc@V?$allocator@I@std@@@std@@@0@V10@00U_General_ptr_iterator_tag@0@@Z
	??$_Copy_memmove@PADPAD@std@@YAPADPAD00@Z
	??$_Copy_memmove@PAEPAE@std@@YAPAEPAE00@Z
	??$_Copy_memmove@PAGPAG@std@@YAPAGPAG00@Z
	??$_Copy_memmove@PAIPAI@std@@YAPAIPAI00@Z
	??$_Copy_memmove@PAPADPAPAD@std@@YAPAPADPAPAD00@Z
	??$_Copy_memmove@PAPAEPAPAE@std@@YAPAPAEPAPAE00@Z
	??$_Copy_memmove@PAPAV?$basic_string@DU?$char_traits@D@std@@V?$allocator@D@2@@std@@PAPAV12@@std@@YAPAPAV?$basic_string@DU?$char_traits@D@std@@V?$allocator@D@2@@0@PAPAV10@00@Z
	??$_Copy_memmove@PAPAV?$shared_ptr@VGamePacket@Packets@Network@Core@@@boost@@PAPAV12@@std@@YAPAPAV?$shared_ptr@VGamePacket@Packets@Network@Core@@@boost@@PAPAV12@00@Z
	??$_Copy_memmove@PAPAVScriptObject@@PAPAV1@@std@@YAPAPAVScriptObject@@PAPAV1@00@Z
	??$_Copy_memmove@PAV?$_List_unchecked_iterator@V?$_List_val@U?$_List_simple_types@U?$pair@$$CBIV?$shared_ptr@VZone@Core@@@boost@@@std@@@std@@@std@@@std@@PAV12@@std@@YAPAV?$_List_unchecked_iterator@V?$_List_val@U?$_List_simple_types@U?$pair@$$CBIV?$shared_ptr@VZone@Core@@@boost@@@std@@@std@@@std@@@0@PAV10@00@Z
	??$_Copy_memmove@PBDPAD@std@@YAPADPBD0PAD@Z
	??$_Copy_memmove@PBEPAE@std@@YAPAEPBE0PAE@Z
	??$_Copy_no_deprecate@PBDPAD@std@@YAPADPBD0PAD@Z
	??$_Copy_no_deprecate@V?$_String_iterator@V?$_String_val@U?$_Simple_types@D@std@@@std@@@std@@V12@@std@@YA?AV?$_String_iterator@V?$_String_val@U?$_Simple_types@D@std@@@std@@@0@V10@00@Z
	??$_Copy_no_deprecate@V?$_String_iterator@V?$_String_val@U?$_Simple_types@D@std@@@std@@@std@@V?$_Array_iterator@D$0MB@@2@@std@@YA?AV?$_Array_iterator@D$0MB@@0@V?$_String_iterator@V?$_String_val@U?$_Simple_types@D@std@@@std@@@0@0V10@@Z
	??$_Copy_no_deprecate@V?$_Vb_iterator@U?$_Wrap_alloc@V?$allocator@I@std@@@std@@@std@@V12@@std@@YA?AV?$_Vb_iterator@U?$_Wrap_alloc@V?$allocator@I@std@@@std@@@0@V10@00@Z
	??$_Copy_nodes@U_Copy_tag@?$_Tree@V?$_Tmap_traits@EV?$shared_ptr@VItem@Core@@@boost@@U?$less@E@std@@V?$allocator@U?$pair@$$CBEV?$shared_ptr@VItem@Core@@@boost@@@std@@@4@$0A@@std@@@std@@@?$_Tree@V?$_Tmap_traits@EV?$shared_ptr@VItem@Core@@@boost@@U?$less@E@std@@V?$allocator@U?$pair@$$CBEV?$shared_ptr@VItem@Core@@@boost@@@std@@@4@$0A@@std@@@std@@IAEPAU?$_Tree_node@U?$pair@$$CBEV?$shared_ptr@VItem@Core@@@boost@@@std@@PAX@1@PAU21@0U_Copy_tag@01@@Z
	??$_Copy_nodes@U_Copy_tag@?$_Tree@V?$_Tmap_traits@EV?$shared_ptr@VStatusEffect@1Core@@@boost@@U?$less@E@std@@V?$allocator@U?$pair@$$CBEV?$shared_ptr@VStatusEffect@1Core@@@boost@@@std@@@4@$0A@@std@@@std@@@?$_Tree@V?$_Tmap_traits@EV?$shared_ptr@VStatusEffect@1Core@@@boost@@U?$less@E@std@@V?$allocator@U?$pair@$$CBEV?$shared_ptr@VStatusEffect@1Core@@@boost@@@std@@@4@$0A@@std@@@std@@IAEPAU?$_Tree_node@U?$pair@$$CBEV?$shared_ptr@VStatusEffect@1Core@@@boost@@@std@@PAX@1@PAU21@0U_Copy_tag@01@@Z
	??$_Copy_nodes@U_Copy_tag@?$_Tree@V?$_Tmap_traits@IV?$shared_ptr@VEventHandler@Event@Core@@@boost@@U?$less@I@std@@V?$allocator@U?$pair@$$CBIV?$shared_ptr@VEventHandler@Event@Core@@@boost@@@std@@@4@$0A@@std@@@std@@@?$_Tree@V?$_Tmap_traits@IV?$shared_ptr@VEventHandler@Event@Core@@@boost@@U?$less@I@std@@V?$allocator@U?$pair@$$CBIV?$shared_ptr@VEventHandler@Event@Core@@@boost@@@std@@@4@$0A@@std@@@std@@IAEPAU?$_Tree_node@U?$pair@$$CBIV?$shared_ptr@VEventHandler@Event@Core@@@boost@@@std@@PAX@1@PAU21@0U_Copy_tag@01@@Z
	??$_Copy_nodes@U_Copy_tag@?$_Tree@V?$_Tset_traits@IU?$less@I@std@@V?$allocator@I@2@$0A@@std@@@std@@@?$_Tree@V?$_Tset_traits@IU?$less@I@std@@V?$allocator@I@2@$0A@@std@@@std@@IAEPAU?$_Tree_node@IPAX@1@PAU21@0U_Copy_tag@01@@Z
	??$_Copy_nodes@U_Copy_tag@?$_Tree@V?$_Tset_traits@V?$shared_ptr@VActor@Entity@Core@@@boost@@U?$less@V?$shared_ptr@VActor@Entity@Core@@@boost@@@std@@V?$allocator@V?$shared_ptr@VActor@Entity@Core@@@boost@@@4@$0A@@std@@@std@@@?$_Tree@V?$_Tset_traits@V?$shared_ptr@VActor@Entity@Core@@@boost@@U?$less@V?$shared_ptr@VActor@Entity@Core@@@boost@@@std@@V?$allocator@V?$shared_ptr@VActor@Entity@Core@@@boost@@@4@$0A@@std@@@std@@IAEPAU?$_Tree_node@V?$shared_ptr@VActor@Entity@Core@@@boost@@PAX@1@PAU21@0U_Copy_tag@01@@Z
	??$_Copy_nodes@U_Copy_tag@?$_Tree@V?$_Tset_traits@_KU?$less@_K@std@@V?$allocator@_K@2@$0A@@std@@@std@@@?$_Tree@V?$_Tset_traits@_KU?$less@_K@std@@V?$allocator@_K@2@$0A@@std@@@std@@IAEPAU?$_Tree_node@_KPAX@1@PAU21@0U_Copy_tag@01@@Z
	??$_Copy_or_move@IU?$integral_constant@_N$00@std@@@?$_Tree@V?$_Tset_traits@IU?$less@I@std@@V?$allocator@I@2@$0A@@std@@@std@@IAEPAU?$_Tree_node@IPAX@1@AAIU_Copy_tag@01@U?$integral_constant@_N$00@1@@Z
	??$_Copy_or_move@U?$pair@$$CBEV?$shared_ptr@VItem@Core@@@boost@@@std@@U?$integral_constant@_N$0A@@2@@?$_Tree@V?$_Tmap_traits@EV?$shared_ptr@VItem@Core@@@boost@@U?$less@E@std@@V?$allocator@U?$pair@$$CBEV?$shared_ptr@VItem@Core@@@boost@@@std@@@4@$0A@@std@@@std@@IAEPAU?$_Tree_node@U?$pair@$$CBEV?$shared_ptr@VItem@Core@@@boost@@@std@@PAX@1@AAU?$pair@$$CBEV?$shared_ptr@VItem@Core@@@boost@@@1@U_Copy_tag@01@U?$integral_constant@_N$0A@@1@@Z
	??$_Copy_or_move@U?$pair@$$CBEV?$shared_ptr@VStatusEffect@1Core@@@boost@@@std@@U?$integral_constant@_N$0A@@2@@?$_Tree@V?$_Tmap_traits@EV?$shared_ptr@VStatusEffect@1Core@@@boost@@U?$less@E@std@@V?$allocator@U?$pair@$$CBEV?$shared_ptr@VStatusEffect@1Core@@@boost@@@std@@@4@$0A@@std@@@std@@IAEPAU?$_Tree_node@U?$pair@$$CBEV?$shared_ptr@VStatusEffect@1Core@@@boost@@@std@@PAX@1@AAU?$pair@$$CBEV?$shared_ptr@VStatusEffect@1Core@@@boost@@@1@U_Copy_tag@01@U?$integral_constant@_N$0A@@1@@Z
	??$_Copy_or_move@U?$pair@$$CBIV?$shared_ptr@VEventHandler@Event@Core@@@boost@@@std@@U?$integral_constant@_N$0A@@2@@?$_Tree@V?$_Tmap_traits@IV?$shared_ptr@VEventHandler@Event@Core@@@boost@@U?$less@I@std@@V?$allocator@U?$pair@$$CBIV?$shared_ptr@VEventHandler@Event@Core@@@boost@@@std@@@4@$0A@@std@@@std@@IAEPAU?$_Tree_node@U?$pair@$$CBIV?$shared_ptr@VEventHandler@Event@Core@@@boost@@@std@@PAX@1@AAU?$pair@$$CBIV?$shared_ptr@VEventHandler@Event@Core@@@boost@@@1@U_Copy_tag@01@U?$integral_constant@_N$0A@@1@@Z
	??$_Copy_or_move@V?$shared_ptr@VActor@Entity@Core@@@boost@@U?$integral_constant@_N$00@std@@@?$_Tree@V?$_Tset_traits@V?$shared_ptr@VActor@Entity@Core@@@boost@@U?$less@V?$shared_ptr@VActor@Entity@Core@@@boost@@@std@@V?$allocator@V?$shared_ptr@VActor@Entity@Core@@@boost@@@4@$0A@@std@@@std@@IAEPAU?$_Tree_node@V?$shared_ptr@VActor@Entity@Core@@@boost@@PAX@1@AAV?$shared_ptr@VActor@Entity@Core@@@boost@@U_Copy_tag@01@U?$integral_constant@_N$00@1@@Z
	??$_Copy_or_move@_KU?$integral_constant@_N$00@std@@@?$_Tree@V?$_Tset_traits@_KU?$less@_K@std@@V?$allocator@_K@2@$0A@@std@@@std@@IAEPAU?$_Tree_node@_KPAX@1@AA_KU_Copy_tag@01@U?$integral_constant@_N$00@1@@Z
	??$_Copy_unchecked1@PADPAD@std@@YAPADPAD00U_Trivially_copyable_ptr_iterator_tag@0@@Z
	??$_Copy_unchecked1@PAEPAE@std@@YAPAEPAE00U_Trivially_copyable_ptr_iterator_tag@0@@Z
	??$_Copy_unchecked1@PAV?$_List_unchecked_iterator@V?$_List_val@U?$_List_simple_types@U?$pair@$$CBIV?$shared_ptr@VZone@Core@@@boost@@@std@@@std@@@std@@@std@@PAV12@@std@@YAPAV?$_List_unchecked_iterator@V?$_List_val@U?$_List_simple_types@U?$pair@$$CBIV?$shared_ptr@VZone@Core@@@boost@@@std@@@std@@@std@@@0@PAV10@00U_Trivially_copyable_ptr_iterator_tag@0@@Z
	??$_Copy_unchecked1@PBDPAD@std@@YAPADPBD0PADU_Trivially_copyable_ptr_iterator_tag@0@@Z
	??$_Copy_unchecked1@V?$_Vb_iterator@U?$_Wrap_alloc@V?$allocator@I@std@@@std@@@std@@V12@@std@@YA?AV?$_Vb_iterator@U?$_Wrap_alloc@V?$allocator@I@std@@@std@@@0@V10@00U_General_ptr_iterator_tag@0@@Z
	??$_Copy_unchecked@PADPAD@std@@YAPADPAD00@Z
	??$_Copy_unchecked@PAEPAE@std@@YAPAEPAE00@Z
	??$_Copy_unchecked@PAV?$_List_unchecked_iterator@V?$_List_val@U?$_List_simple_types@U?$pair@$$CBIV?$shared_ptr@VZone@Core@@@boost@@@std@@@std@@@std@@@std@@PAV12@@std@@YAPAV?$_List_unchecked_iterator@V?$_List_val@U?$_List_simple_types@U?$pair@$$CBIV?$shared_ptr@VZone@Core@@@boost@@@std@@@std@@@std@@@0@PAV10@00@Z
	??$_Copy_unchecked@PBDPAD@std@@YAPADPBD0PAD@Z
	??$_Copy_unchecked@V?$_Vb_iterator@U?$_Wrap_alloc@V?$allocator@I@std@@@std@@@std@@V12@@std@@YA?AV?$_Vb_iterator@U?$_Wrap_alloc@V?$allocator@I@std@@@std@@@0@V10@00@Z
	??$_Deallocate_plain@V?$allocator@U_Container_proxy@std@@@std@@$0A@@std@@YAXAAV?$allocator@U_Container_proxy@std@@@0@QAU_Container_proxy@0@@Z
	??$_Debug_lt@ABIABI@std@@YA_NABI0PB_WI@Z
	??$_Debug_lt@AB_JAB_J@std@@YA_NAB_J0PB_WI@Z
	??$_Debug_lt_pred@AAU?$less@E@std@@AAEABE@std@@YA_NAAU?$less@E@0@AAEABEPB_WI@Z
	??$_Debug_lt_pred@AAU?$less@E@std@@ABEABE@std@@YA_NAAU?$less@E@0@ABE1PB_WI@Z
	??$_Debug_lt_pred@AAU?$less@G@std@@AAGABG@std@@YA_NAAU?$less@G@0@AAGABGPB_WI@Z
	??$_Debug_lt_pred@AAU?$less@G@std@@ABGABG@std@@YA_NAAU?$less@G@0@ABG1PB_WI@Z
	??$_Debug_lt_pred@AAU?$less@I@std@@AAIABI@std@@YA_NAAU?$less@I@0@AAIABIPB_WI@Z
	??$_Debug_lt_pred@AAU?$less@I@std@@ABIABI@std@@YA_NAAU?$less@I@0@ABI1PB_WI@Z
	??$_Debug_lt_pred@AAU?$less@PAVScriptInfo@Scripting@Core@@@std@@ABQAVScriptInfo@Scripting@Core@@ABQAV345@@std@@YA_NAAU?$less@PAVScriptInfo@Scripting@Core@@@0@ABQAVScriptInfo@Scripting@Core@@1PB_WI@Z
	??$_Debug_lt_pred@AAU?$less@V?$basic_string@DU?$char_traits@D@std@@V?$allocator@D@2@@std@@@std@@AAV?$basic_string@DU?$char_traits@D@std@@V?$allocator@D@2@@2@ABV32@@std@@YA_NAAU?$less@V?$basic_string@DU?$char_traits@D@std@@V?$allocator@D@2@@std@@@0@AAV?$basic_string@DU?$char_traits@D@std@@V?$allocator@D@2@@0@ABV20@PB_WI@Z
	??$_Debug_lt_pred@AAU?$less@V?$basic_string@DU?$char_traits@D@std@@V?$allocator@D@2@@std@@@std@@ABV?$basic_string@DU?$char_traits@D@std@@V?$allocator@D@2@@2@ABV32@@std@@YA_NAAU?$less@V?$basic_string@DU?$char_traits@D@std@@V?$allocator@D@2@@std@@@0@ABV?$basic_string@DU?$char_traits@D@std@@V?$allocator@D@2@@0@1PB_WI@Z
	??$_Debug_lt_pred@AAU?$less@V?$shared_ptr@VActor@Entity@Core@@@boost@@@std@@ABV?$shared_ptr@VActor@Entity@Core@@@boost@@ABV34@@std@@YA_NAAU?$less@V?$shared_ptr@VActor@Entity@Core@@@boost@@@0@ABV?$shared_ptr@VActor@Entity@Core@@@boost@@1PB_WI@Z
	??$_Debug_lt_pred@AAU?$less@V?$shared_ptr@VPlayer@Entity@Core@@@boost@@@std@@ABV?$shared_ptr@VPlayer@Entity@Core@@@boost@@ABV34@@std@@YA_NAAU?$less@V?$shared_ptr@VPlayer@Entity@Core@@@boost@@@0@ABV?$shared_ptr@VPlayer@Entity@Core@@@boost@@1PB_WI@Z
	??$_Debug_lt_pred@AAU?$less@V?$shared_ptr@VSession@Core@@@boost@@@std@@ABV?$shared_ptr@VSession@Core@@@boost@@ABV34@@std@@YA_NAAU?$less@V?$shared_ptr@VSession@Core@@@boost@@@0@ABV?$shared_ptr@VSession@Core@@@boost@@1PB_WI@Z
	??$_Debug_lt_pred@AAU?$less@V?$shared_ptr@VZone@Core@@@boost@@@std@@ABV?$shared_ptr@VZone@Core@@@boost@@ABV34@@std@@YA_NAAU?$less@V?$shared_ptr@VZone@Core@@@boost@@@0@ABV?$shared_ptr@VZone@Core@@@boost@@1PB_WI@Z
	??$_Debug_lt_pred@AAU?$less@Vtype_index@std@@@std@@AAVtype_index@2@ABV32@@std@@YA_NAAU?$less@Vtype_index@std@@@0@AAVtype_index@0@ABV20@PB_WI@Z
	??$_Debug_lt_pred@AAU?$less@Vtype_index@std@@@std@@ABVtype_index@2@ABV32@@std@@YA_NAAU?$less@Vtype_index@std@@@0@ABVtype_index@0@1PB_WI@Z
	??$_Debug_lt_pred@AAU?$less@X@std@@AADAAD@std@@YA_NAAU?$less@X@0@AAD1PB_WI@Z
	??$_Debug_lt_pred@AAU?$less@X@std@@AAU?$copy_map_entry@U?$sequenced_index_node@U?$ordered_index_node@Unull_augment_policy@detail@multi_index@boost@@U?$index_node_base@U?$pair@$$CBV?$basic_string@DU?$char_traits@D@std@@V?$allocator@D@2@@std@@V?$basic_ptree@V?$basic_string@DU?$char_traits@D@std@@V?$allocator@D@2@@std@@V12@U?$less@V?$basic_string@DU?$char_traits@D@std@@V?$allocator@D@2@@std@@@2@@property_tree@boost@@@std@@V?$allocator@U?$pair@$$CBV?$basic_string@DU?$char_traits@D@std@@V?$allocator@D@2@@std@@V?$basic_ptree@V?$basic_string@DU?$char_traits@D@std@@V?$allocator@D@2@@std@@V12@U?$less@V?$basic_string@DU?$char_traits@D@std@@V?$allocator@D@2@@std@@@2@@property_tree@boost@@@std@@@2@@234@@detail@multi_index@boost@@@detail@multi_index@boost@@@detail@multi_index@boost@@AAU3456@@std@@YA_NAAU?$less@X@0@AAU?$copy_map_entry@U?$sequenced_index_node@U?$ordered_index_node@Unull_augment_policy@detail@multi_index@boost@@U?$index_node_base@U?$pair@$$CBV?$basic_string@DU?$char_traits@D@std@@V?$allocator@D@2@@std@@V?$basic_ptree@V?$basic_string@DU?$char_traits@D@std@@V?$allocator@D@2@@std@@V12@U?$less@V?$basic_string@DU?$char_traits@D@std@@V?$allocator@D@2@@std@@@2@@property_tree@boost@@@std@@V?$allocator@U?$pair@$$CBV?$basic_string@DU?$char_traits@D@std@@V?$allocator@D@2@@std@@V?$basic_ptree@V?$basic_string@DU?$char_traits@D@std@@V?$allocator@D@2@@std@@V12@U?$less@V?$basic_string@DU?$char_traits@D@std@@V?$allocator@D@2@@std@@@2@@property_tree@boost@@@std@@@2@@234@@detail@multi_index@boost@@@detail@multi_index@boost@@@detail@multi_index@boost@@1PB_WI@Z
	??$_Debug_lt_pred@AAU?$less@_K@std@@AB_KAB_K@std@@YA_NAAU?$less@_K@0@AB_K1PB_WI@Z
	??$_Debug_lt_pred@ABU?$less@E@std@@ABEABE@std@@YA_NABU?$less@E@0@ABE1PB_WI@Z
	??$_Debug_lt_pred@ABU?$less@G@std@@ABGABG@std@@YA_NABU?$less@G@0@ABG1PB_WI@Z
	??$_Debug_lt_pred@ABU?$less@I@std@@ABIABI@std@@YA_NABU?$less@I@0@ABI1PB_WI@Z
	??$_Debug_lt_pred@ABU?$less@V?$basic_string@DU?$char_traits@D@std@@V?$allocator@D@2@@std@@@std@@ABV?$basic_string@DU?$char_traits@D@std@@V?$allocator@D@2@@2@ABV32@@std@@YA_NABU?$less@V?$basic_string@DU?$char_traits@D@std@@V?$allocator@D@2@@std@@@0@ABV?$basic_string@DU?$char_traits@D@std@@V?$allocator@D@2@@0@1PB_WI@Z
	??$_Debug_lt_pred@ABU?$less@V?$shared_ptr@VActor@Entity@Core@@@boost@@@std@@ABV?$shared_ptr@VActor@Entity@Core@@@boost@@ABV34@@std@@YA_NABU?$less@V?$shared_ptr@VActor@Entity@Core@@@boost@@@0@ABV?$shared_ptr@VActor@Entity@Core@@@boost@@1PB_WI@Z
	??$_Debug_lt_pred@ABU?$less@V?$shared_ptr@VPlayer@Entity@Core@@@boost@@@std@@ABV?$shared_ptr@VPlayer@Entity@Core@@@boost@@ABV34@@std@@YA_NABU?$less@V?$shared_ptr@VPlayer@Entity@Core@@@boost@@@0@ABV?$shared_ptr@VPlayer@Entity@Core@@@boost@@1PB_WI@Z
	??$_Debug_lt_pred@ABU?$less@V?$shared_ptr@VZone@Core@@@boost@@@std@@ABV?$shared_ptr@VZone@Core@@@boost@@ABV34@@std@@YA_NABU?$less@V?$shared_ptr@VZone@Core@@@boost@@@0@ABV?$shared_ptr@VZone@Core@@@boost@@1PB_WI@Z
	??$_Debug_lt_pred@ABU?$less@Vtype_index@std@@@std@@ABVtype_index@2@ABV32@@std@@YA_NABU?$less@Vtype_index@std@@@0@ABVtype_index@0@1PB_WI@Z
	??$_Debug_lt_pred@ABU?$less@_K@std@@AB_KAB_K@std@@YA_NABU?$less@_K@0@AB_K1PB_WI@Z
	??$_Debug_lt_pred@U?$less@X@std@@ABIABI@std@@YA_N$$QAU?$less@X@0@ABI1PB_WI@Z
	??$_Debug_lt_pred@U?$less@X@std@@AB_JAB_J@std@@YA_N$$QAU?$less@X@0@AB_J1PB_WI@Z
	??$_Debug_range2@PAD@std@@YAXPAD0PB_WIUrandom_access_iterator_tag@0@@Z
	??$_Debug_range2@PAE@std@@YAXPAE0PB_WIUrandom_access_iterator_tag@0@@Z
	??$_Debug_range2@PAPAD@std@@YAXPAPAD0PB_WIUrandom_access_iterator_tag@0@@Z
	??$_Debug_range2@PAU?$copy_map_entry@U?$sequenced_index_node@U?$ordered_index_node@Unull_augment_policy@detail@multi_index@boost@@U?$index_node_base@U?$pair@$$CBV?$basic_string@DU?$char_traits@D@std@@V?$allocator@D@2@@std@@V?$basic_ptree@V?$basic_string@DU?$char_traits@D@std@@V?$allocator@D@2@@std@@V12@U?$less@V?$basic_string@DU?$char_traits@D@std@@V?$allocator@D@2@@std@@@2@@property_tree@boost@@@std@@V?$allocator@U?$pair@$$CBV?$basic_string@DU?$char_traits@D@std@@V?$allocator@D@2@@std@@V?$basic_ptree@V?$basic_string@DU?$char_traits@D@std@@V?$allocator@D@2@@std@@V12@U?$less@V?$basic_string@DU?$char_traits@D@std@@V?$allocator@D@2@@std@@@2@@property_tree@boost@@@std@@@2@@234@@detail@multi_index@boost@@@detail@multi_index@boost@@@detail@multi_index@boost@@@std@@YAXPAU?$copy_map_entry@U?$sequenced_index_node@U?$ordered_index_node@Unull_augment_policy@detail@multi_index@boost@@U?$index_node_base@U?$pair@$$CBV?$basic_string@DU?$char_traits@D@std@@V?$allocator@D@2@@std@@V?$basic_ptree@V?$basic_string@DU?$char_traits@D@std@@V?$allocator@D@2@@std@@V12@U?$less@V?$basic_string@DU?$char_traits@D@std@@V?$allocator@D@2@@std@@@2@@property_tree@boost@@@std@@V?$allocator@U?$pair@$$CBV?$basic_string@DU?$char_traits@D@std@@V?$allocator@D@2@@std@@V?$basic_ptree@V?$basic_string@DU?$char_traits@D@std@@V?$allocator@D@2@@std@@V12@U?$less@V?$basic_string@DU?$char_traits@D@std@@V?$allocator@D@2@@std@@@2@@property_tree@boost@@@std@@@2@@234@@detail@multi_index@boost@@@detail@multi_index@boost@@@detail@multi_index@boost@@0PB_WIUrandom_access_iterator_tag@0@@Z
	??$_Debug_range2@PAV?$_List_unchecked_iterator@V?$_List_val@U?$_List_simple_types@U?$pair@$$CBIV?$shared_ptr@VZone@Core@@@boost@@@std@@@std@@@std@@@std@@@std@@YAXPAV?$_List_unchecked_iterator@V?$_List_val@U?$_List_simple_types@U?$pair@$$CBIV?$shared_ptr@VZone@Core@@@boost@@@std@@@std@@@std@@@0@0PB_WIUrandom_access_iterator_tag@0@@Z
	??$_Debug_range2@PBD@std@@YAXPBD0PB_WIUrandom_access_iterator_tag@0@@Z
	??$_Debug_range2@PBU?$copy_map_entry@U?$sequenced_index_node@U?$ordered_index_node@Unull_augment_policy@detail@multi_index@boost@@U?$index_node_base@U?$pair@$$CBV?$basic_string@DU?$char_traits@D@std@@V?$allocator@D@2@@std@@V?$basic_ptree@V?$basic_string@DU?$char_traits@D@std@@V?$allocator@D@2@@std@@V12@U?$less@V?$basic_string@DU?$char_traits@D@std@@V?$allocator@D@2@@std@@@2@@property_tree@boost@@@std@@V?$allocator@U?$pair@$$CBV?$basic_string@DU?$char_traits@D@std@@V?$allocator@D@2@@std@@V?$basic_ptree@V?$basic_string@DU?$char_traits@D@std@@V?$allocator@D@2@@std@@V12@U?$less@V?$basic_string@DU?$char_traits@D@std@@V?$allocator@D@2@@std@@@2@@property_tree@boost@@@std@@@2@@234@@detail@multi_index@boost@@@detail@multi_index@boost@@@detail@multi_index@boost@@@std@@YAXPBU?$copy_map_entry@U?$sequenced_index_node@U?$ordered_index_node@Unull_augment_policy@detail@multi_index@boost@@U?$index_node_base@U?$pair@$$CBV?$basic_string@DU?$char_traits@D@std@@V?$allocator@D@2@@std@@V?$basic_ptree@V?$basic_string@DU?$char_traits@D@std@@V?$allocator@D@2@@std@@V12@U?$less@V?$basic_string@DU?$char_traits@D@std@@V?$allocator@D@2@@std@@@2@@property_tree@boost@@@std@@V?$allocator@U?$pair@$$CBV?$basic_string@DU?$char_traits@D@std@@V?$allocator@D@2@@std@@V?$basic_ptree@V?$basic_string@DU?$char_traits@D@std@@V?$allocator@D@2@@std@@V12@U?$less@V?$basic_string@DU?$char_traits@D@std@@V?$allocator@D@2@@std@@@2@@property_tree@boost@@@std@@@2@@234@@detail@multi_index@boost@@@detail@multi_index@boost@@@detail@multi_index@boost@@0PB_WIUrandom_access_iterator_tag@0@@Z
	??$_Debug_range2@PBV?$shared_ptr@VZone@Core@@@boost@@@std@@YAXPBV?$shared_ptr@VZone@Core@@@boost@@0PB_WIUrandom_access_iterator_tag@0@@Z
	??$_Debug_range2@V?$_Deque_iterator@V?$_Deque_val@U?$_Deque_simple_types@D@std@@@std@@@std@@@std@@YAXV?$_Deque_iterator@V?$_Deque_val@U?$_Deque_simple_types@D@std@@@std@@@0@0PB_WIUrandom_access_iterator_tag@0@@Z
	??$_Debug_range2@V?$_Deque_unchecked_iterator@V?$_Deque_val@U?$_Deque_simple_types@D@std@@@std@@@std@@@std@@YAXV?$_Deque_unchecked_iterator@V?$_Deque_val@U?$_Deque_simple_types@D@std@@@std@@@0@0PB_WIUrandom_access_iterator_tag@0@@Z
	??$_Debug_range2@V?$_List_const_iterator@V?$_List_val@U?$_List_simple_types@U?$pair@$$CBHV?$shared_ptr@VPlayer@Entity@Core@@@boost@@@std@@@std@@@std@@@std@@@std@@YAXV?$_List_const_iterator@V?$_List_val@U?$_List_simple_types@U?$pair@$$CBHV?$shared_ptr@VPlayer@Entity@Core@@@boost@@@std@@@std@@@std@@@0@0PB_WIUinput_iterator_tag@0@@Z
	??$_Debug_range2@V?$_List_const_iterator@V?$_List_val@U?$_List_simple_types@U?$pair@$$CBIPAVScriptObject@@@std@@@std@@@std@@@std@@@std@@YAXV?$_List_const_iterator@V?$_List_val@U?$_List_simple_types@U?$pair@$$CBIPAVScriptObject@@@std@@@std@@@std@@@0@0PB_WIUinput_iterator_tag@0@@Z
	??$_Debug_range2@V?$_List_const_iterator@V?$_List_val@U?$_List_simple_types@U?$pair@$$CBIV?$shared_ptr@VZone@Core@@@boost@@@std@@@std@@@std@@@std@@@std@@YAXV?$_List_const_iterator@V?$_List_val@U?$_List_simple_types@U?$pair@$$CBIV?$shared_ptr@VZone@Core@@@boost@@@std@@@std@@@std@@@0@0PB_WIUinput_iterator_tag@0@@Z
	??$_Debug_range2@V?$_String_const_iterator@V?$_String_val@U?$_Simple_types@D@std@@@std@@@std@@@std@@YAXV?$_String_const_iterator@V?$_String_val@U?$_Simple_types@D@std@@@std@@@0@0PB_WIUrandom_access_iterator_tag@0@@Z
	??$_Debug_range2@V?$_String_iterator@V?$_String_val@U?$_Simple_types@D@std@@@std@@@std@@@std@@YAXV?$_String_iterator@V?$_String_val@U?$_Simple_types@D@std@@@std@@@0@0PB_WIUrandom_access_iterator_tag@0@@Z
	??$_Debug_range2@V?$_Vb_iterator@U?$_Wrap_alloc@V?$allocator@I@std@@@std@@@std@@@std@@YAXV?$_Vb_iterator@U?$_Wrap_alloc@V?$allocator@I@std@@@std@@@0@0PB_WIUrandom_access_iterator_tag@0@@Z
	??$_Debug_range2@V?$_Vector_iterator@V?$_Vector_val@U?$_Simple_types@V?$tuple@_KV?$basic_string@DU?$char_traits@D@std@@V?$allocator@D@2@@std@@@std@@@std@@@std@@@std@@@std@@YAXV?$_Vector_iterator@V?$_Vector_val@U?$_Simple_types@V?$tuple@_KV?$basic_string@DU?$char_traits@D@std@@V?$allocator@D@2@@std@@@std@@@std@@@std@@@0@0PB_WIUrandom_access_iterator_tag@0@@Z
	??$_Debug_range2@V?$_Vector_iterator@V?$_Vector_val@U?$_Simple_types@_K@std@@@std@@@std@@@std@@YAXV?$_Vector_iterator@V?$_Vector_val@U?$_Simple_types@_K@std@@@std@@@0@0PB_WIUrandom_access_iterator_tag@0@@Z
	??$_Debug_range2@V?$transform_iterator@U?$to_lowerF@D@detail@algorithm@boost@@V?$_String_const_iterator@V?$_String_val@U?$_Simple_types@D@std@@@std@@@std@@Uuse_default@iterators@4@U784@@iterators@boost@@@std@@YAXV?$transform_iterator@U?$to_lowerF@D@detail@algorithm@boost@@V?$_String_const_iterator@V?$_String_val@U?$_Simple_types@D@std@@@std@@@std@@Uuse_default@iterators@4@U784@@iterators@boost@@0PB_WIUinput_iterator_tag@0@@Z
	??$_Debug_range@PAD@std@@YAXPAD0PB_WI@Z
	??$_Debug_range@PAE@std@@YAXPAE0PB_WI@Z
	??$_Debug_range@PAPAD@std@@YAXPAPAD0PB_WI@Z
	??$_Debug_range@PAU?$copy_map_entry@U?$sequenced_index_node@U?$ordered_index_node@Unull_augment_policy@detail@multi_index@boost@@U?$index_node_base@U?$pair@$$CBV?$basic_string@DU?$char_traits@D@std@@V?$allocator@D@2@@std@@V?$basic_ptree@V?$basic_string@DU?$char_traits@D@std@@V?$allocator@D@2@@std@@V12@U?$less@V?$basic_string@DU?$char_traits@D@std@@V?$allocator@D@2@@std@@@2@@property_tree@boost@@@std@@V?$allocator@U?$pair@$$CBV?$basic_string@DU?$char_traits@D@std@@V?$allocator@D@2@@std@@V?$basic_ptree@V?$basic_string@DU?$char_traits@D@std@@V?$allocator@D@2@@std@@V12@U?$less@V?$basic_string@DU?$char_traits@D@std@@V?$allocator@D@2@@std@@@2@@property_tree@boost@@@std@@@2@@234@@detail@multi_index@boost@@@detail@multi_index@boost@@@detail@multi_index@boost@@@std@@YAXPAU?$copy_map_entry@U?$sequenced_index_node@U?$ordered_index_node@Unull_augment_policy@detail@multi_index@boost@@U?$index_node_base@U?$pair@$$CBV?$basic_string@DU?$char_traits@D@std@@V?$allocator@D@2@@std@@V?$basic_ptree@V?$basic_string@DU?$char_traits@D@std@@V?$allocator@D@2@@std@@V12@U?$less@V?$basic_string@DU?$char_traits@D@std@@V?$allocator@D@2@@std@@@2@@property_tree@boost@@@std@@V?$allocator@U?$pair@$$CBV?$basic_string@DU?$char_traits@D@std@@V?$allocator@D@2@@std@@V?$basic_ptree@V?$basic_string@DU?$char_traits@D@std@@V?$allocator@D@2@@std@@V12@U?$less@V?$basic_string@DU?$char_traits@D@std@@V?$allocator@D@2@@std@@@2@@property_tree@boost@@@std@@@2@@234@@detail@multi_index@boost@@@detail@multi_index@boost@@@detail@multi_index@boost@@0PB_WI@Z
	??$_Debug_range@PAV?$_List_unchecked_iterator@V?$_List_val@U?$_List_simple_types@U?$pair@$$CBIV?$shared_ptr@VZone@Core@@@boost@@@std@@@std@@@std@@@std@@@std@@YAXPAV?$_List_unchecked_iterator@V?$_List_val@U?$_List_simple_types@U?$pair@$$CBIV?$shared_ptr@VZone@Core@@@boost@@@std@@@std@@@std@@@0@0PB_WI@Z
	??$_Debug_range@PBD@std@@YAXPBD0PB_WI@Z
	??$_Debug_range@PBU?$copy_map_entry@U?$sequenced_index_node@U?$ordered_index_node@Unull_augment_policy@detail@multi_index@boost@@U?$index_node_base@U?$pair@$$CBV?$basic_string@DU?$char_traits@D@std@@V?$allocator@D@2@@std@@V?$basic_ptree@V?$basic_string@DU?$char_traits@D@std@@V?$allocator@D@2@@std@@V12@U?$less@V?$basic_string@DU?$char_traits@D@std@@V?$allocator@D@2@@std@@@2@@property_tree@boost@@@std@@V?$allocator@U?$pair@$$CBV?$basic_string@DU?$char_traits@D@std@@V?$allocator@D@2@@std@@V?$basic_ptree@V?$basic_string@DU?$char_traits@D@std@@V?$allocator@D@2@@std@@V12@U?$less@V?$basic_string@DU?$char_traits@D@std@@V?$allocator@D@2@@std@@@2@@property_tree@boost@@@std@@@2@@234@@detail@multi_index@boost@@@detail@multi_index@boost@@@detail@multi_index@boost@@@std@@YAXPBU?$copy_map_entry@U?$sequenced_index_node@U?$ordered_index_node@Unull_augment_policy@detail@multi_index@boost@@U?$index_node_base@U?$pair@$$CBV?$basic_string@DU?$char_traits@D@std@@V?$allocator@D@2@@std@@V?$basic_ptree@V?$basic_string@DU?$char_traits@D@std@@V?$allocator@D@2@@std@@V12@U?$less@V?$basic_string@DU?$char_traits@D@std@@V?$allocator@D@2@@std@@@2@@property_tree@boost@@@std@@V?$allocator@U?$pair@$$CBV?$basic_string@DU?$char_traits@D@std@@V?$allocator@D@2@@std@@V?$basic_ptree@V?$basic_string@DU?$char_traits@D@std@@V?$allocator@D@2@@std@@V12@U?$less@V?$basic_string@DU?$char_traits@D@std@@V?$allocator@D@2@@std@@@2@@property_tree@boost@@@std@@@2@@234@@detail@multi_index@boost@@@detail@multi_index@boost@@@detail@multi_index@boost@@0PB_WI@Z
	??$_Debug_range@PBV?$shared_ptr@VZone@Core@@@boost@@@std@@YAXPBV?$shared_ptr@VZone@Core@@@boost@@0PB_WI@Z
	??$_Debug_range@V?$_Deque_iterator@V?$_Deque_val@U?$_Deque_simple_types@D@std@@@std@@@std@@@std@@YAXV?$_Deque_iterator@V?$_Deque_val@U?$_Deque_simple_types@D@std@@@std@@@0@0PB_WI@Z
	??$_Debug_range@V?$_Deque_unchecked_iterator@V?$_Deque_val@U?$_Deque_simple_types@D@std@@@std@@@std@@@std@@YAXV?$_Deque_unchecked_iterator@V?$_Deque_val@U?$_Deque_simple_types@D@std@@@std@@@0@0PB_WI@Z
	??$_Debug_range@V?$_List_const_iterator@V?$_List_val@U?$_List_simple_types@U?$pair@$$CBHV?$shared_ptr@VPlayer@Entity@Core@@@boost@@@std@@@std@@@std@@@std@@@std@@YAXV?$_List_const_iterator@V?$_List_val@U?$_List_simple_types@U?$pair@$$CBHV?$shared_ptr@VPlayer@Entity@Core@@@boost@@@std@@@std@@@std@@@0@0PB_WI@Z
	??$_Debug_range@V?$_List_const_iterator@V?$_List_val@U?$_List_simple_types@U?$pair@$$CBIPAVScriptObject@@@std@@@std@@@std@@@std@@@std@@YAXV?$_List_const_iterator@V?$_List_val@U?$_List_simple_types@U?$pair@$$CBIPAVScriptObject@@@std@@@std@@@std@@@0@0PB_WI@Z
	??$_Debug_range@V?$_List_const_iterator@V?$_List_val@U?$_List_simple_types@U?$pair@$$CBIV?$shared_ptr@VZone@Core@@@boost@@@std@@@std@@@std@@@std@@@std@@YAXV?$_List_const_iterator@V?$_List_val@U?$_List_simple_types@U?$pair@$$CBIV?$shared_ptr@VZone@Core@@@boost@@@std@@@std@@@std@@@0@0PB_WI@Z
	??$_Debug_range@V?$_String_const_iterator@V?$_String_val@U?$_Simple_types@D@std@@@std@@@std@@@std@@YAXV?$_String_const_iterator@V?$_String_val@U?$_Simple_types@D@std@@@std@@@0@0PB_WI@Z
	??$_Debug_range@V?$_String_iterator@V?$_String_val@U?$_Simple_types@D@std@@@std@@@std@@@std@@YAXV?$_String_iterator@V?$_String_val@U?$_Simple_types@D@std@@@std@@@0@0PB_WI@Z
	??$_Debug_range@V?$_Vb_iterator@U?$_Wrap_alloc@V?$allocator@I@std@@@std@@@std@@@std@@YAXV?$_Vb_iterator@U?$_Wrap_alloc@V?$allocator@I@std@@@std@@@0@0PB_WI@Z
	??$_Debug_range@V?$_Vector_iterator@V?$_Vector_val@U?$_Simple_types@V?$tuple@_KV?$basic_string@DU?$char_traits@D@std@@V?$allocator@D@2@@std@@@std@@@std@@@std@@@std@@@std@@YAXV?$_Vector_iterator@V?$_Vector_val@U?$_Simple_types@V?$tuple@_KV?$basic_string@DU?$char_traits@D@std@@V?$allocator@D@2@@std@@@std@@@std@@@std@@@0@0PB_WI@Z
	??$_Debug_range@V?$_Vector_iterator@V?$_Vector_val@U?$_Simple_types@_K@std@@@std@@@std@@@std@@YAXV?$_Vector_iterator@V?$_Vector_val@U?$_Simple_types@_K@std@@@std@@@0@0PB_WI@Z
	??$_Debug_range@V?$transform_iterator@U?$to_lowerF@D@detail@algorithm@boost@@V?$_String_const_iterator@V?$_String_val@U?$_Simple_types@D@std@@@std@@@std@@Uuse_default@iterators@4@U784@@iterators@boost@@@std@@YAXV?$transform_iterator@U?$to_lowerF@D@detail@algorithm@boost@@V?$_String_const_iterator@V?$_String_val@U?$_Simple_types@D@std@@@std@@@std@@Uuse_default@iterators@4@U784@@iterators@boost@@0PB_WI@Z
	??$_Destroy_range1@V?$allocator@D@std@@@std@@YAXPAD0AAV?$allocator@D@0@U?$integral_constant@_N$00@0@@Z
	??$_Destroy_range1@V?$allocator@E@std@@@std@@YAXPAE0AAV?$allocator@E@0@U?$integral_constant@_N$00@0@@Z
	??$_Destroy_range1@V?$allocator@G@std@@@std@@YAXPAG0AAV?$allocator@G@0@U?$integral_constant@_N$00@0@@Z
	??$_Destroy_range1@V?$allocator@I@std@@@std@@YAXPAI0AAV?$allocator@I@0@U?$integral_constant@_N$00@0@@Z
	??$_Destroy_range1@V?$allocator@PAD@std@@@std@@YAXPAPAD0AAV?$allocator@PAD@0@U?$integral_constant@_N$00@0@@Z
	??$_Destroy_range1@V?$allocator@PAE@std@@@std@@YAXPAPAE0AAV?$allocator@PAE@0@U?$integral_constant@_N$00@0@@Z
	??$_Destroy_range1@V?$allocator@PAV?$basic_string@DU?$char_traits@D@std@@V?$allocator@D@2@@std@@@std@@@std@@YAXPAPAV?$basic_string@DU?$char_traits@D@std@@V?$allocator@D@2@@0@0AAV?$allocator@PAV?$basic_string@DU?$char_traits@D@std@@V?$allocator@D@2@@std@@@0@U?$integral_constant@_N$00@0@@Z
	??$_Destroy_range1@V?$allocator@PAV?$shared_ptr@VGamePacket@Packets@Network@Core@@@boost@@@std@@@std@@YAXPAPAV?$shared_ptr@VGamePacket@Packets@Network@Core@@@boost@@0AAV?$allocator@PAV?$shared_ptr@VGamePacket@Packets@Network@Core@@@boost@@@0@U?$integral_constant@_N$00@0@@Z
	??$_Destroy_range1@V?$allocator@PAVScriptObject@@@std@@@std@@YAXPAPAVScriptObject@@0AAV?$allocator@PAVScriptObject@@@0@U?$integral_constant@_N$00@0@@Z
	??$_Destroy_range1@V?$allocator@U?$format_item@DU?$char_traits@D@std@@V?$allocator@D@2@@detail@io@boost@@@std@@@std@@YAXPAU?$format_item@DU?$char_traits@D@std@@V?$allocator@D@2@@detail@io@boost@@0AAV?$allocator@U?$format_item@DU?$char_traits@D@std@@V?$allocator@D@2@@detail@io@boost@@@0@U?$integral_constant@_N$0A@@0@@Z
	??$_Destroy_range1@V?$allocator@U?$pair@EI@std@@@std@@@std@@YAXPAU?$pair@EI@0@0AAV?$allocator@U?$pair@EI@std@@@0@U?$integral_constant@_N$00@0@@Z
	??$_Destroy_range1@V?$allocator@U?$pair@GC@std@@@std@@@std@@YAXPAU?$pair@GC@0@0AAV?$allocator@U?$pair@GC@std@@@0@U?$integral_constant@_N$00@0@@Z
	??$_Destroy_range1@V?$allocator@UFFXIVARR_PACKET_RAW@Packets@Network@Core@@@std@@@std@@YAXPAUFFXIVARR_PACKET_RAW@Packets@Network@Core@@0AAV?$allocator@UFFXIVARR_PACKET_RAW@Packets@Network@Core@@@0@U?$integral_constant@_N$0A@@0@@Z
	??$_Destroy_range1@V?$allocator@V?$_List_unchecked_iterator@V?$_List_val@U?$_List_simple_types@U?$pair@$$CBGV?$shared_ptr@UTerritoryType@Data@Core@@@boost@@@std@@@std@@@std@@@std@@@std@@@std@@YAXPAV?$_List_unchecked_iterator@V?$_List_val@U?$_List_simple_types@U?$pair@$$CBGV?$shared_ptr@UTerritoryType@Data@Core@@@boost@@@std@@@std@@@std@@@0@0AAV?$allocator@V?$_List_unchecked_iterator@V?$_List_val@U?$_List_simple_types@U?$pair@$$CBGV?$shared_ptr@UTerritoryType@Data@Core@@@boost@@@std@@@std@@@std@@@std@@@0@U?$integral_constant@_N$00@0@@Z
	??$_Destroy_range1@V?$allocator@V?$_List_unchecked_iterator@V?$_List_val@U?$_List_simple_types@U?$pair@$$CBGV?$unordered_map@IV?$shared_ptr@VZone@Core@@@boost@@U?$hash@I@std@@U?$equal_to@I@4@V?$allocator@U?$pair@$$CBIV?$shared_ptr@VZone@Core@@@boost@@@std@@@4@@std@@@std@@@std@@@std@@@std@@@std@@@std@@YAXPAV?$_List_unchecked_iterator@V?$_List_val@U?$_List_simple_types@U?$pair@$$CBGV?$unordered_map@IV?$shared_ptr@VZone@Core@@@boost@@U?$hash@I@std@@U?$equal_to@I@4@V?$allocator@U?$pair@$$CBIV?$shared_ptr@VZone@Core@@@boost@@@std@@@4@@std@@@std@@@std@@@std@@@0@0AAV?$allocator@V?$_List_unchecked_iterator@V?$_List_val@U?$_List_simple_types@U?$pair@$$CBGV?$unordered_map@IV?$shared_ptr@VZone@Core@@@boost@@U?$hash@I@std@@U?$equal_to@I@4@V?$allocator@U?$pair@$$CBIV?$shared_ptr@VZone@Core@@@boost@@@std@@@4@@std@@@std@@@std@@@std@@@std@@@0@U?$integral_constant@_N$00@0@@Z
	??$_Destroy_range1@V?$allocator@V?$_List_unchecked_iterator@V?$_List_val@U?$_List_simple_types@U?$pair@$$CBHV?$shared_ptr@VEventObject@Entity@Core@@@boost@@@std@@@std@@@std@@@std@@@std@@@std@@YAXPAV?$_List_unchecked_iterator@V?$_List_val@U?$_List_simple_types@U?$pair@$$CBHV?$shared_ptr@VEventObject@Entity@Core@@@boost@@@std@@@std@@@std@@@0@0AAV?$allocator@V?$_List_unchecked_iterator@V?$_List_val@U?$_List_simple_types@U?$pair@$$CBHV?$shared_ptr@VEventObject@Entity@Core@@@boost@@@std@@@std@@@std@@@std@@@0@U?$integral_constant@_N$00@0@@Z
	??$_Destroy_range1@V?$allocator@V?$_List_unchecked_iterator@V?$_List_val@U?$_List_simple_types@U?$pair@$$CBHV?$shared_ptr@VPlayer@Entity@Core@@@boost@@@std@@@std@@@std@@@std@@@std@@@std@@YAXPAV?$_List_unchecked_iterator@V?$_List_val@U?$_List_simple_types@U?$pair@$$CBHV?$shared_ptr@VPlayer@Entity@Core@@@boost@@@std@@@std@@@std@@@0@0AAV?$allocator@V?$_List_unchecked_iterator@V?$_List_val@U?$_List_simple_types@U?$pair@$$CBHV?$shared_ptr@VPlayer@Entity@Core@@@boost@@@std@@@std@@@std@@@std@@@0@U?$integral_constant@_N$00@0@@Z
	??$_Destroy_range1@V?$allocator@V?$_List_unchecked_iterator@V?$_List_val@U?$_List_simple_types@U?$pair@$$CBHV?$shared_ptr@VZonePosition@Core@@@boost@@@std@@@std@@@std@@@std@@@std@@@std@@YAXPAV?$_List_unchecked_iterator@V?$_List_val@U?$_List_simple_types@U?$pair@$$CBHV?$shared_ptr@VZonePosition@Core@@@boost@@@std@@@std@@@std@@@0@0AAV?$allocator@V?$_List_unchecked_iterator@V?$_List_val@U?$_List_simple_types@U?$pair@$$CBHV?$shared_ptr@VZonePosition@Core@@@boost@@@std@@@std@@@std@@@std@@@0@U?$integral_constant@_N$00@0@@Z
	??$_Destroy_range1@V?$allocator@V?$_List_unchecked_iterator@V?$_List_val@U?$_List_simple_types@U?$pair@$$CBIE@std@@@std@@@std@@@std@@@std@@@std@@YAXPAV?$_List_unchecked_iterator@V?$_List_val@U?$_List_simple_types@U?$pair@$$CBIE@std@@@std@@@std@@@0@0AAV?$allocator@V?$_List_unchecked_iterator@V?$_List_val@U?$_List_simple_types@U?$pair@$$CBIE@std@@@std@@@std@@@std@@@0@U?$integral_constant@_N$00@0@@Z
	??$_Destroy_range1@V?$allocator@V?$_List_unchecked_iterator@V?$_List_val@U?$_List_simple_types@U?$pair@$$CBII@std@@@std@@@std@@@std@@@std@@@std@@YAXPAV?$_List_unchecked_iterator@V?$_List_val@U?$_List_simple_types@U?$pair@$$CBII@std@@@std@@@std@@@0@0AAV?$allocator@V?$_List_unchecked_iterator@V?$_List_val@U?$_List_simple_types@U?$pair@$$CBII@std@@@std@@@std@@@std@@@0@U?$integral_constant@_N$00@0@@Z
	??$_Destroy_range1@V?$allocator@V?$_List_unchecked_iterator@V?$_List_val@U?$_List_simple_types@U?$pair@$$CBIPAVScriptObject@@@std@@@std@@@std@@@std@@@std@@@std@@YAXPAV?$_List_unchecked_iterator@V?$_List_val@U?$_List_simple_types@U?$pair@$$CBIPAVScriptObject@@@std@@@std@@@std@@@0@0AAV?$allocator@V?$_List_unchecked_iterator@V?$_List_val@U?$_List_simple_types@U?$pair@$$CBIPAVScriptObject@@@std@@@std@@@std@@@std@@@0@U?$integral_constant@_N$00@0@@Z
	??$_Destroy_range1@V?$allocator@V?$_List_unchecked_iterator@V?$_List_val@U?$_List_simple_types@U?$pair@$$CBIV?$shared_ptr@VEventObject@Entity@Core@@@boost@@@std@@@std@@@std@@@std@@@std@@@std@@YAXPAV?$_List_unchecked_iterator@V?$_List_val@U?$_List_simple_types@U?$pair@$$CBIV?$shared_ptr@VEventObject@Entity@Core@@@boost@@@std@@@std@@@std@@@0@0AAV?$allocator@V?$_List_unchecked_iterator@V?$_List_val@U?$_List_simple_types@U?$pair@$$CBIV?$shared_ptr@VEventObject@Entity@Core@@@boost@@@std@@@std@@@std@@@std@@@0@U?$integral_constant@_N$00@0@@Z
	??$_Destroy_range1@V?$allocator@V?$_List_unchecked_iterator@V?$_List_val@U?$_List_simple_types@U?$pair@$$CBIV?$shared_ptr@VZone@Core@@@boost@@@std@@@std@@@std@@@std@@@std@@@std@@YAXPAV?$_List_unchecked_iterator@V?$_List_val@U?$_List_simple_types@U?$pair@$$CBIV?$shared_ptr@VZone@Core@@@boost@@@std@@@std@@@std@@@0@0AAV?$allocator@V?$_List_unchecked_iterator@V?$_List_val@U?$_List_simple_types@U?$pair@$$CBIV?$shared_ptr@VZone@Core@@@boost@@@std@@@std@@@std@@@std@@@0@U?$integral_constant@_N$00@0@@Z
	??$_Destroy_range1@V?$allocator@V?$_List_unchecked_iterator@V?$_List_val@U?$_List_simple_types@U?$pair@$$CBIV?$unordered_map@IPAVScriptObject@@U?$hash@I@std@@U?$equal_to@I@3@V?$allocator@U?$pair@$$CBIPAVScriptObject@@@std@@@3@@std@@@std@@@std@@@std@@@std@@@std@@@std@@YAXPAV?$_List_unchecked_iterator@V?$_List_val@U?$_List_simple_types@U?$pair@$$CBIV?$unordered_map@IPAVScriptObject@@U?$hash@I@std@@U?$equal_to@I@3@V?$allocator@U?$pair@$$CBIPAVScriptObject@@@std@@@3@@std@@@std@@@std@@@std@@@0@0AAV?$allocator@V?$_List_unchecked_iterator@V?$_List_val@U?$_List_simple_types@U?$pair@$$CBIV?$unordered_map@IPAVScriptObject@@U?$hash@I@std@@U?$equal_to@I@3@V?$allocator@U?$pair@$$CBIPAVScriptObject@@@std@@@3@@std@@@std@@@std@@@std@@@std@@@0@U?$integral_constant@_N$00@0@@Z
	??$_Destroy_range1@V?$allocator@V?$_List_unchecked_iterator@V?$_List_val@U?$_List_simple_types@U?$pair@$$CBV?$basic_string@DU?$char_traits@D@std@@V?$allocator@D@2@@std@@PAVScriptInfo@Scripting@Core@@@std@@@std@@@std@@@std@@@std@@@std@@YAXPAV?$_List_unchecked_iterator@V?$_List_val@U?$_List_simple_types@U?$pair@$$CBV?$basic_string@DU?$char_traits@D@std@@V?$allocator@D@2@@std@@PAVScriptInfo@Scripting@Core@@@std@@@std@@@std@@@0@0AAV?$allocator@V?$_List_unchecked_iterator@V?$_List_val@U?$_List_simple_types@U?$pair@$$CBV?$basic_string@DU?$char_traits@D@std@@V?$allocator@D@2@@std@@PAVScriptInfo@Scripting@Core@@@std@@@std@@@std@@@std@@@0@U?$integral_constant@_N$00@0@@Z
	??$_Destroy_range1@V?$allocator@V?$basic_string@DU?$char_traits@D@std@@V?$allocator@D@2@@std@@@std@@@std@@YAXPAV?$basic_string@DU?$char_traits@D@std@@V?$allocator@D@2@@0@0AAV?$allocator@V?$basic_string@DU?$char_traits@D@std@@V?$allocator@D@2@@std@@@0@U?$integral_constant@_N$0A@@0@@Z
	??$_Destroy_range1@V?$allocator@V?$tuple@_KV?$basic_string@DU?$char_traits@D@std@@V?$allocator@D@2@@std@@@std@@@std@@@std@@YAXPAV?$tuple@_KV?$basic_string@DU?$char_traits@D@std@@V?$allocator@D@2@@std@@@0@0AAV?$allocator@V?$tuple@_KV?$basic_string@DU?$char_traits@D@std@@V?$allocator@D@2@@std@@@std@@@0@U?$integral_constant@_N$0A@@0@@Z
	??$_Destroy_range1@V?$allocator@V?$variant@V?$basic_string@DU?$char_traits@D@std@@V?$allocator@D@2@@std@@_NCEFGHIM_K@boost@@@std@@@std@@YAXPAV?$variant@V?$basic_string@DU?$char_traits@D@std@@V?$allocator@D@2@@std@@_NCEFGHIM_K@boost@@0AAV?$allocator@V?$variant@V?$basic_string@DU?$char_traits@D@std@@V?$allocator@D@2@@std@@_NCEFGHIM_K@boost@@@0@U?$integral_constant@_N$0A@@0@@Z
	??$_Destroy_range1@V?$allocator@Vpath@filesystem@boost@@@std@@@std@@YAXPAVpath@filesystem@boost@@0AAV?$allocator@Vpath@filesystem@boost@@@0@U?$integral_constant@_N$0A@@0@@Z
	??$_Destroy_range1@V?$allocator@Vthread@std@@@std@@@std@@YAXPAVthread@0@0AAV?$allocator@Vthread@std@@@0@U?$integral_constant@_N$0A@@0@@Z
	??$_Destroy_range1@V?$allocator@W4PlayerStateFlag@Common@Core@@@std@@@std@@YAXPAW4PlayerStateFlag@Common@Core@@0AAV?$allocator@W4PlayerStateFlag@Common@Core@@@0@U?$integral_constant@_N$00@0@@Z
	??$_Destroy_range1@V?$allocator@_K@std@@@std@@YAXPA_K0AAV?$allocator@_K@0@U?$integral_constant@_N$00@0@@Z
	??$_Destroy_range@V?$allocator@D@std@@@std@@YAXPAD0AAV?$allocator@D@0@@Z
	??$_Destroy_range@V?$allocator@E@std@@@std@@YAXPAE0AAV?$allocator@E@0@@Z
	??$_Destroy_range@V?$allocator@G@std@@@std@@YAXPAG0AAV?$allocator@G@0@@Z
	??$_Destroy_range@V?$allocator@I@std@@@std@@YAXPAI0AAV?$allocator@I@0@@Z
	??$_Destroy_range@V?$allocator@PAD@std@@@std@@YAXPAPAD0AAV?$allocator@PAD@0@@Z
	??$_Destroy_range@V?$allocator@PAE@std@@@std@@YAXPAPAE0AAV?$allocator@PAE@0@@Z
	??$_Destroy_range@V?$allocator@PAV?$basic_string@DU?$char_traits@D@std@@V?$allocator@D@2@@std@@@std@@@std@@YAXPAPAV?$basic_string@DU?$char_traits@D@std@@V?$allocator@D@2@@0@0AAV?$allocator@PAV?$basic_string@DU?$char_traits@D@std@@V?$allocator@D@2@@std@@@0@@Z
	??$_Destroy_range@V?$allocator@PAV?$shared_ptr@VGamePacket@Packets@Network@Core@@@boost@@@std@@@std@@YAXPAPAV?$shared_ptr@VGamePacket@Packets@Network@Core@@@boost@@0AAV?$allocator@PAV?$shared_ptr@VGamePacket@Packets@Network@Core@@@boost@@@0@@Z
	??$_Destroy_range@V?$allocator@PAVScriptObject@@@std@@@std@@YAXPAPAVScriptObject@@0AAV?$allocator@PAVScriptObject@@@0@@Z
	??$_Destroy_range@V?$allocator@U?$format_item@DU?$char_traits@D@std@@V?$allocator@D@2@@detail@io@boost@@@std@@@std@@YAXPAU?$format_item@DU?$char_traits@D@std@@V?$allocator@D@2@@detail@io@boost@@0AAV?$allocator@U?$format_item@DU?$char_traits@D@std@@V?$allocator@D@2@@detail@io@boost@@@0@@Z
	??$_Destroy_range@V?$allocator@U?$pair@EI@std@@@std@@@std@@YAXPAU?$pair@EI@0@0AAV?$allocator@U?$pair@EI@std@@@0@@Z
	??$_Destroy_range@V?$allocator@U?$pair@GC@std@@@std@@@std@@YAXPAU?$pair@GC@0@0AAV?$allocator@U?$pair@GC@std@@@0@@Z
	??$_Destroy_range@V?$allocator@UFFXIVARR_PACKET_RAW@Packets@Network@Core@@@std@@@std@@YAXPAUFFXIVARR_PACKET_RAW@Packets@Network@Core@@0AAV?$allocator@UFFXIVARR_PACKET_RAW@Packets@Network@Core@@@0@@Z
	??$_Destroy_range@V?$allocator@V?$_List_unchecked_iterator@V?$_List_val@U?$_List_simple_types@U?$pair@$$CBGV?$shared_ptr@UTerritoryType@Data@Core@@@boost@@@std@@@std@@@std@@@std@@@std@@@std@@YAXPAV?$_List_unchecked_iterator@V?$_List_val@U?$_List_simple_types@U?$pair@$$CBGV?$shared_ptr@UTerritoryType@Data@Core@@@boost@@@std@@@std@@@std@@@0@0AAV?$allocator@V?$_List_unchecked_iterator@V?$_List_val@U?$_List_simple_types@U?$pair@$$CBGV?$shared_ptr@UTerritoryType@Data@Core@@@boost@@@std@@@std@@@std@@@std@@@0@@Z
	??$_Destroy_range@V?$allocator@V?$_List_unchecked_iterator@V?$_List_val@U?$_List_simple_types@U?$pair@$$CBGV?$unordered_map@IV?$shared_ptr@VZone@Core@@@boost@@U?$hash@I@std@@U?$equal_to@I@4@V?$allocator@U?$pair@$$CBIV?$shared_ptr@VZone@Core@@@boost@@@std@@@4@@std@@@std@@@std@@@std@@@std@@@std@@@std@@YAXPAV?$_List_unchecked_iterator@V?$_List_val@U?$_List_simple_types@U?$pair@$$CBGV?$unordered_map@IV?$shared_ptr@VZone@Core@@@boost@@U?$hash@I@std@@U?$equal_to@I@4@V?$allocator@U?$pair@$$CBIV?$shared_ptr@VZone@Core@@@boost@@@std@@@4@@std@@@std@@@std@@@std@@@0@0AAV?$allocator@V?$_List_unchecked_iterator@V?$_List_val@U?$_List_simple_types@U?$pair@$$CBGV?$unordered_map@IV?$shared_ptr@VZone@Core@@@boost@@U?$hash@I@std@@U?$equal_to@I@4@V?$allocator@U?$pair@$$CBIV?$shared_ptr@VZone@Core@@@boost@@@std@@@4@@std@@@std@@@std@@@std@@@std@@@0@@Z
	??$_Destroy_range@V?$allocator@V?$_List_unchecked_iterator@V?$_List_val@U?$_List_simple_types@U?$pair@$$CBHV?$shared_ptr@VEventObject@Entity@Core@@@boost@@@std@@@std@@@std@@@std@@@std@@@std@@YAXPAV?$_List_unchecked_iterator@V?$_List_val@U?$_List_simple_types@U?$pair@$$CBHV?$shared_ptr@VEventObject@Entity@Core@@@boost@@@std@@@std@@@std@@@0@0AAV?$allocator@V?$_List_unchecked_iterator@V?$_List_val@U?$_List_simple_types@U?$pair@$$CBHV?$shared_ptr@VEventObject@Entity@Core@@@boost@@@std@@@std@@@std@@@std@@@0@@Z
	??$_Destroy_range@V?$allocator@V?$_List_unchecked_iterator@V?$_List_val@U?$_List_simple_types@U?$pair@$$CBHV?$shared_ptr@VPlayer@Entity@Core@@@boost@@@std@@@std@@@std@@@std@@@std@@@std@@YAXPAV?$_List_unchecked_iterator@V?$_List_val@U?$_List_simple_types@U?$pair@$$CBHV?$shared_ptr@VPlayer@Entity@Core@@@boost@@@std@@@std@@@std@@@0@0AAV?$allocator@V?$_List_unchecked_iterator@V?$_List_val@U?$_List_simple_types@U?$pair@$$CBHV?$shared_ptr@VPlayer@Entity@Core@@@boost@@@std@@@std@@@std@@@std@@@0@@Z
	??$_Destroy_range@V?$allocator@V?$_List_unchecked_iterator@V?$_List_val@U?$_List_simple_types@U?$pair@$$CBHV?$shared_ptr@VZonePosition@Core@@@boost@@@std@@@std@@@std@@@std@@@std@@@std@@YAXPAV?$_List_unchecked_iterator@V?$_List_val@U?$_List_simple_types@U?$pair@$$CBHV?$shared_ptr@VZonePosition@Core@@@boost@@@std@@@std@@@std@@@0@0AAV?$allocator@V?$_List_unchecked_iterator@V?$_List_val@U?$_List_simple_types@U?$pair@$$CBHV?$shared_ptr@VZonePosition@Core@@@boost@@@std@@@std@@@std@@@std@@@0@@Z
	??$_Destroy_range@V?$allocator@V?$_List_unchecked_iterator@V?$_List_val@U?$_List_simple_types@U?$pair@$$CBIE@std@@@std@@@std@@@std@@@std@@@std@@YAXPAV?$_List_unchecked_iterator@V?$_List_val@U?$_List_simple_types@U?$pair@$$CBIE@std@@@std@@@std@@@0@0AAV?$allocator@V?$_List_unchecked_iterator@V?$_List_val@U?$_List_simple_types@U?$pair@$$CBIE@std@@@std@@@std@@@std@@@0@@Z
	??$_Destroy_range@V?$allocator@V?$_List_unchecked_iterator@V?$_List_val@U?$_List_simple_types@U?$pair@$$CBII@std@@@std@@@std@@@std@@@std@@@std@@YAXPAV?$_List_unchecked_iterator@V?$_List_val@U?$_List_simple_types@U?$pair@$$CBII@std@@@std@@@std@@@0@0AAV?$allocator@V?$_List_unchecked_iterator@V?$_List_val@U?$_List_simple_types@U?$pair@$$CBII@std@@@std@@@std@@@std@@@0@@Z
	??$_Destroy_range@V?$allocator@V?$_List_unchecked_iterator@V?$_List_val@U?$_List_simple_types@U?$pair@$$CBIPAVScriptObject@@@std@@@std@@@std@@@std@@@std@@@std@@YAXPAV?$_List_unchecked_iterator@V?$_List_val@U?$_List_simple_types@U?$pair@$$CBIPAVScriptObject@@@std@@@std@@@std@@@0@0AAV?$allocator@V?$_List_unchecked_iterator@V?$_List_val@U?$_List_simple_types@U?$pair@$$CBIPAVScriptObject@@@std@@@std@@@std@@@std@@@0@@Z
	??$_Destroy_range@V?$allocator@V?$_List_unchecked_iterator@V?$_List_val@U?$_List_simple_types@U?$pair@$$CBIV?$shared_ptr@VEventObject@Entity@Core@@@boost@@@std@@@std@@@std@@@std@@@std@@@std@@YAXPAV?$_List_unchecked_iterator@V?$_List_val@U?$_List_simple_types@U?$pair@$$CBIV?$shared_ptr@VEventObject@Entity@Core@@@boost@@@std@@@std@@@std@@@0@0AAV?$allocator@V?$_List_unchecked_iterator@V?$_List_val@U?$_List_simple_types@U?$pair@$$CBIV?$shared_ptr@VEventObject@Entity@Core@@@boost@@@std@@@std@@@std@@@std@@@0@@Z
	??$_Destroy_range@V?$allocator@V?$_List_unchecked_iterator@V?$_List_val@U?$_List_simple_types@U?$pair@$$CBIV?$shared_ptr@VZone@Core@@@boost@@@std@@@std@@@std@@@std@@@std@@@std@@YAXPAV?$_List_unchecked_iterator@V?$_List_val@U?$_List_simple_types@U?$pair@$$CBIV?$shared_ptr@VZone@Core@@@boost@@@std@@@std@@@std@@@0@0AAV?$allocator@V?$_List_unchecked_iterator@V?$_List_val@U?$_List_simple_types@U?$pair@$$CBIV?$shared_ptr@VZone@Core@@@boost@@@std@@@std@@@std@@@std@@@0@@Z
	??$_Destroy_range@V?$allocator@V?$_List_unchecked_iterator@V?$_List_val@U?$_List_simple_types@U?$pair@$$CBIV?$unordered_map@IPAVScriptObject@@U?$hash@I@std@@U?$equal_to@I@3@V?$allocator@U?$pair@$$CBIPAVScriptObject@@@std@@@3@@std@@@std@@@std@@@std@@@std@@@std@@@std@@YAXPAV?$_List_unchecked_iterator@V?$_List_val@U?$_List_simple_types@U?$pair@$$CBIV?$unordered_map@IPAVScriptObject@@U?$hash@I@std@@U?$equal_to@I@3@V?$allocator@U?$pair@$$CBIPAVScriptObject@@@std@@@3@@std@@@std@@@std@@@std@@@0@0AAV?$allocator@V?$_List_unchecked_iterator@V?$_List_val@U?$_List_simple_types@U?$pair@$$CBIV?$unordered_map@IPAVScriptObject@@U?$hash@I@std@@U?$equal_to@I@3@V?$allocator@U?$pair@$$CBIPAVScriptObject@@@std@@@3@@std@@@std@@@std@@@std@@@std@@@0@@Z
	??$_Destroy_range@V?$allocator@V?$_List_unchecked_iterator@V?$_List_val@U?$_List_simple_types@U?$pair@$$CBV?$basic_string@DU?$char_traits@D@std@@V?$allocator@D@2@@std@@PAVScriptInfo@Scripting@Core@@@std@@@std@@@std@@@std@@@std@@@std@@YAXPAV?$_List_unchecked_iterator@V?$_List_val@U?$_List_simple_types@U?$pair@$$CBV?$basic_string@DU?$char_traits@D@std@@V?$allocator@D@2@@std@@PAVScriptInfo@Scripting@Core@@@std@@@std@@@std@@@0@0AAV?$allocator@V?$_List_unchecked_iterator@V?$_List_val@U?$_List_simple_types@U?$pair@$$CBV?$basic_string@DU?$char_traits@D@std@@V?$allocator@D@2@@std@@PAVScriptInfo@Scripting@Core@@@std@@@std@@@std@@@std@@@0@@Z
	??$_Destroy_range@V?$allocator@V?$basic_string@DU?$char_traits@D@std@@V?$allocator@D@2@@std@@@std@@@std@@YAXPAV?$basic_string@DU?$char_traits@D@std@@V?$allocator@D@2@@0@0AAV?$allocator@V?$basic_string@DU?$char_traits@D@std@@V?$allocator@D@2@@std@@@0@@Z
	??$_Destroy_range@V?$allocator@V?$tuple@_KV?$basic_string@DU?$char_traits@D@std@@V?$allocator@D@2@@std@@@std@@@std@@@std@@YAXPAV?$tuple@_KV?$basic_string@DU?$char_traits@D@std@@V?$allocator@D@2@@std@@@0@0AAV?$allocator@V?$tuple@_KV?$basic_string@DU?$char_traits@D@std@@V?$allocator@D@2@@std@@@std@@@0@@Z
	??$_Destroy_range@V?$allocator@V?$variant@V?$basic_string@DU?$char_traits@D@std@@V?$allocator@D@2@@std@@_NCEFGHIM_K@boost@@@std@@@std@@YAXPAV?$variant@V?$basic_string@DU?$char_traits@D@std@@V?$allocator@D@2@@std@@_NCEFGHIM_K@boost@@0AAV?$allocator@V?$variant@V?$basic_string@DU?$char_traits@D@std@@V?$allocator@D@2@@std@@_NCEFGHIM_K@boost@@@0@@Z
	??$_Destroy_range@V?$allocator@Vpath@filesystem@boost@@@std@@@std@@YAXPAVpath@filesystem@boost@@0AAV?$allocator@Vpath@filesystem@boost@@@0@@Z
	??$_Destroy_range@V?$allocator@Vthread@std@@@std@@@std@@YAXPAVthread@0@0AAV?$allocator@Vthread@std@@@0@@Z
	??$_Destroy_range@V?$allocator@W4PlayerStateFlag@Common@Core@@@std@@@std@@YAXPAW4PlayerStateFlag@Common@Core@@0AAV?$allocator@W4PlayerStateFlag@Common@Core@@@0@@Z
	??$_Destroy_range@V?$allocator@_K@std@@@std@@YAXPA_K0AAV?$allocator@_K@0@@Z
	??$_Distance1@PAE@std@@YAHPAE0Urandom_access_iterator_tag@0@@Z
	??$_Distance1@PAPAD@std@@YAHPAPAD0Urandom_access_iterator_tag@0@@Z
	??$_Distance1@PAV?$_List_unchecked_iterator@V?$_List_val@U?$_List_simple_types@U?$pair@$$CBIV?$shared_ptr@VZone@Core@@@boost@@@std@@@std@@@std@@@std@@@std@@YAHPAV?$_List_unchecked_iterator@V?$_List_val@U?$_List_simple_types@U?$pair@$$CBIV?$shared_ptr@VZone@Core@@@boost@@@std@@@std@@@std@@@0@0Urandom_access_iterator_tag@0@@Z
	??$_Distance1@PBD@std@@YAHPBD0Urandom_access_iterator_tag@0@@Z
	??$_Distance1@PBE@std@@YAHPBE0Urandom_access_iterator_tag@0@@Z
	??$_Distance1@PBU?$copy_map_entry@U?$sequenced_index_node@U?$ordered_index_node@Unull_augment_policy@detail@multi_index@boost@@U?$index_node_base@U?$pair@$$CBV?$basic_string@DU?$char_traits@D@std@@V?$allocator@D@2@@std@@V?$basic_ptree@V?$basic_string@DU?$char_traits@D@std@@V?$allocator@D@2@@std@@V12@U?$less@V?$basic_string@DU?$char_traits@D@std@@V?$allocator@D@2@@std@@@2@@property_tree@boost@@@std@@V?$allocator@U?$pair@$$CBV?$basic_string@DU?$char_traits@D@std@@V?$allocator@D@2@@std@@V?$basic_ptree@V?$basic_string@DU?$char_traits@D@std@@V?$allocator@D@2@@std@@V12@U?$less@V?$basic_string@DU?$char_traits@D@std@@V?$allocator@D@2@@std@@@2@@property_tree@boost@@@std@@@2@@234@@detail@multi_index@boost@@@detail@multi_index@boost@@@detail@multi_index@boost@@@std@@YAHPBU?$copy_map_entry@U?$sequenced_index_node@U?$ordered_index_node@Unull_augment_policy@detail@multi_index@boost@@U?$index_node_base@U?$pair@$$CBV?$basic_string@DU?$char_traits@D@std@@V?$allocator@D@2@@std@@V?$basic_ptree@V?$basic_string@DU?$char_traits@D@std@@V?$allocator@D@2@@std@@V12@U?$less@V?$basic_string@DU?$char_traits@D@std@@V?$allocator@D@2@@std@@@2@@property_tree@boost@@@std@@V?$allocator@U?$pair@$$CBV?$basic_string@DU?$char_traits@D@std@@V?$allocator@D@2@@std@@V?$basic_ptree@V?$basic_string@DU?$char_traits@D@std@@V?$allocator@D@2@@std@@V12@U?$less@V?$basic_string@DU?$char_traits@D@std@@V?$allocator@D@2@@std@@@2@@property_tree@boost@@@std@@@2@@234@@detail@multi_index@boost@@@detail@multi_index@boost@@@detail@multi_index@boost@@0Urandom_access_iterator_tag@0@@Z
	??$_Distance1@V?$_Deque_unchecked_iterator@V?$_Deque_val@U?$_Deque_simple_types@D@std@@@std@@@std@@@std@@YAHV?$_Deque_unchecked_iterator@V?$_Deque_val@U?$_Deque_simple_types@D@std@@@std@@@0@0Urandom_access_iterator_tag@0@@Z
	??$_Distance1@V?$_List_iterator@V?$_List_val@U?$_List_simple_types@U?$pair@$$CBHV?$shared_ptr@VPlayer@Entity@Core@@@boost@@@std@@@std@@@std@@@std@@@std@@YAHV?$_List_iterator@V?$_List_val@U?$_List_simple_types@U?$pair@$$CBHV?$shared_ptr@VPlayer@Entity@Core@@@boost@@@std@@@std@@@std@@@0@0Uinput_iterator_tag@0@@Z
	??$_Distance1@V?$_List_iterator@V?$_List_val@U?$_List_simple_types@U?$pair@$$CBIPAVScriptObject@@@std@@@std@@@std@@@std@@@std@@YAHV?$_List_iterator@V?$_List_val@U?$_List_simple_types@U?$pair@$$CBIPAVScriptObject@@@std@@@std@@@std@@@0@0Uinput_iterator_tag@0@@Z
	??$_Distance1@V?$_List_iterator@V?$_List_val@U?$_List_simple_types@U?$pair@$$CBIV?$shared_ptr@VZone@Core@@@boost@@@std@@@std@@@std@@@std@@@std@@YAHV?$_List_iterator@V?$_List_val@U?$_List_simple_types@U?$pair@$$CBIV?$shared_ptr@VZone@Core@@@boost@@@std@@@std@@@std@@@0@0Uinput_iterator_tag@0@@Z
	??$_Distance1@V?$_String_const_iterator@V?$_String_val@U?$_Simple_types@D@std@@@std@@@std@@@std@@YAHV?$_String_const_iterator@V?$_String_val@U?$_Simple_types@D@std@@@std@@@0@0Urandom_access_iterator_tag@0@@Z
	??$_Distance1@V?$_Tree_const_iterator@V?$_Tree_val@U?$_Tree_simple_types@I@std@@@std@@@std@@@std@@YAHV?$_Tree_const_iterator@V?$_Tree_val@U?$_Tree_simple_types@I@std@@@std@@@0@0Uinput_iterator_tag@0@@Z
	??$_Distance1@V?$_Tree_const_iterator@V?$_Tree_val@U?$_Tree_simple_types@V?$shared_ptr@VActor@Entity@Core@@@boost@@@std@@@std@@@std@@@std@@YAHV?$_Tree_const_iterator@V?$_Tree_val@U?$_Tree_simple_types@V?$shared_ptr@VActor@Entity@Core@@@boost@@@std@@@std@@@0@0Uinput_iterator_tag@0@@Z
	??$_Distance1@V?$_Tree_const_iterator@V?$_Tree_val@U?$_Tree_simple_types@V?$shared_ptr@VPlayer@Entity@Core@@@boost@@@std@@@std@@@std@@@std@@YAHV?$_Tree_const_iterator@V?$_Tree_val@U?$_Tree_simple_types@V?$shared_ptr@VPlayer@Entity@Core@@@boost@@@std@@@std@@@0@0Uinput_iterator_tag@0@@Z
	??$_Distance1@V?$_Tree_const_iterator@V?$_Tree_val@U?$_Tree_simple_types@V?$shared_ptr@VZone@Core@@@boost@@@std@@@std@@@std@@@std@@YAHV?$_Tree_const_iterator@V?$_Tree_val@U?$_Tree_simple_types@V?$shared_ptr@VZone@Core@@@boost@@@std@@@std@@@0@0Uinput_iterator_tag@0@@Z
	??$_Distance1@V?$_Tree_const_iterator@V?$_Tree_val@U?$_Tree_simple_types@_K@std@@@std@@@std@@@std@@YAHV?$_Tree_const_iterator@V?$_Tree_val@U?$_Tree_simple_types@_K@std@@@std@@@0@0Uinput_iterator_tag@0@@Z
	??$_Distance1@V?$_Tree_iterator@V?$_Tree_val@U?$_Tree_simple_types@U?$pair@$$CBEI@std@@@std@@@std@@@std@@@std@@YAHV?$_Tree_iterator@V?$_Tree_val@U?$_Tree_simple_types@U?$pair@$$CBEI@std@@@std@@@std@@@0@0Uinput_iterator_tag@0@@Z
	??$_Distance1@V?$_Tree_iterator@V?$_Tree_val@U?$_Tree_simple_types@U?$pair@$$CBEV?$shared_ptr@VStatusEffect@1Core@@@boost@@@std@@@std@@@std@@@std@@@std@@YAHV?$_Tree_iterator@V?$_Tree_val@U?$_Tree_simple_types@U?$pair@$$CBEV?$shared_ptr@VStatusEffect@1Core@@@boost@@@std@@@std@@@std@@@0@0Uinput_iterator_tag@0@@Z
	??$_Distance1@V?$_Tree_iterator@V?$_Tree_val@U?$_Tree_simple_types@U?$pair@$$CBIE@std@@@std@@@std@@@std@@@std@@YAHV?$_Tree_iterator@V?$_Tree_val@U?$_Tree_simple_types@U?$pair@$$CBIE@std@@@std@@@std@@@0@0Uinput_iterator_tag@0@@Z
	??$_Distance1@V?$_Tree_iterator@V?$_Tree_val@U?$_Tree_simple_types@U?$pair@$$CBIV?$shared_ptr@VSession@Core@@@boost@@@std@@@std@@@std@@@std@@@std@@YAHV?$_Tree_iterator@V?$_Tree_val@U?$_Tree_simple_types@U?$pair@$$CBIV?$shared_ptr@VSession@Core@@@boost@@@std@@@std@@@std@@@0@0Uinput_iterator_tag@0@@Z
	??$_Distance1@V?$_Tree_iterator@V?$_Tree_val@U?$_Tree_simple_types@U?$pair@$$CBV?$basic_string@DU?$char_traits@D@std@@V?$allocator@D@2@@std@@V?$shared_ptr@VSession@Core@@@boost@@@std@@@std@@@std@@@std@@@std@@YAHV?$_Tree_iterator@V?$_Tree_val@U?$_Tree_simple_types@U?$pair@$$CBV?$basic_string@DU?$char_traits@D@std@@V?$allocator@D@2@@std@@V?$shared_ptr@VSession@Core@@@boost@@@std@@@std@@@std@@@0@0Uinput_iterator_tag@0@@Z
	??$_Emplace_back_with_unused_capacity@ABG@?$vector@GV?$allocator@G@std@@@std@@AAEXABG@Z
	??$_Emplace_back_with_unused_capacity@ABI@?$vector@IV?$allocator@I@std@@@std@@AAEXABI@Z
	??$_Emplace_back_with_unused_capacity@ABQAVScriptObject@@@?$vector@PAVScriptObject@@V?$allocator@PAVScriptObject@@@std@@@std@@AAEXABQAVScriptObject@@@Z
	??$_Emplace_back_with_unused_capacity@ABV?$basic_string@DU?$char_traits@D@std@@V?$allocator@D@2@@std@@@?$vector@V?$basic_string@DU?$char_traits@D@std@@V?$allocator@D@2@@std@@V?$allocator@V?$basic_string@DU?$char_traits@D@std@@V?$allocator@D@2@@std@@@2@@std@@AAEXABV?$basic_string@DU?$char_traits@D@std@@V?$allocator@D@2@@1@@Z
	??$_Emplace_back_with_unused_capacity@ABVpath@filesystem@boost@@@?$vector@Vpath@filesystem@boost@@V?$allocator@Vpath@filesystem@boost@@@std@@@std@@AAEXABVpath@filesystem@boost@@@Z
	??$_Emplace_back_with_unused_capacity@U?$pair@GC@std@@@?$vector@U?$pair@GC@std@@V?$allocator@U?$pair@GC@std@@@2@@std@@AAEX$$QAU?$pair@GC@1@@Z
	??$_Emplace_back_with_unused_capacity@V?$tuple@_KV?$basic_string@DU?$char_traits@D@std@@V?$allocator@D@2@@std@@@std@@@?$vector@V?$tuple@_KV?$basic_string@DU?$char_traits@D@std@@V?$allocator@D@2@@std@@@std@@V?$allocator@V?$tuple@_KV?$basic_string@DU?$char_traits@D@std@@V?$allocator@D@2@@std@@@std@@@2@@std@@AAEX$$QAV?$tuple@_KV?$basic_string@DU?$char_traits@D@std@@V?$allocator@D@2@@std@@@1@@Z
	??$_Emplace_back_with_unused_capacity@Vthread@std@@@?$vector@Vthread@std@@V?$allocator@Vthread@std@@@2@@std@@AAEX$$QAVthread@1@@Z
	??$_Eqrange@E@?$_Tree@V?$_Tmap_traits@EIU?$less@E@std@@V?$allocator@U?$pair@$$CBEI@std@@@2@$0A@@std@@@std@@IAE?AU?$pair@V?$_Tree_iterator@V?$_Tree_val@U?$_Tree_simple_types@U?$pair@$$CBEI@std@@@std@@@std@@@std@@V12@@1@ABE@Z
	??$_Eqrange@E@?$_Tree@V?$_Tmap_traits@EIU?$less@E@std@@V?$allocator@U?$pair@$$CBEI@std@@@2@$0A@@std@@@std@@IBE?AU?$pair@V?$_Tree_const_iterator@V?$_Tree_val@U?$_Tree_simple_types@U?$pair@$$CBEI@std@@@std@@@std@@@std@@V12@@1@ABE@Z
	??$_Eqrange@E@?$_Tree@V?$_Tmap_traits@EV?$shared_ptr@VStatusEffect@1Core@@@boost@@U?$less@E@std@@V?$allocator@U?$pair@$$CBEV?$shared_ptr@VStatusEffect@1Core@@@boost@@@std@@@4@$0A@@std@@@std@@IAE?AU?$pair@V?$_Tree_iterator@V?$_Tree_val@U?$_Tree_simple_types@U?$pair@$$CBEV?$shared_ptr@VStatusEffect@1Core@@@boost@@@std@@@std@@@std@@@std@@V12@@1@ABE@Z
	??$_Eqrange@E@?$_Tree@V?$_Tmap_traits@EV?$shared_ptr@VStatusEffect@1Core@@@boost@@U?$less@E@std@@V?$allocator@U?$pair@$$CBEV?$shared_ptr@VStatusEffect@1Core@@@boost@@@std@@@4@$0A@@std@@@std@@IBE?AU?$pair@V?$_Tree_const_iterator@V?$_Tree_val@U?$_Tree_simple_types@U?$pair@$$CBEV?$shared_ptr@VStatusEffect@1Core@@@boost@@@std@@@std@@@std@@@std@@V12@@1@ABE@Z
	??$_Eqrange@I@?$_Tree@V?$_Tmap_traits@IEU?$less@I@std@@V?$allocator@U?$pair@$$CBIE@std@@@2@$0A@@std@@@std@@IAE?AU?$pair@V?$_Tree_iterator@V?$_Tree_val@U?$_Tree_simple_types@U?$pair@$$CBIE@std@@@std@@@std@@@std@@V12@@1@ABI@Z
	??$_Eqrange@I@?$_Tree@V?$_Tmap_traits@IEU?$less@I@std@@V?$allocator@U?$pair@$$CBIE@std@@@2@$0A@@std@@@std@@IBE?AU?$pair@V?$_Tree_const_iterator@V?$_Tree_val@U?$_Tree_simple_types@U?$pair@$$CBIE@std@@@std@@@std@@@std@@V12@@1@ABI@Z
	??$_Eqrange@I@?$_Tree@V?$_Tmap_traits@IV?$shared_ptr@VSession@Core@@@boost@@U?$less@I@std@@V?$allocator@U?$pair@$$CBIV?$shared_ptr@VSession@Core@@@boost@@@std@@@4@$0A@@std@@@std@@IAE?AU?$pair@V?$_Tree_iterator@V?$_Tree_val@U?$_Tree_simple_types@U?$pair@$$CBIV?$shared_ptr@VSession@Core@@@boost@@@std@@@std@@@std@@@std@@V12@@1@ABI@Z
	??$_Eqrange@I@?$_Tree@V?$_Tmap_traits@IV?$shared_ptr@VSession@Core@@@boost@@U?$less@I@std@@V?$allocator@U?$pair@$$CBIV?$shared_ptr@VSession@Core@@@boost@@@std@@@4@$0A@@std@@@std@@IBE?AU?$pair@V?$_Tree_const_iterator@V?$_Tree_val@U?$_Tree_simple_types@U?$pair@$$CBIV?$shared_ptr@VSession@Core@@@boost@@@std@@@std@@@std@@@std@@V12@@1@ABI@Z
	??$_Eqrange@I@?$_Tree@V?$_Tset_traits@IU?$less@I@std@@V?$allocator@I@2@$0A@@std@@@std@@IAE?AU?$pair@V?$_Tree_const_iterator@V?$_Tree_val@U?$_Tree_simple_types@I@std@@@std@@@std@@V12@@1@ABI@Z
	??$_Eqrange@I@?$_Tree@V?$_Tset_traits@IU?$less@I@std@@V?$allocator@I@2@$0A@@std@@@std@@IBE?AU?$pair@V?$_Tree_const_iterator@V?$_Tree_val@U?$_Tree_simple_types@I@std@@@std@@@std@@V12@@1@ABI@Z
	??$_Eqrange@V?$basic_string@DU?$char_traits@D@std@@V?$allocator@D@2@@std@@@?$_Tree@V?$_Tmap_traits@V?$basic_string@DU?$char_traits@D@std@@V?$allocator@D@2@@std@@V?$shared_ptr@VSession@Core@@@boost@@U?$less@V?$basic_string@DU?$char_traits@D@std@@V?$allocator@D@2@@std@@@2@V?$allocator@U?$pair@$$CBV?$basic_string@DU?$char_traits@D@std@@V?$allocator@D@2@@std@@V?$shared_ptr@VSession@Core@@@boost@@@std@@@2@$0A@@std@@@std@@IAE?AU?$pair@V?$_Tree_iterator@V?$_Tree_val@U?$_Tree_simple_types@U?$pair@$$CBV?$basic_string@DU?$char_traits@D@std@@V?$allocator@D@2@@std@@V?$shared_ptr@VSession@Core@@@boost@@@std@@@std@@@std@@@std@@V12@@1@ABV?$basic_string@DU?$char_traits@D@std@@V?$allocator@D@2@@1@@Z
	??$_Eqrange@V?$basic_string@DU?$char_traits@D@std@@V?$allocator@D@2@@std@@@?$_Tree@V?$_Tmap_traits@V?$basic_string@DU?$char_traits@D@std@@V?$allocator@D@2@@std@@V?$shared_ptr@VSession@Core@@@boost@@U?$less@V?$basic_string@DU?$char_traits@D@std@@V?$allocator@D@2@@std@@@2@V?$allocator@U?$pair@$$CBV?$basic_string@DU?$char_traits@D@std@@V?$allocator@D@2@@std@@V?$shared_ptr@VSession@Core@@@boost@@@std@@@2@$0A@@std@@@std@@IBE?AU?$pair@V?$_Tree_const_iterator@V?$_Tree_val@U?$_Tree_simple_types@U?$pair@$$CBV?$basic_string@DU?$char_traits@D@std@@V?$allocator@D@2@@std@@V?$shared_ptr@VSession@Core@@@boost@@@std@@@std@@@std@@@std@@V12@@1@ABV?$basic_string@DU?$char_traits@D@std@@V?$allocator@D@2@@1@@Z
	??$_Eqrange@V?$shared_ptr@VActor@Entity@Core@@@boost@@@?$_Tree@V?$_Tset_traits@V?$shared_ptr@VActor@Entity@Core@@@boost@@U?$less@V?$shared_ptr@VActor@Entity@Core@@@boost@@@std@@V?$allocator@V?$shared_ptr@VActor@Entity@Core@@@boost@@@4@$0A@@std@@@std@@IAE?AU?$pair@V?$_Tree_const_iterator@V?$_Tree_val@U?$_Tree_simple_types@V?$shared_ptr@VActor@Entity@Core@@@boost@@@std@@@std@@@std@@V12@@1@ABV?$shared_ptr@VActor@Entity@Core@@@boost@@@Z
	??$_Eqrange@V?$shared_ptr@VActor@Entity@Core@@@boost@@@?$_Tree@V?$_Tset_traits@V?$shared_ptr@VActor@Entity@Core@@@boost@@U?$less@V?$shared_ptr@VActor@Entity@Core@@@boost@@@std@@V?$allocator@V?$shared_ptr@VActor@Entity@Core@@@boost@@@4@$0A@@std@@@std@@IBE?AU?$pair@V?$_Tree_const_iterator@V?$_Tree_val@U?$_Tree_simple_types@V?$shared_ptr@VActor@Entity@Core@@@boost@@@std@@@std@@@std@@V12@@1@ABV?$shared_ptr@VActor@Entity@Core@@@boost@@@Z
	??$_Eqrange@V?$shared_ptr@VPlayer@Entity@Core@@@boost@@@?$_Tree@V?$_Tset_traits@V?$shared_ptr@VPlayer@Entity@Core@@@boost@@U?$less@V?$shared_ptr@VPlayer@Entity@Core@@@boost@@@std@@V?$allocator@V?$shared_ptr@VPlayer@Entity@Core@@@boost@@@4@$0A@@std@@@std@@IAE?AU?$pair@V?$_Tree_const_iterator@V?$_Tree_val@U?$_Tree_simple_types@V?$shared_ptr@VPlayer@Entity@Core@@@boost@@@std@@@std@@@std@@V12@@1@ABV?$shared_ptr@VPlayer@Entity@Core@@@boost@@@Z
	??$_Eqrange@V?$shared_ptr@VPlayer@Entity@Core@@@boost@@@?$_Tree@V?$_Tset_traits@V?$shared_ptr@VPlayer@Entity@Core@@@boost@@U?$less@V?$shared_ptr@VPlayer@Entity@Core@@@boost@@@std@@V?$allocator@V?$shared_ptr@VPlayer@Entity@Core@@@boost@@@4@$0A@@std@@@std@@IBE?AU?$pair@V?$_Tree_const_iterator@V?$_Tree_val@U?$_Tree_simple_types@V?$shared_ptr@VPlayer@Entity@Core@@@boost@@@std@@@std@@@std@@V12@@1@ABV?$shared_ptr@VPlayer@Entity@Core@@@boost@@@Z
	??$_Eqrange@V?$shared_ptr@VZone@Core@@@boost@@@?$_Tree@V?$_Tset_traits@V?$shared_ptr@VZone@Core@@@boost@@U?$less@V?$shared_ptr@VZone@Core@@@boost@@@std@@V?$allocator@V?$shared_ptr@VZone@Core@@@boost@@@4@$0A@@std@@@std@@IAE?AU?$pair@V?$_Tree_const_iterator@V?$_Tree_val@U?$_Tree_simple_types@V?$shared_ptr@VZone@Core@@@boost@@@std@@@std@@@std@@V12@@1@ABV?$shared_ptr@VZone@Core@@@boost@@@Z
	??$_Eqrange@V?$shared_ptr@VZone@Core@@@boost@@@?$_Tree@V?$_Tset_traits@V?$shared_ptr@VZone@Core@@@boost@@U?$less@V?$shared_ptr@VZone@Core@@@boost@@@std@@V?$allocator@V?$shared_ptr@VZone@Core@@@boost@@@4@$0A@@std@@@std@@IBE?AU?$pair@V?$_Tree_const_iterator@V?$_Tree_val@U?$_Tree_simple_types@V?$shared_ptr@VZone@Core@@@boost@@@std@@@std@@@std@@V12@@1@ABV?$shared_ptr@VZone@Core@@@boost@@@Z
	??$_Eqrange@_K@?$_Tree@V?$_Tset_traits@_KU?$less@_K@std@@V?$allocator@_K@2@$0A@@std@@@std@@IAE?AU?$pair@V?$_Tree_const_iterator@V?$_Tree_val@U?$_Tree_simple_types@_K@std@@@std@@@std@@V12@@1@AB_K@Z
	??$_Eqrange@_K@?$_Tree@V?$_Tset_traits@_KU?$less@_K@std@@V?$allocator@_K@2@$0A@@std@@@std@@IBE?AU?$pair@V?$_Tree_const_iterator@V?$_Tree_val@U?$_Tree_simple_types@_K@std@@@std@@@std@@V12@@1@AB_K@Z
	??$_Execute@$0A@@?$_LaunchPad@V?$unique_ptr@V?$tuple@V?$_Binder@U_Unforced@std@@P8Hive@Network@Core@@AEXXZPAV345@@std@@@std@@U?$default_delete@V?$tuple@V?$_Binder@U_Unforced@std@@P8Hive@Network@Core@@AEXXZPAV345@@std@@@std@@@2@@std@@@std@@CAXAAV?$tuple@V?$_Binder@U_Unforced@std@@P8Hive@Network@Core@@AEXXZPAV345@@std@@@1@U?$integer_sequence@I$0A@@1@@Z
	??$_Fill_memset_is_safe@PAU?$format_item@DU?$char_traits@D@std@@V?$allocator@D@2@@detail@io@boost@@U1234@@std@@YA?AU?$integral_constant@_N$0A@@0@ABQAU?$format_item@DU?$char_traits@D@std@@V?$allocator@D@2@@detail@io@boost@@ABU2345@@Z
	??$_Fill_memset_is_safe@PAV?$_List_unchecked_iterator@V?$_List_val@U?$_List_simple_types@U?$pair@$$CBGV?$shared_ptr@UTerritoryType@Data@Core@@@boost@@@std@@@std@@@std@@@std@@V12@@std@@YA?AU?$integral_constant@_N$0A@@0@ABQAV?$_List_unchecked_iterator@V?$_List_val@U?$_List_simple_types@U?$pair@$$CBGV?$shared_ptr@UTerritoryType@Data@Core@@@boost@@@std@@@std@@@std@@@0@ABV20@@Z
	??$_Fill_memset_is_safe@PAV?$_List_unchecked_iterator@V?$_List_val@U?$_List_simple_types@U?$pair@$$CBGV?$unordered_map@IV?$shared_ptr@VZone@Core@@@boost@@U?$hash@I@std@@U?$equal_to@I@4@V?$allocator@U?$pair@$$CBIV?$shared_ptr@VZone@Core@@@boost@@@std@@@4@@std@@@std@@@std@@@std@@@std@@V12@@std@@YA?AU?$integral_constant@_N$0A@@0@ABQAV?$_List_unchecked_iterator@V?$_List_val@U?$_List_simple_types@U?$pair@$$CBGV?$unordered_map@IV?$shared_ptr@VZone@Core@@@boost@@U?$hash@I@std@@U?$equal_to@I@4@V?$allocator@U?$pair@$$CBIV?$shared_ptr@VZone@Core@@@boost@@@std@@@4@@std@@@std@@@std@@@std@@@0@ABV20@@Z
	??$_Fill_memset_is_safe@PAV?$_List_unchecked_iterator@V?$_List_val@U?$_List_simple_types@U?$pair@$$CBHV?$shared_ptr@VEventObject@Entity@Core@@@boost@@@std@@@std@@@std@@@std@@V12@@std@@YA?AU?$integral_constant@_N$0A@@0@ABQAV?$_List_unchecked_iterator@V?$_List_val@U?$_List_simple_types@U?$pair@$$CBHV?$shared_ptr@VEventObject@Entity@Core@@@boost@@@std@@@std@@@std@@@0@ABV20@@Z
	??$_Fill_memset_is_safe@PAV?$_List_unchecked_iterator@V?$_List_val@U?$_List_simple_types@U?$pair@$$CBHV?$shared_ptr@VPlayer@Entity@Core@@@boost@@@std@@@std@@@std@@@std@@V12@@std@@YA?AU?$integral_constant@_N$0A@@0@ABQAV?$_List_unchecked_iterator@V?$_List_val@U?$_List_simple_types@U?$pair@$$CBHV?$shared_ptr@VPlayer@Entity@Core@@@boost@@@std@@@std@@@std@@@0@ABV20@@Z
	??$_Fill_memset_is_safe@PAV?$_List_unchecked_iterator@V?$_List_val@U?$_List_simple_types@U?$pair@$$CBHV?$shared_ptr@VZonePosition@Core@@@boost@@@std@@@std@@@std@@@std@@V12@@std@@YA?AU?$integral_constant@_N$0A@@0@ABQAV?$_List_unchecked_iterator@V?$_List_val@U?$_List_simple_types@U?$pair@$$CBHV?$shared_ptr@VZonePosition@Core@@@boost@@@std@@@std@@@std@@@0@ABV20@@Z
	??$_Fill_memset_is_safe@PAV?$_List_unchecked_iterator@V?$_List_val@U?$_List_simple_types@U?$pair@$$CBIE@std@@@std@@@std@@@std@@V12@@std@@YA?AU?$integral_constant@_N$0A@@0@ABQAV?$_List_unchecked_iterator@V?$_List_val@U?$_List_simple_types@U?$pair@$$CBIE@std@@@std@@@std@@@0@ABV20@@Z
	??$_Fill_memset_is_safe@PAV?$_List_unchecked_iterator@V?$_List_val@U?$_List_simple_types@U?$pair@$$CBII@std@@@std@@@std@@@std@@V12@@std@@YA?AU?$integral_constant@_N$0A@@0@ABQAV?$_List_unchecked_iterator@V?$_List_val@U?$_List_simple_types@U?$pair@$$CBII@std@@@std@@@std@@@0@ABV20@@Z
	??$_Fill_memset_is_safe@PAV?$_List_unchecked_iterator@V?$_List_val@U?$_List_simple_types@U?$pair@$$CBIPAVScriptObject@@@std@@@std@@@std@@@std@@V12@@std@@YA?AU?$integral_constant@_N$0A@@0@ABQAV?$_List_unchecked_iterator@V?$_List_val@U?$_List_simple_types@U?$pair@$$CBIPAVScriptObject@@@std@@@std@@@std@@@0@ABV20@@Z
	??$_Fill_memset_is_safe@PAV?$_List_unchecked_iterator@V?$_List_val@U?$_List_simple_types@U?$pair@$$CBIV?$shared_ptr@VEventObject@Entity@Core@@@boost@@@std@@@std@@@std@@@std@@V12@@std@@YA?AU?$integral_constant@_N$0A@@0@ABQAV?$_List_unchecked_iterator@V?$_List_val@U?$_List_simple_types@U?$pair@$$CBIV?$shared_ptr@VEventObject@Entity@Core@@@boost@@@std@@@std@@@std@@@0@ABV20@@Z
	??$_Fill_memset_is_safe@PAV?$_List_unchecked_iterator@V?$_List_val@U?$_List_simple_types@U?$pair@$$CBIV?$shared_ptr@VZone@Core@@@boost@@@std@@@std@@@std@@@std@@V12@@std@@YA?AU?$integral_constant@_N$0A@@0@ABQAV?$_List_unchecked_iterator@V?$_List_val@U?$_List_simple_types@U?$pair@$$CBIV?$shared_ptr@VZone@Core@@@boost@@@std@@@std@@@std@@@0@ABV20@@Z
	??$_Fill_memset_is_safe@PAV?$_List_unchecked_iterator@V?$_List_val@U?$_List_simple_types@U?$pair@$$CBIV?$unordered_map@IPAVScriptObject@@U?$hash@I@std@@U?$equal_to@I@3@V?$allocator@U?$pair@$$CBIPAVScriptObject@@@std@@@3@@std@@@std@@@std@@@std@@@std@@V12@@std@@YA?AU?$integral_constant@_N$0A@@0@ABQAV?$_List_unchecked_iterator@V?$_List_val@U?$_List_simple_types@U?$pair@$$CBIV?$unordered_map@IPAVScriptObject@@U?$hash@I@std@@U?$equal_to@I@3@V?$allocator@U?$pair@$$CBIPAVScriptObject@@@std@@@3@@std@@@std@@@std@@@std@@@0@ABV20@@Z
	??$_Fill_memset_is_safe@PAV?$_List_unchecked_iterator@V?$_List_val@U?$_List_simple_types@U?$pair@$$CBV?$basic_string@DU?$char_traits@D@std@@V?$allocator@D@2@@std@@PAVScriptInfo@Scripting@Core@@@std@@@std@@@std@@@std@@V12@@std@@YA?AU?$integral_constant@_N$0A@@0@ABQAV?$_List_unchecked_iterator@V?$_List_val@U?$_List_simple_types@U?$pair@$$CBV?$basic_string@DU?$char_traits@D@std@@V?$allocator@D@2@@std@@PAVScriptInfo@Scripting@Core@@@std@@@std@@@std@@@0@ABV20@@Z
	??$_Fill_memset_is_safe@V?$_Vb_iterator@U?$_Wrap_alloc@V?$allocator@I@std@@@std@@@std@@_N@std@@YA?AU?$integral_constant@_N$0A@@0@ABV?$_Vb_iterator@U?$_Wrap_alloc@V?$allocator@I@std@@@std@@@0@AB_N@Z
	??$_Fill_unchecked1@PAU?$format_item@DU?$char_traits@D@std@@V?$allocator@D@2@@detail@io@boost@@U1234@@std@@YAXPAU?$format_item@DU?$char_traits@D@std@@V?$allocator@D@2@@detail@io@boost@@0ABU1234@U?$integral_constant@_N$0A@@0@@Z
	??$_Fill_unchecked1@PAV?$_List_unchecked_iterator@V?$_List_val@U?$_List_simple_types@U?$pair@$$CBGV?$shared_ptr@UTerritoryType@Data@Core@@@boost@@@std@@@std@@@std@@@std@@V12@@std@@YAXPAV?$_List_unchecked_iterator@V?$_List_val@U?$_List_simple_types@U?$pair@$$CBGV?$shared_ptr@UTerritoryType@Data@Core@@@boost@@@std@@@std@@@std@@@0@0ABV10@U?$integral_constant@_N$0A@@0@@Z
	??$_Fill_unchecked1@PAV?$_List_unchecked_iterator@V?$_List_val@U?$_List_simple_types@U?$pair@$$CBGV?$unordered_map@IV?$shared_ptr@VZone@Core@@@boost@@U?$hash@I@std@@U?$equal_to@I@4@V?$allocator@U?$pair@$$CBIV?$shared_ptr@VZone@Core@@@boost@@@std@@@4@@std@@@std@@@std@@@std@@@std@@V12@@std@@YAXPAV?$_List_unchecked_iterator@V?$_List_val@U?$_List_simple_types@U?$pair@$$CBGV?$unordered_map@IV?$shared_ptr@VZone@Core@@@boost@@U?$hash@I@std@@U?$equal_to@I@4@V?$allocator@U?$pair@$$CBIV?$shared_ptr@VZone@Core@@@boost@@@std@@@4@@std@@@std@@@std@@@std@@@0@0ABV10@U?$integral_constant@_N$0A@@0@@Z
	??$_Fill_unchecked1@PAV?$_List_unchecked_iterator@V?$_List_val@U?$_List_simple_types@U?$pair@$$CBHV?$shared_ptr@VEventObject@Entity@Core@@@boost@@@std@@@std@@@std@@@std@@V12@@std@@YAXPAV?$_List_unchecked_iterator@V?$_List_val@U?$_List_simple_types@U?$pair@$$CBHV?$shared_ptr@VEventObject@Entity@Core@@@boost@@@std@@@std@@@std@@@0@0ABV10@U?$integral_constant@_N$0A@@0@@Z
	??$_Fill_unchecked1@PAV?$_List_unchecked_iterator@V?$_List_val@U?$_List_simple_types@U?$pair@$$CBHV?$shared_ptr@VPlayer@Entity@Core@@@boost@@@std@@@std@@@std@@@std@@V12@@std@@YAXPAV?$_List_unchecked_iterator@V?$_List_val@U?$_List_simple_types@U?$pair@$$CBHV?$shared_ptr@VPlayer@Entity@Core@@@boost@@@std@@@std@@@std@@@0@0ABV10@U?$integral_constant@_N$0A@@0@@Z
	??$_Fill_unchecked1@PAV?$_List_unchecked_iterator@V?$_List_val@U?$_List_simple_types@U?$pair@$$CBHV?$shared_ptr@VZonePosition@Core@@@boost@@@std@@@std@@@std@@@std@@V12@@std@@YAXPAV?$_List_unchecked_iterator@V?$_List_val@U?$_List_simple_types@U?$pair@$$CBHV?$shared_ptr@VZonePosition@Core@@@boost@@@std@@@std@@@std@@@0@0ABV10@U?$integral_constant@_N$0A@@0@@Z
	??$_Fill_unchecked1@PAV?$_List_unchecked_iterator@V?$_List_val@U?$_List_simple_types@U?$pair@$$CBIE@std@@@std@@@std@@@std@@V12@@std@@YAXPAV?$_List_unchecked_iterator@V?$_List_val@U?$_List_simple_types@U?$pair@$$CBIE@std@@@std@@@std@@@0@0ABV10@U?$integral_constant@_N$0A@@0@@Z
	??$_Fill_unchecked1@PAV?$_List_unchecked_iterator@V?$_List_val@U?$_List_simple_types@U?$pair@$$CBII@std@@@std@@@std@@@std@@V12@@std@@YAXPAV?$_List_unchecked_iterator@V?$_List_val@U?$_List_simple_types@U?$pair@$$CBII@std@@@std@@@std@@@0@0ABV10@U?$integral_constant@_N$0A@@0@@Z
	??$_Fill_unchecked1@PAV?$_List_unchecked_iterator@V?$_List_val@U?$_List_simple_types@U?$pair@$$CBIPAVScriptObject@@@std@@@std@@@std@@@std@@V12@@std@@YAXPAV?$_List_unchecked_iterator@V?$_List_val@U?$_List_simple_types@U?$pair@$$CBIPAVScriptObject@@@std@@@std@@@std@@@0@0ABV10@U?$integral_constant@_N$0A@@0@@Z
	??$_Fill_unchecked1@PAV?$_List_unchecked_iterator@V?$_List_val@U?$_List_simple_types@U?$pair@$$CBIV?$shared_ptr@VEventObject@Entity@Core@@@boost@@@std@@@std@@@std@@@std@@V12@@std@@YAXPAV?$_List_unchecked_iterator@V?$_List_val@U?$_List_simple_types@U?$pair@$$CBIV?$shared_ptr@VEventObject@Entity@Core@@@boost@@@std@@@std@@@std@@@0@0ABV10@U?$integral_constant@_N$0A@@0@@Z
	??$_Fill_unchecked1@PAV?$_List_unchecked_iterator@V?$_List_val@U?$_List_simple_types@U?$pair@$$CBIV?$shared_ptr@VZone@Core@@@boost@@@std@@@std@@@std@@@std@@V12@@std@@YAXPAV?$_List_unchecked_iterator@V?$_List_val@U?$_List_simple_types@U?$pair@$$CBIV?$shared_ptr@VZone@Core@@@boost@@@std@@@std@@@std@@@0@0ABV10@U?$integral_constant@_N$0A@@0@@Z
	??$_Fill_unchecked1@PAV?$_List_unchecked_iterator@V?$_List_val@U?$_List_simple_types@U?$pair@$$CBIV?$unordered_map@IPAVScriptObject@@U?$hash@I@std@@U?$equal_to@I@3@V?$allocator@U?$pair@$$CBIPAVScriptObject@@@std@@@3@@std@@@std@@@std@@@std@@@std@@V12@@std@@YAXPAV?$_List_unchecked_iterator@V?$_List_val@U?$_List_simple_types@U?$pair@$$CBIV?$unordered_map@IPAVScriptObject@@U?$hash@I@std@@U?$equal_to@I@3@V?$allocator@U?$pair@$$CBIPAVScriptObject@@@std@@@3@@std@@@std@@@std@@@std@@@0@0ABV10@U?$integral_constant@_N$0A@@0@@Z
	??$_Fill_unchecked1@PAV?$_List_unchecked_iterator@V?$_List_val@U?$_List_simple_types@U?$pair@$$CBV?$basic_string@DU?$char_traits@D@std@@V?$allocator@D@2@@std@@PAVScriptInfo@Scripting@Core@@@std@@@std@@@std@@@std@@V12@@std@@YAXPAV?$_List_unchecked_iterator@V?$_List_val@U?$_List_simple_types@U?$pair@$$CBV?$basic_string@DU?$char_traits@D@std@@V?$allocator@D@2@@std@@PAVScriptInfo@Scripting@Core@@@std@@@std@@@std@@@0@0ABV10@U?$integral_constant@_N$0A@@0@@Z
	??$_Fill_unchecked1@V?$_Vb_iterator@U?$_Wrap_alloc@V?$allocator@I@std@@@std@@@std@@_N@std@@YAXV?$_Vb_iterator@U?$_Wrap_alloc@V?$allocator@I@std@@@std@@@0@0AB_NU?$integral_constant@_N$0A@@0@@Z
	??$_Fill_unchecked@PAU?$format_item@DU?$char_traits@D@std@@V?$allocator@D@2@@detail@io@boost@@U1234@@std@@YAXPAU?$format_item@DU?$char_traits@D@std@@V?$allocator@D@2@@detail@io@boost@@0ABU1234@@Z
	??$_Fill_unchecked@PAV?$_List_unchecked_iterator@V?$_List_val@U?$_List_simple_types@U?$pair@$$CBGV?$shared_ptr@UTerritoryType@Data@Core@@@boost@@@std@@@std@@@std@@@std@@V12@@std@@YAXPAV?$_List_unchecked_iterator@V?$_List_val@U?$_List_simple_types@U?$pair@$$CBGV?$shared_ptr@UTerritoryType@Data@Core@@@boost@@@std@@@std@@@std@@@0@0ABV10@@Z
	??$_Fill_unchecked@PAV?$_List_unchecked_iterator@V?$_List_val@U?$_List_simple_types@U?$pair@$$CBGV?$unordered_map@IV?$shared_ptr@VZone@Core@@@boost@@U?$hash@I@std@@U?$equal_to@I@4@V?$allocator@U?$pair@$$CBIV?$shared_ptr@VZone@Core@@@boost@@@std@@@4@@std@@@std@@@std@@@std@@@std@@V12@@std@@YAXPAV?$_List_unchecked_iterator@V?$_List_val@U?$_List_simple_types@U?$pair@$$CBGV?$unordered_map@IV?$shared_ptr@VZone@Core@@@boost@@U?$hash@I@std@@U?$equal_to@I@4@V?$allocator@U?$pair@$$CBIV?$shared_ptr@VZone@Core@@@boost@@@std@@@4@@std@@@std@@@std@@@std@@@0@0ABV10@@Z
	??$_Fill_unchecked@PAV?$_List_unchecked_iterator@V?$_List_val@U?$_List_simple_types@U?$pair@$$CBHV?$shared_ptr@VEventObject@Entity@Core@@@boost@@@std@@@std@@@std@@@std@@V12@@std@@YAXPAV?$_List_unchecked_iterator@V?$_List_val@U?$_List_simple_types@U?$pair@$$CBHV?$shared_ptr@VEventObject@Entity@Core@@@boost@@@std@@@std@@@std@@@0@0ABV10@@Z
	??$_Fill_unchecked@PAV?$_List_unchecked_iterator@V?$_List_val@U?$_List_simple_types@U?$pair@$$CBHV?$shared_ptr@VPlayer@Entity@Core@@@boost@@@std@@@std@@@std@@@std@@V12@@std@@YAXPAV?$_List_unchecked_iterator@V?$_List_val@U?$_List_simple_types@U?$pair@$$CBHV?$shared_ptr@VPlayer@Entity@Core@@@boost@@@std@@@std@@@std@@@0@0ABV10@@Z
	??$_Fill_unchecked@PAV?$_List_unchecked_iterator@V?$_List_val@U?$_List_simple_types@U?$pair@$$CBHV?$shared_ptr@VZonePosition@Core@@@boost@@@std@@@std@@@std@@@std@@V12@@std@@YAXPAV?$_List_unchecked_iterator@V?$_List_val@U?$_List_simple_types@U?$pair@$$CBHV?$shared_ptr@VZonePosition@Core@@@boost@@@std@@@std@@@std@@@0@0ABV10@@Z
	??$_Fill_unchecked@PAV?$_List_unchecked_iterator@V?$_List_val@U?$_List_simple_types@U?$pair@$$CBIE@std@@@std@@@std@@@std@@V12@@std@@YAXPAV?$_List_unchecked_iterator@V?$_List_val@U?$_List_simple_types@U?$pair@$$CBIE@std@@@std@@@std@@@0@0ABV10@@Z
	??$_Fill_unchecked@PAV?$_List_unchecked_iterator@V?$_List_val@U?$_List_simple_types@U?$pair@$$CBII@std@@@std@@@std@@@std@@V12@@std@@YAXPAV?$_List_unchecked_iterator@V?$_List_val@U?$_List_simple_types@U?$pair@$$CBII@std@@@std@@@std@@@0@0ABV10@@Z
	??$_Fill_unchecked@PAV?$_List_unchecked_iterator@V?$_List_val@U?$_List_simple_types@U?$pair@$$CBIPAVScriptObject@@@std@@@std@@@std@@@std@@V12@@std@@YAXPAV?$_List_unchecked_iterator@V?$_List_val@U?$_List_simple_types@U?$pair@$$CBIPAVScriptObject@@@std@@@std@@@std@@@0@0ABV10@@Z
	??$_Fill_unchecked@PAV?$_List_unchecked_iterator@V?$_List_val@U?$_List_simple_types@U?$pair@$$CBIV?$shared_ptr@VEventObject@Entity@Core@@@boost@@@std@@@std@@@std@@@std@@V12@@std@@YAXPAV?$_List_unchecked_iterator@V?$_List_val@U?$_List_simple_types@U?$pair@$$CBIV?$shared_ptr@VEventObject@Entity@Core@@@boost@@@std@@@std@@@std@@@0@0ABV10@@Z
	??$_Fill_unchecked@PAV?$_List_unchecked_iterator@V?$_List_val@U?$_List_simple_types@U?$pair@$$CBIV?$shared_ptr@VZone@Core@@@boost@@@std@@@std@@@std@@@std@@V12@@std@@YAXPAV?$_List_unchecked_iterator@V?$_List_val@U?$_List_simple_types@U?$pair@$$CBIV?$shared_ptr@VZone@Core@@@boost@@@std@@@std@@@std@@@0@0ABV10@@Z
	??$_Fill_unchecked@PAV?$_List_unchecked_iterator@V?$_List_val@U?$_List_simple_types@U?$pair@$$CBIV?$unordered_map@IPAVScriptObject@@U?$hash@I@std@@U?$equal_to@I@3@V?$allocator@U?$pair@$$CBIPAVScriptObject@@@std@@@3@@std@@@std@@@std@@@std@@@std@@V12@@std@@YAXPAV?$_List_unchecked_iterator@V?$_List_val@U?$_List_simple_types@U?$pair@$$CBIV?$unordered_map@IPAVScriptObject@@U?$hash@I@std@@U?$equal_to@I@3@V?$allocator@U?$pair@$$CBIPAVScriptObject@@@std@@@3@@std@@@std@@@std@@@std@@@0@0ABV10@@Z
	??$_Fill_unchecked@PAV?$_List_unchecked_iterator@V?$_List_val@U?$_List_simple_types@U?$pair@$$CBV?$basic_string@DU?$char_traits@D@std@@V?$allocator@D@2@@std@@PAVScriptInfo@Scripting@Core@@@std@@@std@@@std@@@std@@V12@@std@@YAXPAV?$_List_unchecked_iterator@V?$_List_val@U?$_List_simple_types@U?$pair@$$CBV?$basic_string@DU?$char_traits@D@std@@V?$allocator@D@2@@std@@PAVScriptInfo@Scripting@Core@@@std@@@std@@@std@@@0@0ABV10@@Z
	??$_Fill_unchecked@V?$_Vb_iterator@U?$_Wrap_alloc@V?$allocator@I@std@@@std@@@std@@_N@std@@YAXV?$_Vb_iterator@U?$_Wrap_alloc@V?$allocator@I@std@@@std@@@0@0AB_N@Z
	??$_Find_if_unchecked@PADU?$is_any_ofF@D@detail@algorithm@boost@@@std@@YAPADPAD0AAU?$is_any_ofF@D@detail@algorithm@boost@@@Z
	??$_Find_unchecked1@PADD@std@@YAPADPAD0ABDU?$integral_constant@_N$00@0@@Z
	??$_Find_unchecked1@PBDD@std@@YAPBDPBD0ABDU?$integral_constant@_N$00@0@@Z
	??$_Find_unchecked@PADD@std@@YAPADPAD0ABD@Z
	??$_Find_unchecked@PBDD@std@@YAPBDPBD0ABD@Z
	??$_Fix@V?$tuple@$$V@std@@@?$_Select_fixer@PAVHive@Network@Core@@$0A@$0A@$0A@@std@@SAAAPAVHive@Network@Core@@AAPAV234@$$QAV?$tuple@$$V@1@@Z
	??$_Fix_arg@PAVHive@Network@Core@@V?$tuple@$$V@std@@@std@@YAAAPAVHive@Network@Core@@AAPAV123@$$QAV?$tuple@$$V@0@@Z
	??$_Floating_to_string@M@std@@YA?AV?$basic_string@DU?$char_traits@D@std@@V?$allocator@D@2@@0@PBDM@Z
	??$_Getvals@D@?$numpunct@D@std@@IAEXDPBUlconv@@U_Cvtvec@@@Z
	??$_Guess_median_unchecked@PADU?$less@X@std@@@std@@YAXPAD00AAU?$less@X@0@@Z
	??$_Guess_median_unchecked@PAU?$copy_map_entry@U?$sequenced_index_node@U?$ordered_index_node@Unull_augment_policy@detail@multi_index@boost@@U?$index_node_base@U?$pair@$$CBV?$basic_string@DU?$char_traits@D@std@@V?$allocator@D@2@@std@@V?$basic_ptree@V?$basic_string@DU?$char_traits@D@std@@V?$allocator@D@2@@std@@V12@U?$less@V?$basic_string@DU?$char_traits@D@std@@V?$allocator@D@2@@std@@@2@@property_tree@boost@@@std@@V?$allocator@U?$pair@$$CBV?$basic_string@DU?$char_traits@D@std@@V?$allocator@D@2@@std@@V?$basic_ptree@V?$basic_string@DU?$char_traits@D@std@@V?$allocator@D@2@@std@@V12@U?$less@V?$basic_string@DU?$char_traits@D@std@@V?$allocator@D@2@@std@@@2@@property_tree@boost@@@std@@@2@@234@@detail@multi_index@boost@@@detail@multi_index@boost@@@detail@multi_index@boost@@U?$less@X@std@@@std@@YAXPAU?$copy_map_entry@U?$sequenced_index_node@U?$ordered_index_node@Unull_augment_policy@detail@multi_index@boost@@U?$index_node_base@U?$pair@$$CBV?$basic_string@DU?$char_traits@D@std@@V?$allocator@D@2@@std@@V?$basic_ptree@V?$basic_string@DU?$char_traits@D@std@@V?$allocator@D@2@@std@@V12@U?$less@V?$basic_string@DU?$char_traits@D@std@@V?$allocator@D@2@@std@@@2@@property_tree@boost@@@std@@V?$allocator@U?$pair@$$CBV?$basic_string@DU?$char_traits@D@std@@V?$allocator@D@2@@std@@V?$basic_ptree@V?$basic_string@DU?$char_traits@D@std@@V?$allocator@D@2@@std@@V12@U?$less@V?$basic_string@DU?$char_traits@D@std@@V?$allocator@D@2@@std@@@2@@property_tree@boost@@@std@@@2@@234@@detail@multi_index@boost@@@detail@multi_index@boost@@@detail@multi_index@boost@@00AAU?$less@X@0@@Z
	??$_Hash_array_representation@D@std@@YAIQBDI@Z
	??$_Hash_representation@G@std@@YAIABG@Z
	??$_Hash_representation@H@std@@YAIABH@Z
	??$_Hash_representation@I@std@@YAIABI@Z
	??$_Idl_distance1@PBDPBD@std@@YAHABQBD0Urandom_access_iterator_tag@0@@Z
	??$_Idl_distance1@V?$_String_iterator@V?$_String_val@U?$_Simple_types@D@std@@@std@@@std@@PAD@std@@YAHABQAD0Urandom_access_iterator_tag@0@@Z
	??$_Idl_distance1@V?$_Vb_iterator@U?$_Wrap_alloc@V?$allocator@I@std@@@std@@@std@@V12@@std@@YAHABV?$_Vb_iterator@U?$_Wrap_alloc@V?$allocator@I@std@@@std@@@0@0Urandom_access_iterator_tag@0@@Z
	??$_Idl_distance@PBDPBD@std@@YAHABQBD0@Z
	??$_Idl_distance@V?$_String_iterator@V?$_String_val@U?$_Simple_types@D@std@@@std@@@std@@PAD@std@@YAHABQAD0@Z
	??$_Idl_distance@V?$_Vb_iterator@U?$_Wrap_alloc@V?$allocator@I@std@@@std@@@std@@V12@@std@@YAHABV?$_Vb_iterator@U?$_Wrap_alloc@V?$allocator@I@std@@@std@@@0@0@Z
	??$_Insert@AAU?$pair@$$CBGV?$shared_ptr@UTerritoryType@Data@Core@@@boost@@@std@@V?$_List_unchecked_iterator@V?$_List_val@U?$_List_simple_types@U?$pair@$$CBGV?$shared_ptr@UTerritoryType@Data@Core@@@boost@@@std@@@std@@@std@@@2@@?$_Hash@V?$_Umap_traits@GV?$shared_ptr@UTerritoryType@Data@Core@@@boost@@V?$_Uhash_compare@GU?$hash@G@std@@U?$equal_to@G@2@@std@@V?$allocator@U?$pair@$$CBGV?$shared_ptr@UTerritoryType@Data@Core@@@boost@@@std@@@4@$0A@@std@@@std@@IAE?AU?$pair@V?$_List_iterator@V?$_List_val@U?$_List_simple_types@U?$pair@$$CBGV?$shared_ptr@UTerritoryType@Data@Core@@@boost@@@std@@@std@@@std@@@std@@_N@1@AAU?$pair@$$CBGV?$shared_ptr@UTerritoryType@Data@Core@@@boost@@@1@V?$_List_unchecked_iterator@V?$_List_val@U?$_List_simple_types@U?$pair@$$CBGV?$shared_ptr@UTerritoryType@Data@Core@@@boost@@@std@@@std@@@std@@@1@@Z
	??$_Insert@AAU?$pair@$$CBGV?$unordered_map@IV?$shared_ptr@VZone@Core@@@boost@@U?$hash@I@std@@U?$equal_to@I@4@V?$allocator@U?$pair@$$CBIV?$shared_ptr@VZone@Core@@@boost@@@std@@@4@@std@@@std@@V?$_List_unchecked_iterator@V?$_List_val@U?$_List_simple_types@U?$pair@$$CBGV?$unordered_map@IV?$shared_ptr@VZone@Core@@@boost@@U?$hash@I@std@@U?$equal_to@I@4@V?$allocator@U?$pair@$$CBIV?$shared_ptr@VZone@Core@@@boost@@@std@@@4@@std@@@std@@@std@@@std@@@2@@?$_Hash@V?$_Umap_traits@GV?$unordered_map@IV?$shared_ptr@VZone@Core@@@boost@@U?$hash@I@std@@U?$equal_to@I@4@V?$allocator@U?$pair@$$CBIV?$shared_ptr@VZone@Core@@@boost@@@std@@@4@@std@@V?$_Uhash_compare@GU?$hash@G@std@@U?$equal_to@G@2@@2@V?$allocator@U?$pair@$$CBGV?$unordered_map@IV?$shared_ptr@VZone@Core@@@boost@@U?$hash@I@std@@U?$equal_to@I@4@V?$allocator@U?$pair@$$CBIV?$shared_ptr@VZone@Core@@@boost@@@std@@@4@@std@@@std@@@2@$0A@@std@@@std@@IAE?AU?$pair@V?$_List_iterator@V?$_List_val@U?$_List_simple_types@U?$pair@$$CBGV?$unordered_map@IV?$shared_ptr@VZone@Core@@@boost@@U?$hash@I@std@@U?$equal_to@I@4@V?$allocator@U?$pair@$$CBIV?$shared_ptr@VZone@Core@@@boost@@@std@@@4@@std@@@std@@@std@@@std@@@std@@_N@1@AAU?$pair@$$CBGV?$unordered_map@IV?$shared_ptr@VZone@Core@@@boost@@U?$hash@I@std@@U?$equal_to@I@4@V?$allocator@U?$pair@$$CBIV?$shared_ptr@VZone@Core@@@boost@@@std@@@4@@std@@@1@V?$_List_unchecked_iterator@V?$_List_val@U?$_List_simple_types@U?$pair@$$CBGV?$unordered_map@IV?$shared_ptr@VZone@Core@@@boost@@U?$hash@I@std@@U?$equal_to@I@4@V?$allocator@U?$pair@$$CBIV?$shared_ptr@VZone@Core@@@boost@@@std@@@4@@std@@@std@@@std@@@std@@@1@@Z
	??$_Insert@AAU?$pair@$$CBHV?$shared_ptr@VEventObject@Entity@Core@@@boost@@@std@@V?$_List_unchecked_iterator@V?$_List_val@U?$_List_simple_types@U?$pair@$$CBHV?$shared_ptr@VEventObject@Entity@Core@@@boost@@@std@@@std@@@std@@@2@@?$_Hash@V?$_Umap_traits@HV?$shared_ptr@VEventObject@Entity@Core@@@boost@@V?$_Uhash_compare@HU?$hash@H@std@@U?$equal_to@H@2@@std@@V?$allocator@U?$pair@$$CBHV?$shared_ptr@VEventObject@Entity@Core@@@boost@@@std@@@4@$0A@@std@@@std@@IAE?AU?$pair@V?$_List_iterator@V?$_List_val@U?$_List_simple_types@U?$pair@$$CBHV?$shared_ptr@VEventObject@Entity@Core@@@boost@@@std@@@std@@@std@@@std@@_N@1@AAU?$pair@$$CBHV?$shared_ptr@VEventObject@Entity@Core@@@boost@@@1@V?$_List_unchecked_iterator@V?$_List_val@U?$_List_simple_types@U?$pair@$$CBHV?$shared_ptr@VEventObject@Entity@Core@@@boost@@@std@@@std@@@std@@@1@@Z
	??$_Insert@AAU?$pair@$$CBHV?$shared_ptr@VPlayer@Entity@Core@@@boost@@@std@@V?$_List_unchecked_iterator@V?$_List_val@U?$_List_simple_types@U?$pair@$$CBHV?$shared_ptr@VPlayer@Entity@Core@@@boost@@@std@@@std@@@std@@@2@@?$_Hash@V?$_Umap_traits@HV?$shared_ptr@VPlayer@Entity@Core@@@boost@@V?$_Uhash_compare@HU?$hash@H@std@@U?$equal_to@H@2@@std@@V?$allocator@U?$pair@$$CBHV?$shared_ptr@VPlayer@Entity@Core@@@boost@@@std@@@4@$0A@@std@@@std@@IAE?AU?$pair@V?$_List_iterator@V?$_List_val@U?$_List_simple_types@U?$pair@$$CBHV?$shared_ptr@VPlayer@Entity@Core@@@boost@@@std@@@std@@@std@@@std@@_N@1@AAU?$pair@$$CBHV?$shared_ptr@VPlayer@Entity@Core@@@boost@@@1@V?$_List_unchecked_iterator@V?$_List_val@U?$_List_simple_types@U?$pair@$$CBHV?$shared_ptr@VPlayer@Entity@Core@@@boost@@@std@@@std@@@std@@@1@@Z
	??$_Insert@AAU?$pair@$$CBHV?$shared_ptr@VZonePosition@Core@@@boost@@@std@@V?$_List_unchecked_iterator@V?$_List_val@U?$_List_simple_types@U?$pair@$$CBHV?$shared_ptr@VZonePosition@Core@@@boost@@@std@@@std@@@std@@@2@@?$_Hash@V?$_Umap_traits@HV?$shared_ptr@VZonePosition@Core@@@boost@@V?$_Uhash_compare@HU?$hash@H@std@@U?$equal_to@H@2@@std@@V?$allocator@U?$pair@$$CBHV?$shared_ptr@VZonePosition@Core@@@boost@@@std@@@4@$0A@@std@@@std@@IAE?AU?$pair@V?$_List_iterator@V?$_List_val@U?$_List_simple_types@U?$pair@$$CBHV?$shared_ptr@VZonePosition@Core@@@boost@@@std@@@std@@@std@@@std@@_N@1@AAU?$pair@$$CBHV?$shared_ptr@VZonePosition@Core@@@boost@@@1@V?$_List_unchecked_iterator@V?$_List_val@U?$_List_simple_types@U?$pair@$$CBHV?$shared_ptr@VZonePosition@Core@@@boost@@@std@@@std@@@std@@@1@@Z
	??$_Insert@AAU?$pair@$$CBIE@std@@V?$_List_unchecked_iterator@V?$_List_val@U?$_List_simple_types@U?$pair@$$CBIE@std@@@std@@@std@@@2@@?$_Hash@V?$_Umap_traits@IEV?$_Uhash_compare@IU?$hash@I@std@@U?$equal_to@I@2@@std@@V?$allocator@U?$pair@$$CBIE@std@@@2@$0A@@std@@@std@@IAE?AU?$pair@V?$_List_iterator@V?$_List_val@U?$_List_simple_types@U?$pair@$$CBIE@std@@@std@@@std@@@std@@_N@1@AAU?$pair@$$CBIE@1@V?$_List_unchecked_iterator@V?$_List_val@U?$_List_simple_types@U?$pair@$$CBIE@std@@@std@@@std@@@1@@Z
	??$_Insert@AAU?$pair@$$CBII@std@@V?$_List_unchecked_iterator@V?$_List_val@U?$_List_simple_types@U?$pair@$$CBII@std@@@std@@@std@@@2@@?$_Hash@V?$_Umap_traits@IIV?$_Uhash_compare@IU?$hash@I@std@@U?$equal_to@I@2@@std@@V?$allocator@U?$pair@$$CBII@std@@@2@$0A@@std@@@std@@IAE?AU?$pair@V?$_List_iterator@V?$_List_val@U?$_List_simple_types@U?$pair@$$CBII@std@@@std@@@std@@@std@@_N@1@AAU?$pair@$$CBII@1@V?$_List_unchecked_iterator@V?$_List_val@U?$_List_simple_types@U?$pair@$$CBII@std@@@std@@@std@@@1@@Z
	??$_Insert@AAU?$pair@$$CBIPAVScriptObject@@@std@@V?$_List_unchecked_iterator@V?$_List_val@U?$_List_simple_types@U?$pair@$$CBIPAVScriptObject@@@std@@@std@@@std@@@2@@?$_Hash@V?$_Umap_traits@IPAVScriptObject@@V?$_Uhash_compare@IU?$hash@I@std@@U?$equal_to@I@2@@std@@V?$allocator@U?$pair@$$CBIPAVScriptObject@@@std@@@3@$0A@@std@@@std@@IAE?AU?$pair@V?$_List_iterator@V?$_List_val@U?$_List_simple_types@U?$pair@$$CBIPAVScriptObject@@@std@@@std@@@std@@@std@@_N@1@AAU?$pair@$$CBIPAVScriptObject@@@1@V?$_List_unchecked_iterator@V?$_List_val@U?$_List_simple_types@U?$pair@$$CBIPAVScriptObject@@@std@@@std@@@std@@@1@@Z
	??$_Insert@AAU?$pair@$$CBIV?$shared_ptr@VEventObject@Entity@Core@@@boost@@@std@@V?$_List_unchecked_iterator@V?$_List_val@U?$_List_simple_types@U?$pair@$$CBIV?$shared_ptr@VEventObject@Entity@Core@@@boost@@@std@@@std@@@std@@@2@@?$_Hash@V?$_Umap_traits@IV?$shared_ptr@VEventObject@Entity@Core@@@boost@@V?$_Uhash_compare@IU?$hash@I@std@@U?$equal_to@I@2@@std@@V?$allocator@U?$pair@$$CBIV?$shared_ptr@VEventObject@Entity@Core@@@boost@@@std@@@4@$0A@@std@@@std@@IAE?AU?$pair@V?$_List_iterator@V?$_List_val@U?$_List_simple_types@U?$pair@$$CBIV?$shared_ptr@VEventObject@Entity@Core@@@boost@@@std@@@std@@@std@@@std@@_N@1@AAU?$pair@$$CBIV?$shared_ptr@VEventObject@Entity@Core@@@boost@@@1@V?$_List_unchecked_iterator@V?$_List_val@U?$_List_simple_types@U?$pair@$$CBIV?$shared_ptr@VEventObject@Entity@Core@@@boost@@@std@@@std@@@std@@@1@@Z
	??$_Insert@AAU?$pair@$$CBIV?$shared_ptr@VZone@Core@@@boost@@@std@@V?$_List_unchecked_iterator@V?$_List_val@U?$_List_simple_types@U?$pair@$$CBIV?$shared_ptr@VZone@Core@@@boost@@@std@@@std@@@std@@@2@@?$_Hash@V?$_Umap_traits@IV?$shared_ptr@VZone@Core@@@boost@@V?$_Uhash_compare@IU?$hash@I@std@@U?$equal_to@I@2@@std@@V?$allocator@U?$pair@$$CBIV?$shared_ptr@VZone@Core@@@boost@@@std@@@4@$0A@@std@@@std@@IAE?AU?$pair@V?$_List_iterator@V?$_List_val@U?$_List_simple_types@U?$pair@$$CBIV?$shared_ptr@VZone@Core@@@boost@@@std@@@std@@@std@@@std@@_N@1@AAU?$pair@$$CBIV?$shared_ptr@VZone@Core@@@boost@@@1@V?$_List_unchecked_iterator@V?$_List_val@U?$_List_simple_types@U?$pair@$$CBIV?$shared_ptr@VZone@Core@@@boost@@@std@@@std@@@std@@@1@@Z
	??$_Insert@AAU?$pair@$$CBIV?$unordered_map@IPAVScriptObject@@U?$hash@I@std@@U?$equal_to@I@3@V?$allocator@U?$pair@$$CBIPAVScriptObject@@@std@@@3@@std@@@std@@V?$_List_unchecked_iterator@V?$_List_val@U?$_List_simple_types@U?$pair@$$CBIV?$unordered_map@IPAVScriptObject@@U?$hash@I@std@@U?$equal_to@I@3@V?$allocator@U?$pair@$$CBIPAVScriptObject@@@std@@@3@@std@@@std@@@std@@@std@@@2@@?$_Hash@V?$_Umap_traits@IV?$unordered_map@IPAVScriptObject@@U?$hash@I@std@@U?$equal_to@I@3@V?$allocator@U?$pair@$$CBIPAVScriptObject@@@std@@@3@@std@@V?$_Uhash_compare@IU?$hash@I@std@@U?$equal_to@I@2@@2@V?$allocator@U?$pair@$$CBIV?$unordered_map@IPAVScriptObject@@U?$hash@I@std@@U?$equal_to@I@3@V?$allocator@U?$pair@$$CBIPAVScriptObject@@@std@@@3@@std@@@std@@@2@$0A@@std@@@std@@IAE?AU?$pair@V?$_List_iterator@V?$_List_val@U?$_List_simple_types@U?$pair@$$CBIV?$unordered_map@IPAVScriptObject@@U?$hash@I@std@@U?$equal_to@I@3@V?$allocator@U?$pair@$$CBIPAVScriptObject@@@std@@@3@@std@@@std@@@std@@@std@@@std@@_N@1@AAU?$pair@$$CBIV?$unordered_map@IPAVScriptObject@@U?$hash@I@std@@U?$equal_to@I@3@V?$allocator@U?$pair@$$CBIPAVScriptObject@@@std@@@3@@std@@@1@V?$_List_unchecked_iterator@V?$_List_val@U?$_List_simple_types@U?$pair@$$CBIV?$unordered_map@IPAVScriptObject@@U?$hash@I@std@@U?$equal_to@I@3@V?$allocator@U?$pair@$$CBIPAVScriptObject@@@std@@@3@@std@@@std@@@std@@@std@@@1@@Z
	??$_Insert@AAU?$pair@$$CBV?$basic_string@DU?$char_traits@D@std@@V?$allocator@D@2@@std@@PAVScriptInfo@Scripting@Core@@@std@@V?$_List_unchecked_iterator@V?$_List_val@U?$_List_simple_types@U?$pair@$$CBV?$basic_string@DU?$char_traits@D@std@@V?$allocator@D@2@@std@@PAVScriptInfo@Scripting@Core@@@std@@@std@@@std@@@2@@?$_Hash@V?$_Umap_traits@V?$basic_string@DU?$char_traits@D@std@@V?$allocator@D@2@@std@@PAVScriptInfo@Scripting@Core@@V?$_Uhash_compare@V?$basic_string@DU?$char_traits@D@std@@V?$allocator@D@2@@std@@U?$hash@V?$basic_string@DU?$char_traits@D@std@@V?$allocator@D@2@@std@@@2@U?$equal_to@V?$basic_string@DU?$char_traits@D@std@@V?$allocator@D@2@@std@@@2@@2@V?$allocator@U?$pair@$$CBV?$basic_string@DU?$char_traits@D@std@@V?$allocator@D@2@@std@@PAVScriptInfo@Scripting@Core@@@std@@@2@$0A@@std@@@std@@IAE?AU?$pair@V?$_List_iterator@V?$_List_val@U?$_List_simple_types@U?$pair@$$CBV?$basic_string@DU?$char_traits@D@std@@V?$allocator@D@2@@std@@PAVScriptInfo@Scripting@Core@@@std@@@std@@@std@@@std@@_N@1@AAU?$pair@$$CBV?$basic_string@DU?$char_traits@D@std@@V?$allocator@D@2@@std@@PAVScriptInfo@Scripting@Core@@@1@V?$_List_unchecked_iterator@V?$_List_val@U?$_List_simple_types@U?$pair@$$CBV?$basic_string@DU?$char_traits@D@std@@V?$allocator@D@2@@std@@PAVScriptInfo@Scripting@Core@@@std@@@std@@@std@@@1@@Z
	??$_Insert@ABU?$pair@$$CBIV?$shared_ptr@VZone@Core@@@boost@@@std@@@?$list@U?$pair@$$CBIV?$shared_ptr@VZone@Core@@@boost@@@std@@V?$allocator@U?$pair@$$CBIV?$shared_ptr@VZone@Core@@@boost@@@std@@@2@@std@@QAEXV?$_List_unchecked_const_iterator@V?$_List_val@U?$_List_simple_types@U?$pair@$$CBIV?$shared_ptr@VZone@Core@@@boost@@@std@@@std@@@std@@U_Iterator_base0@2@@1@ABU?$pair@$$CBIV?$shared_ptr@VZone@Core@@@boost@@@1@@Z
	??$_Insert@ABUpiecewise_construct_t@std@@V?$tuple@$$QAG@2@V?$tuple@$$V@2@@?$list@U?$pair@$$CBGV?$unordered_map@IV?$shared_ptr@VZone@Core@@@boost@@U?$hash@I@std@@U?$equal_to@I@4@V?$allocator@U?$pair@$$CBIV?$shared_ptr@VZone@Core@@@boost@@@std@@@4@@std@@@std@@V?$allocator@U?$pair@$$CBGV?$unordered_map@IV?$shared_ptr@VZone@Core@@@boost@@U?$hash@I@std@@U?$equal_to@I@4@V?$allocator@U?$pair@$$CBIV?$shared_ptr@VZone@Core@@@boost@@@std@@@4@@std@@@std@@@2@@std@@QAEXV?$_List_unchecked_const_iterator@V?$_List_val@U?$_List_simple_types@U?$pair@$$CBGV?$unordered_map@IV?$shared_ptr@VZone@Core@@@boost@@U?$hash@I@std@@U?$equal_to@I@4@V?$allocator@U?$pair@$$CBIV?$shared_ptr@VZone@Core@@@boost@@@std@@@4@@std@@@std@@@std@@@std@@U_Iterator_base0@2@@1@ABUpiecewise_construct_t@1@$$QAV?$tuple@$$QAG@1@$$QAV?$tuple@$$V@1@@Z
	??$_Insert@ABUpiecewise_construct_t@std@@V?$tuple@$$QAH@2@V?$tuple@$$V@2@@?$list@U?$pair@$$CBHV?$shared_ptr@VEventObject@Entity@Core@@@boost@@@std@@V?$allocator@U?$pair@$$CBHV?$shared_ptr@VEventObject@Entity@Core@@@boost@@@std@@@2@@std@@QAEXV?$_List_unchecked_const_iterator@V?$_List_val@U?$_List_simple_types@U?$pair@$$CBHV?$shared_ptr@VEventObject@Entity@Core@@@boost@@@std@@@std@@@std@@U_Iterator_base0@2@@1@ABUpiecewise_construct_t@1@$$QAV?$tuple@$$QAH@1@$$QAV?$tuple@$$V@1@@Z
	??$_Insert@ABUpiecewise_construct_t@std@@V?$tuple@$$QAH@2@V?$tuple@$$V@2@@?$list@U?$pair@$$CBHV?$shared_ptr@VPlayer@Entity@Core@@@boost@@@std@@V?$allocator@U?$pair@$$CBHV?$shared_ptr@VPlayer@Entity@Core@@@boost@@@std@@@2@@std@@QAEXV?$_List_unchecked_const_iterator@V?$_List_val@U?$_List_simple_types@U?$pair@$$CBHV?$shared_ptr@VPlayer@Entity@Core@@@boost@@@std@@@std@@@std@@U_Iterator_base0@2@@1@ABUpiecewise_construct_t@1@$$QAV?$tuple@$$QAH@1@$$QAV?$tuple@$$V@1@@Z
	??$_Insert@ABUpiecewise_construct_t@std@@V?$tuple@$$QAI@2@V?$tuple@$$V@2@@?$list@U?$pair@$$CBII@std@@V?$allocator@U?$pair@$$CBII@std@@@2@@std@@QAEXV?$_List_unchecked_const_iterator@V?$_List_val@U?$_List_simple_types@U?$pair@$$CBII@std@@@std@@@std@@U_Iterator_base0@2@@1@ABUpiecewise_construct_t@1@$$QAV?$tuple@$$QAI@1@$$QAV?$tuple@$$V@1@@Z
	??$_Insert@ABUpiecewise_construct_t@std@@V?$tuple@$$QAI@2@V?$tuple@$$V@2@@?$list@U?$pair@$$CBIPAVScriptObject@@@std@@V?$allocator@U?$pair@$$CBIPAVScriptObject@@@std@@@2@@std@@QAEXV?$_List_unchecked_const_iterator@V?$_List_val@U?$_List_simple_types@U?$pair@$$CBIPAVScriptObject@@@std@@@std@@@std@@U_Iterator_base0@2@@1@ABUpiecewise_construct_t@1@$$QAV?$tuple@$$QAI@1@$$QAV?$tuple@$$V@1@@Z
	??$_Insert@ABUpiecewise_construct_t@std@@V?$tuple@$$QAI@2@V?$tuple@$$V@2@@?$list@U?$pair@$$CBIV?$shared_ptr@VZone@Core@@@boost@@@std@@V?$allocator@U?$pair@$$CBIV?$shared_ptr@VZone@Core@@@boost@@@std@@@2@@std@@QAEXV?$_List_unchecked_const_iterator@V?$_List_val@U?$_List_simple_types@U?$pair@$$CBIV?$shared_ptr@VZone@Core@@@boost@@@std@@@std@@@std@@U_Iterator_base0@2@@1@ABUpiecewise_construct_t@1@$$QAV?$tuple@$$QAI@1@$$QAV?$tuple@$$V@1@@Z
	??$_Insert@ABUpiecewise_construct_t@std@@V?$tuple@$$QAI@2@V?$tuple@$$V@2@@?$list@U?$pair@$$CBIV?$unordered_map@IPAVScriptObject@@U?$hash@I@std@@U?$equal_to@I@3@V?$allocator@U?$pair@$$CBIPAVScriptObject@@@std@@@3@@std@@@std@@V?$allocator@U?$pair@$$CBIV?$unordered_map@IPAVScriptObject@@U?$hash@I@std@@U?$equal_to@I@3@V?$allocator@U?$pair@$$CBIPAVScriptObject@@@std@@@3@@std@@@std@@@2@@std@@QAEXV?$_List_unchecked_const_iterator@V?$_List_val@U?$_List_simple_types@U?$pair@$$CBIV?$unordered_map@IPAVScriptObject@@U?$hash@I@std@@U?$equal_to@I@3@V?$allocator@U?$pair@$$CBIPAVScriptObject@@@std@@@3@@std@@@std@@@std@@@std@@U_Iterator_base0@2@@1@ABUpiecewise_construct_t@1@$$QAV?$tuple@$$QAI@1@$$QAV?$tuple@$$V@1@@Z
	??$_Insert@ABUpiecewise_construct_t@std@@V?$tuple@ABG@2@V?$tuple@$$V@2@@?$list@U?$pair@$$CBGV?$shared_ptr@UTerritoryType@Data@Core@@@boost@@@std@@V?$allocator@U?$pair@$$CBGV?$shared_ptr@UTerritoryType@Data@Core@@@boost@@@std@@@2@@std@@QAEXV?$_List_unchecked_const_iterator@V?$_List_val@U?$_List_simple_types@U?$pair@$$CBGV?$shared_ptr@UTerritoryType@Data@Core@@@boost@@@std@@@std@@@std@@U_Iterator_base0@2@@1@ABUpiecewise_construct_t@1@$$QAV?$tuple@ABG@1@$$QAV?$tuple@$$V@1@@Z
	??$_Insert@ABUpiecewise_construct_t@std@@V?$tuple@ABG@2@V?$tuple@$$V@2@@?$list@U?$pair@$$CBGV?$unordered_map@IV?$shared_ptr@VZone@Core@@@boost@@U?$hash@I@std@@U?$equal_to@I@4@V?$allocator@U?$pair@$$CBIV?$shared_ptr@VZone@Core@@@boost@@@std@@@4@@std@@@std@@V?$allocator@U?$pair@$$CBGV?$unordered_map@IV?$shared_ptr@VZone@Core@@@boost@@U?$hash@I@std@@U?$equal_to@I@4@V?$allocator@U?$pair@$$CBIV?$shared_ptr@VZone@Core@@@boost@@@std@@@4@@std@@@std@@@2@@std@@QAEXV?$_List_unchecked_const_iterator@V?$_List_val@U?$_List_simple_types@U?$pair@$$CBGV?$unordered_map@IV?$shared_ptr@VZone@Core@@@boost@@U?$hash@I@std@@U?$equal_to@I@4@V?$allocator@U?$pair@$$CBIV?$shared_ptr@VZone@Core@@@boost@@@std@@@4@@std@@@std@@@std@@@std@@U_Iterator_base0@2@@1@ABUpiecewise_construct_t@1@$$QAV?$tuple@ABG@1@$$QAV?$tuple@$$V@1@@Z
	??$_Insert@ABUpiecewise_construct_t@std@@V?$tuple@ABH@2@V?$tuple@$$V@2@@?$list@U?$pair@$$CBHV?$shared_ptr@VZonePosition@Core@@@boost@@@std@@V?$allocator@U?$pair@$$CBHV?$shared_ptr@VZonePosition@Core@@@boost@@@std@@@2@@std@@QAEXV?$_List_unchecked_const_iterator@V?$_List_val@U?$_List_simple_types@U?$pair@$$CBHV?$shared_ptr@VZonePosition@Core@@@boost@@@std@@@std@@@std@@U_Iterator_base0@2@@1@ABUpiecewise_construct_t@1@$$QAV?$tuple@ABH@1@$$QAV?$tuple@$$V@1@@Z
	??$_Insert@ABUpiecewise_construct_t@std@@V?$tuple@ABI@2@V?$tuple@$$V@2@@?$list@U?$pair@$$CBIE@std@@V?$allocator@U?$pair@$$CBIE@std@@@2@@std@@QAEXV?$_List_unchecked_const_iterator@V?$_List_val@U?$_List_simple_types@U?$pair@$$CBIE@std@@@std@@@std@@U_Iterator_base0@2@@1@ABUpiecewise_construct_t@1@$$QAV?$tuple@ABI@1@$$QAV?$tuple@$$V@1@@Z
	??$_Insert@ABUpiecewise_construct_t@std@@V?$tuple@ABI@2@V?$tuple@$$V@2@@?$list@U?$pair@$$CBIV?$shared_ptr@VEventObject@Entity@Core@@@boost@@@std@@V?$allocator@U?$pair@$$CBIV?$shared_ptr@VEventObject@Entity@Core@@@boost@@@std@@@2@@std@@QAEXV?$_List_unchecked_const_iterator@V?$_List_val@U?$_List_simple_types@U?$pair@$$CBIV?$shared_ptr@VEventObject@Entity@Core@@@boost@@@std@@@std@@@std@@U_Iterator_base0@2@@1@ABUpiecewise_construct_t@1@$$QAV?$tuple@ABI@1@$$QAV?$tuple@$$V@1@@Z
	??$_Insert@ABUpiecewise_construct_t@std@@V?$tuple@ABI@2@V?$tuple@$$V@2@@?$list@U?$pair@$$CBIV?$shared_ptr@VZone@Core@@@boost@@@std@@V?$allocator@U?$pair@$$CBIV?$shared_ptr@VZone@Core@@@boost@@@std@@@2@@std@@QAEXV?$_List_unchecked_const_iterator@V?$_List_val@U?$_List_simple_types@U?$pair@$$CBIV?$shared_ptr@VZone@Core@@@boost@@@std@@@std@@@std@@U_Iterator_base0@2@@1@ABUpiecewise_construct_t@1@$$QAV?$tuple@ABI@1@$$QAV?$tuple@$$V@1@@Z
	??$_Insert@ABUpiecewise_construct_t@std@@V?$tuple@ABI@2@V?$tuple@$$V@2@@?$list@U?$pair@$$CBIV?$unordered_map@IPAVScriptObject@@U?$hash@I@std@@U?$equal_to@I@3@V?$allocator@U?$pair@$$CBIPAVScriptObject@@@std@@@3@@std@@@std@@V?$allocator@U?$pair@$$CBIV?$unordered_map@IPAVScriptObject@@U?$hash@I@std@@U?$equal_to@I@3@V?$allocator@U?$pair@$$CBIPAVScriptObject@@@std@@@3@@std@@@std@@@2@@std@@QAEXV?$_List_unchecked_const_iterator@V?$_List_val@U?$_List_simple_types@U?$pair@$$CBIV?$unordered_map@IPAVScriptObject@@U?$hash@I@std@@U?$equal_to@I@3@V?$allocator@U?$pair@$$CBIPAVScriptObject@@@std@@@3@@std@@@std@@@std@@@std@@U_Iterator_base0@2@@1@ABUpiecewise_construct_t@1@$$QAV?$tuple@ABI@1@$$QAV?$tuple@$$V@1@@Z
	??$_Insert@U?$pair@V?$basic_string@DU?$char_traits@D@std@@V?$allocator@D@2@@std@@PAVScriptInfo@Scripting@Core@@@std@@@?$list@U?$pair@$$CBV?$basic_string@DU?$char_traits@D@std@@V?$allocator@D@2@@std@@PAVScriptInfo@Scripting@Core@@@std@@V?$allocator@U?$pair@$$CBV?$basic_string@DU?$char_traits@D@std@@V?$allocator@D@2@@std@@PAVScriptInfo@Scripting@Core@@@std@@@2@@std@@QAEXV?$_List_unchecked_const_iterator@V?$_List_val@U?$_List_simple_types@U?$pair@$$CBV?$basic_string@DU?$char_traits@D@std@@V?$allocator@D@2@@std@@PAVScriptInfo@Scripting@Core@@@std@@@std@@@std@@U_Iterator_base0@2@@1@$$QAU?$pair@V?$basic_string@DU?$char_traits@D@std@@V?$allocator@D@2@@std@@PAVScriptInfo@Scripting@Core@@@1@@Z
	??$_Insert_at@AAU?$pair@$$CBEH@std@@PAU?$_Tree_node@U?$pair@$$CBEH@std@@PAX@2@@?$_Tree@V?$_Tmap_traits@EHU?$less@E@std@@V?$allocator@U?$pair@$$CBEH@std@@@2@$0A@@std@@@std@@IAE?AV?$_Tree_iterator@V?$_Tree_val@U?$_Tree_simple_types@U?$pair@$$CBEH@std@@@std@@@std@@@1@_NPAU?$_Tree_node@U?$pair@$$CBEH@std@@PAX@1@AAU?$pair@$$CBEH@1@1@Z
	??$_Insert_at@AAU?$pair@$$CBEI@std@@PAU?$_Tree_node@U?$pair@$$CBEI@std@@PAX@2@@?$_Tree@V?$_Tmap_traits@EIU?$less@E@std@@V?$allocator@U?$pair@$$CBEI@std@@@2@$0A@@std@@@std@@IAE?AV?$_Tree_iterator@V?$_Tree_val@U?$_Tree_simple_types@U?$pair@$$CBEI@std@@@std@@@std@@@1@_NPAU?$_Tree_node@U?$pair@$$CBEI@std@@PAX@1@AAU?$pair@$$CBEI@1@1@Z
	??$_Insert_at@AAU?$pair@$$CBEV?$shared_ptr@VItem@Core@@@boost@@@std@@PAU?$_Tree_node@U?$pair@$$CBEV?$shared_ptr@VItem@Core@@@boost@@@std@@PAX@2@@?$_Tree@V?$_Tmap_traits@EV?$shared_ptr@VItem@Core@@@boost@@U?$less@E@std@@V?$allocator@U?$pair@$$CBEV?$shared_ptr@VItem@Core@@@boost@@@std@@@4@$0A@@std@@@std@@IAE?AV?$_Tree_iterator@V?$_Tree_val@U?$_Tree_simple_types@U?$pair@$$CBEV?$shared_ptr@VItem@Core@@@boost@@@std@@@std@@@std@@@1@_NPAU?$_Tree_node@U?$pair@$$CBEV?$shared_ptr@VItem@Core@@@boost@@@std@@PAX@1@AAU?$pair@$$CBEV?$shared_ptr@VItem@Core@@@boost@@@1@1@Z
	??$_Insert_at@AAU?$pair@$$CBEV?$shared_ptr@VStatusEffect@1Core@@@boost@@@std@@PAU?$_Tree_node@U?$pair@$$CBEV?$shared_ptr@VStatusEffect@1Core@@@boost@@@std@@PAX@2@@?$_Tree@V?$_Tmap_traits@EV?$shared_ptr@VStatusEffect@1Core@@@boost@@U?$less@E@std@@V?$allocator@U?$pair@$$CBEV?$shared_ptr@VStatusEffect@1Core@@@boost@@@std@@@4@$0A@@std@@@std@@IAE?AV?$_Tree_iterator@V?$_Tree_val@U?$_Tree_simple_types@U?$pair@$$CBEV?$shared_ptr@VStatusEffect@1Core@@@boost@@@std@@@std@@@std@@@1@_NPAU?$_Tree_node@U?$pair@$$CBEV?$shared_ptr@VStatusEffect@1Core@@@boost@@@std@@PAX@1@AAU?$pair@$$CBEV?$shared_ptr@VStatusEffect@1Core@@@boost@@@1@1@Z
	??$_Insert_at@AAU?$pair@$$CBGP8GameConnection@Network@Core@@AEXABVGamePacket@Packets@23@AAVPlayer@Entity@3@@Z@std@@PAU?$_Tree_node@U?$pair@$$CBGP8GameConnection@Network@Core@@AEXABVGamePacket@Packets@23@AAVPlayer@Entity@3@@Z@std@@PAX@2@@?$_Tree@V?$_Tmap_traits@GP8GameConnection@Network@Core@@AEXABVGamePacket@Packets@23@AAVPlayer@Entity@3@@ZU?$less@G@std@@V?$allocator@U?$pair@$$CBGP8GameConnection@Network@Core@@AEXABVGamePacket@Packets@23@AAVPlayer@Entity@3@@Z@std@@@9@$0A@@std@@@std@@IAE?AV?$_Tree_iterator@V?$_Tree_val@U?$_Tree_simple_types@U?$pair@$$CBGP8GameConnection@Network@Core@@AEXABVGamePacket@Packets@23@AAVPlayer@Entity@3@@Z@std@@@std@@@std@@@1@_NPAU?$_Tree_node@U?$pair@$$CBGP8GameConnection@Network@Core@@AEXABVGamePacket@Packets@23@AAVPlayer@Entity@3@@Z@std@@PAX@1@AAU?$pair@$$CBGP8GameConnection@Network@Core@@AEXABVGamePacket@Packets@23@AAVPlayer@Entity@3@@Z@1@1@Z
	??$_Insert_at@AAU?$pair@$$CBGV?$basic_string@DU?$char_traits@D@std@@V?$allocator@D@2@@std@@@std@@PAU?$_Tree_node@U?$pair@$$CBGV?$basic_string@DU?$char_traits@D@std@@V?$allocator@D@2@@std@@@std@@PAX@2@@?$_Tree@V?$_Tmap_traits@GV?$basic_string@DU?$char_traits@D@std@@V?$allocator@D@2@@std@@U?$less@G@2@V?$allocator@U?$pair@$$CBGV?$basic_string@DU?$char_traits@D@std@@V?$allocator@D@2@@std@@@std@@@2@$0A@@std@@@std@@IAE?AV?$_Tree_iterator@V?$_Tree_val@U?$_Tree_simple_types@U?$pair@$$CBGV?$basic_string@DU?$char_traits@D@std@@V?$allocator@D@2@@std@@@std@@@std@@@std@@@1@_NPAU?$_Tree_node@U?$pair@$$CBGV?$basic_string@DU?$char_traits@D@std@@V?$allocator@D@2@@std@@@std@@PAX@1@AAU?$pair@$$CBGV?$basic_string@DU?$char_traits@D@std@@V?$allocator@D@2@@std@@@1@1@Z
	??$_Insert_at@AAU?$pair@$$CBGV?$shared_ptr@VItemContainer@Core@@@boost@@@std@@PAU?$_Tree_node@U?$pair@$$CBGV?$shared_ptr@VItemContainer@Core@@@boost@@@std@@PAX@2@@?$_Tree@V?$_Tmap_traits@GV?$shared_ptr@VItemContainer@Core@@@boost@@U?$less@G@std@@V?$allocator@U?$pair@$$CBGV?$shared_ptr@VItemContainer@Core@@@boost@@@std@@@4@$0A@@std@@@std@@IAE?AV?$_Tree_iterator@V?$_Tree_val@U?$_Tree_simple_types@U?$pair@$$CBGV?$shared_ptr@VItemContainer@Core@@@boost@@@std@@@std@@@std@@@1@_NPAU?$_Tree_node@U?$pair@$$CBGV?$shared_ptr@VItemContainer@Core@@@boost@@@std@@PAX@1@AAU?$pair@$$CBGV?$shared_ptr@VItemContainer@Core@@@boost@@@1@1@Z
	??$_Insert_at@AAU?$pair@$$CBIE@std@@PAU?$_Tree_node@U?$pair@$$CBIE@std@@PAX@2@@?$_Tree@V?$_Tmap_traits@IEU?$less@I@std@@V?$allocator@U?$pair@$$CBIE@std@@@2@$0A@@std@@@std@@IAE?AV?$_Tree_iterator@V?$_Tree_val@U?$_Tree_simple_types@U?$pair@$$CBIE@std@@@std@@@std@@@1@_NPAU?$_Tree_node@U?$pair@$$CBIE@std@@PAX@1@AAU?$pair@$$CBIE@1@1@Z
	??$_Insert_at@AAU?$pair@$$CBIV?$shared_ptr@VEventHandler@Event@Core@@@boost@@@std@@PAU?$_Tree_node@U?$pair@$$CBIV?$shared_ptr@VEventHandler@Event@Core@@@boost@@@std@@PAX@2@@?$_Tree@V?$_Tmap_traits@IV?$shared_ptr@VEventHandler@Event@Core@@@boost@@U?$less@I@std@@V?$allocator@U?$pair@$$CBIV?$shared_ptr@VEventHandler@Event@Core@@@boost@@@std@@@4@$0A@@std@@@std@@IAE?AV?$_Tree_iterator@V?$_Tree_val@U?$_Tree_simple_types@U?$pair@$$CBIV?$shared_ptr@VEventHandler@Event@Core@@@boost@@@std@@@std@@@std@@@1@_NPAU?$_Tree_node@U?$pair@$$CBIV?$shared_ptr@VEventHandler@Event@Core@@@boost@@@std@@PAX@1@AAU?$pair@$$CBIV?$shared_ptr@VEventHandler@Event@Core@@@boost@@@1@1@Z
	??$_Insert_at@AAU?$pair@$$CBIV?$shared_ptr@VSession@Core@@@boost@@@std@@PAU?$_Tree_node@U?$pair@$$CBIV?$shared_ptr@VSession@Core@@@boost@@@std@@PAX@2@@?$_Tree@V?$_Tmap_traits@IV?$shared_ptr@VSession@Core@@@boost@@U?$less@I@std@@V?$allocator@U?$pair@$$CBIV?$shared_ptr@VSession@Core@@@boost@@@std@@@4@$0A@@std@@@std@@IAE?AV?$_Tree_iterator@V?$_Tree_val@U?$_Tree_simple_types@U?$pair@$$CBIV?$shared_ptr@VSession@Core@@@boost@@@std@@@std@@@std@@@1@_NPAU?$_Tree_node@U?$pair@$$CBIV?$shared_ptr@VSession@Core@@@boost@@@std@@PAX@1@AAU?$pair@$$CBIV?$shared_ptr@VSession@Core@@@boost@@@1@1@Z
	??$_Insert_at@AAU?$pair@$$CBV?$basic_string@DU?$char_traits@D@std@@V?$allocator@D@2@@std@@V?$shared_ptr@VDebugCommand@Core@@@boost@@@std@@PAU?$_Tree_node@U?$pair@$$CBV?$basic_string@DU?$char_traits@D@std@@V?$allocator@D@2@@std@@V?$shared_ptr@VDebugCommand@Core@@@boost@@@std@@PAX@2@@?$_Tree@V?$_Tmap_traits@V?$basic_string@DU?$char_traits@D@std@@V?$allocator@D@2@@std@@V?$shared_ptr@VDebugCommand@Core@@@boost@@U?$less@V?$basic_string@DU?$char_traits@D@std@@V?$allocator@D@2@@std@@@2@V?$allocator@U?$pair@$$CBV?$basic_string@DU?$char_traits@D@std@@V?$allocator@D@2@@std@@V?$shared_ptr@VDebugCommand@Core@@@boost@@@std@@@2@$0A@@std@@@std@@IAE?AV?$_Tree_iterator@V?$_Tree_val@U?$_Tree_simple_types@U?$pair@$$CBV?$basic_string@DU?$char_traits@D@std@@V?$allocator@D@2@@std@@V?$shared_ptr@VDebugCommand@Core@@@boost@@@std@@@std@@@std@@@1@_NPAU?$_Tree_node@U?$pair@$$CBV?$basic_string@DU?$char_traits@D@std@@V?$allocator@D@2@@std@@V?$shared_ptr@VDebugCommand@Core@@@boost@@@std@@PAX@1@AAU?$pair@$$CBV?$basic_string@DU?$char_traits@D@std@@V?$allocator@D@2@@std@@V?$shared_ptr@VDebugCommand@Core@@@boost@@@1@1@Z
	??$_Insert_at@AAU?$pair@$$CBV?$basic_string@DU?$char_traits@D@std@@V?$allocator@D@2@@std@@V?$shared_ptr@VEventObject@Entity@Core@@@boost@@@std@@PAU?$_Tree_node@U?$pair@$$CBV?$basic_string@DU?$char_traits@D@std@@V?$allocator@D@2@@std@@V?$shared_ptr@VEventObject@Entity@Core@@@boost@@@std@@PAX@2@@?$_Tree@V?$_Tmap_traits@V?$basic_string@DU?$char_traits@D@std@@V?$allocator@D@2@@std@@V?$shared_ptr@VEventObject@Entity@Core@@@boost@@U?$less@V?$basic_string@DU?$char_traits@D@std@@V?$allocator@D@2@@std@@@2@V?$allocator@U?$pair@$$CBV?$basic_string@DU?$char_traits@D@std@@V?$allocator@D@2@@std@@V?$shared_ptr@VEventObject@Entity@Core@@@boost@@@std@@@2@$0A@@std@@@std@@IAE?AV?$_Tree_iterator@V?$_Tree_val@U?$_Tree_simple_types@U?$pair@$$CBV?$basic_string@DU?$char_traits@D@std@@V?$allocator@D@2@@std@@V?$shared_ptr@VEventObject@Entity@Core@@@boost@@@std@@@std@@@std@@@1@_NPAU?$_Tree_node@U?$pair@$$CBV?$basic_string@DU?$char_traits@D@std@@V?$allocator@D@2@@std@@V?$shared_ptr@VEventObject@Entity@Core@@@boost@@@std@@PAX@1@AAU?$pair@$$CBV?$basic_string@DU?$char_traits@D@std@@V?$allocator@D@2@@std@@V?$shared_ptr@VEventObject@Entity@Core@@@boost@@@1@1@Z
	??$_Insert_at@AAU?$pair@$$CBV?$basic_string@DU?$char_traits@D@std@@V?$allocator@D@2@@std@@V?$shared_ptr@VLinkshell@Core@@@boost@@@std@@PAU?$_Tree_node@U?$pair@$$CBV?$basic_string@DU?$char_traits@D@std@@V?$allocator@D@2@@std@@V?$shared_ptr@VLinkshell@Core@@@boost@@@std@@PAX@2@@?$_Tree@V?$_Tmap_traits@V?$basic_string@DU?$char_traits@D@std@@V?$allocator@D@2@@std@@V?$shared_ptr@VLinkshell@Core@@@boost@@U?$less@V?$basic_string@DU?$char_traits@D@std@@V?$allocator@D@2@@std@@@2@V?$allocator@U?$pair@$$CBV?$basic_string@DU?$char_traits@D@std@@V?$allocator@D@2@@std@@V?$shared_ptr@VLinkshell@Core@@@boost@@@std@@@2@$0A@@std@@@std@@IAE?AV?$_Tree_iterator@V?$_Tree_val@U?$_Tree_simple_types@U?$pair@$$CBV?$basic_string@DU?$char_traits@D@std@@V?$allocator@D@2@@std@@V?$shared_ptr@VLinkshell@Core@@@boost@@@std@@@std@@@std@@@1@_NPAU?$_Tree_node@U?$pair@$$CBV?$basic_string@DU?$char_traits@D@std@@V?$allocator@D@2@@std@@V?$shared_ptr@VLinkshell@Core@@@boost@@@std@@PAX@1@AAU?$pair@$$CBV?$basic_string@DU?$char_traits@D@std@@V?$allocator@D@2@@std@@V?$shared_ptr@VLinkshell@Core@@@boost@@@1@1@Z
	??$_Insert_at@AAU?$pair@$$CBV?$basic_string@DU?$char_traits@D@std@@V?$allocator@D@2@@std@@V?$shared_ptr@VSession@Core@@@boost@@@std@@PAU?$_Tree_node@U?$pair@$$CBV?$basic_string@DU?$char_traits@D@std@@V?$allocator@D@2@@std@@V?$shared_ptr@VSession@Core@@@boost@@@std@@PAX@2@@?$_Tree@V?$_Tmap_traits@V?$basic_string@DU?$char_traits@D@std@@V?$allocator@D@2@@std@@V?$shared_ptr@VSession@Core@@@boost@@U?$less@V?$basic_string@DU?$char_traits@D@std@@V?$allocator@D@2@@std@@@2@V?$allocator@U?$pair@$$CBV?$basic_string@DU?$char_traits@D@std@@V?$allocator@D@2@@std@@V?$shared_ptr@VSession@Core@@@boost@@@std@@@2@$0A@@std@@@std@@IAE?AV?$_Tree_iterator@V?$_Tree_val@U?$_Tree_simple_types@U?$pair@$$CBV?$basic_string@DU?$char_traits@D@std@@V?$allocator@D@2@@std@@V?$shared_ptr@VSession@Core@@@boost@@@std@@@std@@@std@@@1@_NPAU?$_Tree_node@U?$pair@$$CBV?$basic_string@DU?$char_traits@D@std@@V?$allocator@D@2@@std@@V?$shared_ptr@VSession@Core@@@boost@@@std@@PAX@1@AAU?$pair@$$CBV?$basic_string@DU?$char_traits@D@std@@V?$allocator@D@2@@std@@V?$shared_ptr@VSession@Core@@@boost@@@1@1@Z
	??$_Insert_at@AAU?$pair@$$CBV?$basic_string@DU?$char_traits@D@std@@V?$allocator@D@2@@std@@VWatcher@Watchdog@@@std@@PAU?$_Tree_node@U?$pair@$$CBV?$basic_string@DU?$char_traits@D@std@@V?$allocator@D@2@@std@@VWatcher@Watchdog@@@std@@PAX@2@@?$_Tree@V?$_Tmap_traits@V?$basic_string@DU?$char_traits@D@std@@V?$allocator@D@2@@std@@VWatcher@Watchdog@@U?$less@V?$basic_string@DU?$char_traits@D@std@@V?$allocator@D@2@@std@@@2@V?$allocator@U?$pair@$$CBV?$basic_string@DU?$char_traits@D@std@@V?$allocator@D@2@@std@@VWatcher@Watchdog@@@std@@@2@$0A@@std@@@std@@IAE?AV?$_Tree_iterator@V?$_Tree_val@U?$_Tree_simple_types@U?$pair@$$CBV?$basic_string@DU?$char_traits@D@std@@V?$allocator@D@2@@std@@VWatcher@Watchdog@@@std@@@std@@@std@@@1@_NPAU?$_Tree_node@U?$pair@$$CBV?$basic_string@DU?$char_traits@D@std@@V?$allocator@D@2@@std@@VWatcher@Watchdog@@@std@@PAX@1@AAU?$pair@$$CBV?$basic_string@DU?$char_traits@D@std@@V?$allocator@D@2@@std@@VWatcher@Watchdog@@@1@1@Z
	??$_Insert_at@AAU?$pair@$$CBV?$basic_string@DU?$char_traits@D@std@@V?$allocator@D@2@@std@@_J@std@@PAU?$_Tree_node@U?$pair@$$CBV?$basic_string@DU?$char_traits@D@std@@V?$allocator@D@2@@std@@_J@std@@PAX@2@@?$_Tree@V?$_Tmap_traits@V?$basic_string@DU?$char_traits@D@std@@V?$allocator@D@2@@std@@_JU?$less@V?$basic_string@DU?$char_traits@D@std@@V?$allocator@D@2@@std@@@2@V?$allocator@U?$pair@$$CBV?$basic_string@DU?$char_traits@D@std@@V?$allocator@D@2@@std@@_J@std@@@2@$0A@@std@@@std@@IAE?AV?$_Tree_iterator@V?$_Tree_val@U?$_Tree_simple_types@U?$pair@$$CBV?$basic_string@DU?$char_traits@D@std@@V?$allocator@D@2@@std@@_J@std@@@std@@@std@@@1@_NPAU?$_Tree_node@U?$pair@$$CBV?$basic_string@DU?$char_traits@D@std@@V?$allocator@D@2@@std@@_J@std@@PAX@1@AAU?$pair@$$CBV?$basic_string@DU?$char_traits@D@std@@V?$allocator@D@2@@std@@_J@1@1@Z
	??$_Insert_at@AAU?$pair@$$CBVtype_index@std@@V?$shared_ptr@X@boost@@@std@@PAU?$_Tree_node@U?$pair@$$CBVtype_index@std@@V?$shared_ptr@X@boost@@@std@@PAX@2@@?$_Tree@V?$_Tmap_traits@Vtype_index@std@@V?$shared_ptr@X@boost@@U?$less@Vtype_index@std@@@2@V?$allocator@U?$pair@$$CBVtype_index@std@@V?$shared_ptr@X@boost@@@std@@@2@$0A@@std@@@std@@IAE?AV?$_Tree_iterator@V?$_Tree_val@U?$_Tree_simple_types@U?$pair@$$CBVtype_index@std@@V?$shared_ptr@X@boost@@@std@@@std@@@std@@@1@_NPAU?$_Tree_node@U?$pair@$$CBVtype_index@std@@V?$shared_ptr@X@boost@@@std@@PAX@1@AAU?$pair@$$CBVtype_index@std@@V?$shared_ptr@X@boost@@@1@1@Z
	??$_Insert_at@AAU?$pair@$$CB_KV?$shared_ptr@VLinkshell@Core@@@boost@@@std@@PAU?$_Tree_node@U?$pair@$$CB_KV?$shared_ptr@VLinkshell@Core@@@boost@@@std@@PAX@2@@?$_Tree@V?$_Tmap_traits@_KV?$shared_ptr@VLinkshell@Core@@@boost@@U?$less@_K@std@@V?$allocator@U?$pair@$$CB_KV?$shared_ptr@VLinkshell@Core@@@boost@@@std@@@4@$0A@@std@@@std@@IAE?AV?$_Tree_iterator@V?$_Tree_val@U?$_Tree_simple_types@U?$pair@$$CB_KV?$shared_ptr@VLinkshell@Core@@@boost@@@std@@@std@@@std@@@1@_NPAU?$_Tree_node@U?$pair@$$CB_KV?$shared_ptr@VLinkshell@Core@@@boost@@@std@@PAX@1@AAU?$pair@$$CB_KV?$shared_ptr@VLinkshell@Core@@@boost@@@1@1@Z
	??$_Insert_at@AAV?$shared_ptr@VZone@Core@@@boost@@PAU?$_Tree_node@V?$shared_ptr@VZone@Core@@@boost@@PAX@std@@@?$_Tree@V?$_Tset_traits@V?$shared_ptr@VZone@Core@@@boost@@U?$less@V?$shared_ptr@VZone@Core@@@boost@@@std@@V?$allocator@V?$shared_ptr@VZone@Core@@@boost@@@4@$0A@@std@@@std@@IAE?AV?$_Tree_const_iterator@V?$_Tree_val@U?$_Tree_simple_types@V?$shared_ptr@VZone@Core@@@boost@@@std@@@std@@@1@_NPAU?$_Tree_node@V?$shared_ptr@VZone@Core@@@boost@@PAX@1@AAV?$shared_ptr@VZone@Core@@@boost@@1@Z
	??$_Insert_at@AA_KPAU?$_Tree_node@_KPAX@std@@@?$_Tree@V?$_Tset_traits@_KU?$less@_K@std@@V?$allocator@_K@2@$0A@@std@@@std@@IAE?AV?$_Tree_const_iterator@V?$_Tree_val@U?$_Tree_simple_types@_K@std@@@std@@@1@_NPAU?$_Tree_node@_KPAX@1@AA_K1@Z
	??$_Insert_at@ABIU_Nil@std@@@?$_Tree@V?$_Tset_traits@IU?$less@I@std@@V?$allocator@I@2@$0A@@std@@@std@@IAE?AV?$_Tree_const_iterator@V?$_Tree_val@U?$_Tree_simple_types@I@std@@@std@@@1@_NPAU?$_Tree_node@IPAX@1@ABIU_Nil@1@@Z
	??$_Insert_at@ABQAVScriptInfo@Scripting@Core@@U_Nil@std@@@?$_Tree@V?$_Tset_traits@PAVScriptInfo@Scripting@Core@@U?$less@PAVScriptInfo@Scripting@Core@@@std@@V?$allocator@PAVScriptInfo@Scripting@Core@@@5@$0A@@std@@@std@@IAE?AV?$_Tree_const_iterator@V?$_Tree_val@U?$_Tree_simple_types@PAVScriptInfo@Scripting@Core@@@std@@@std@@@1@_NPAU?$_Tree_node@PAVScriptInfo@Scripting@Core@@PAX@1@ABQAVScriptInfo@Scripting@Core@@U_Nil@1@@Z
	??$_Insert_at@ABV?$basic_string@DU?$char_traits@D@std@@V?$allocator@D@2@@std@@U_Nil@2@@?$_Tree@V?$_Tset_traits@V?$basic_string@DU?$char_traits@D@std@@V?$allocator@D@2@@std@@U?$less@V?$basic_string@DU?$char_traits@D@std@@V?$allocator@D@2@@std@@@2@V?$allocator@V?$basic_string@DU?$char_traits@D@std@@V?$allocator@D@2@@std@@@2@$0A@@std@@@std@@IAE?AV?$_Tree_const_iterator@V?$_Tree_val@U?$_Tree_simple_types@V?$basic_string@DU?$char_traits@D@std@@V?$allocator@D@2@@std@@@std@@@std@@@1@_NPAU?$_Tree_node@V?$basic_string@DU?$char_traits@D@std@@V?$allocator@D@2@@std@@PAX@1@ABV?$basic_string@DU?$char_traits@D@std@@V?$allocator@D@2@@1@U_Nil@1@@Z
	??$_Insert_at@ABV?$shared_ptr@VActor@Entity@Core@@@boost@@U_Nil@std@@@?$_Tree@V?$_Tset_traits@V?$shared_ptr@VActor@Entity@Core@@@boost@@U?$less@V?$shared_ptr@VActor@Entity@Core@@@boost@@@std@@V?$allocator@V?$shared_ptr@VActor@Entity@Core@@@boost@@@4@$0A@@std@@@std@@IAE?AV?$_Tree_const_iterator@V?$_Tree_val@U?$_Tree_simple_types@V?$shared_ptr@VActor@Entity@Core@@@boost@@@std@@@std@@@1@_NPAU?$_Tree_node@V?$shared_ptr@VActor@Entity@Core@@@boost@@PAX@1@ABV?$shared_ptr@VActor@Entity@Core@@@boost@@U_Nil@1@@Z
	??$_Insert_at@ABV?$shared_ptr@VPlayer@Entity@Core@@@boost@@U_Nil@std@@@?$_Tree@V?$_Tset_traits@V?$shared_ptr@VPlayer@Entity@Core@@@boost@@U?$less@V?$shared_ptr@VPlayer@Entity@Core@@@boost@@@std@@V?$allocator@V?$shared_ptr@VPlayer@Entity@Core@@@boost@@@4@$0A@@std@@@std@@IAE?AV?$_Tree_const_iterator@V?$_Tree_val@U?$_Tree_simple_types@V?$shared_ptr@VPlayer@Entity@Core@@@boost@@@std@@@std@@@1@_NPAU?$_Tree_node@V?$shared_ptr@VPlayer@Entity@Core@@@boost@@PAX@1@ABV?$shared_ptr@VPlayer@Entity@Core@@@boost@@U_Nil@1@@Z
	??$_Insert_at@ABV?$shared_ptr@VSession@Core@@@boost@@U_Nil@std@@@?$_Tree@V?$_Tset_traits@V?$shared_ptr@VSession@Core@@@boost@@U?$less@V?$shared_ptr@VSession@Core@@@boost@@@std@@V?$allocator@V?$shared_ptr@VSession@Core@@@boost@@@4@$0A@@std@@@std@@IAE?AV?$_Tree_const_iterator@V?$_Tree_val@U?$_Tree_simple_types@V?$shared_ptr@VSession@Core@@@boost@@@std@@@std@@@1@_NPAU?$_Tree_node@V?$shared_ptr@VSession@Core@@@boost@@PAX@1@ABV?$shared_ptr@VSession@Core@@@boost@@U_Nil@1@@Z
	??$_Insert_at@AB_KU_Nil@std@@@?$_Tree@V?$_Tset_traits@_KU?$less@_K@std@@V?$allocator@_K@2@$0A@@std@@@std@@IAE?AV?$_Tree_const_iterator@V?$_Tree_val@U?$_Tree_simple_types@_K@std@@@std@@@1@_NPAU?$_Tree_node@_KPAX@1@AB_KU_Nil@1@@Z
	??$_Insert_at@IU_Nil@std@@@?$_Tree@V?$_Tset_traits@IU?$less@I@std@@V?$allocator@I@2@$0A@@std@@@std@@IAE?AV?$_Tree_const_iterator@V?$_Tree_val@U?$_Tree_simple_types@I@std@@@std@@@1@_NPAU?$_Tree_node@IPAX@1@$$QAIU_Nil@1@@Z
	??$_Insert_at@V?$shared_ptr@VActor@Entity@Core@@@boost@@U_Nil@std@@@?$_Tree@V?$_Tset_traits@V?$shared_ptr@VActor@Entity@Core@@@boost@@U?$less@V?$shared_ptr@VActor@Entity@Core@@@boost@@@std@@V?$allocator@V?$shared_ptr@VActor@Entity@Core@@@boost@@@4@$0A@@std@@@std@@IAE?AV?$_Tree_const_iterator@V?$_Tree_val@U?$_Tree_simple_types@V?$shared_ptr@VActor@Entity@Core@@@boost@@@std@@@std@@@1@_NPAU?$_Tree_node@V?$shared_ptr@VActor@Entity@Core@@@boost@@PAX@1@$$QAV?$shared_ptr@VActor@Entity@Core@@@boost@@U_Nil@1@@Z
	??$_Insert_at@V?$shared_ptr@VZone@Core@@@boost@@U_Nil@std@@@?$_Tree@V?$_Tset_traits@V?$shared_ptr@VZone@Core@@@boost@@U?$less@V?$shared_ptr@VZone@Core@@@boost@@@std@@V?$allocator@V?$shared_ptr@VZone@Core@@@boost@@@4@$0A@@std@@@std@@IAE?AV?$_Tree_const_iterator@V?$_Tree_val@U?$_Tree_simple_types@V?$shared_ptr@VZone@Core@@@boost@@@std@@@std@@@1@_NPAU?$_Tree_node@V?$shared_ptr@VZone@Core@@@boost@@PAX@1@$$QAV?$shared_ptr@VZone@Core@@@boost@@U_Nil@1@@Z
	??$_Insert_hint@AAU?$pair@$$CBEH@std@@PAU?$_Tree_node@U?$pair@$$CBEH@std@@PAX@2@@?$_Tree@V?$_Tmap_traits@EHU?$less@E@std@@V?$allocator@U?$pair@$$CBEH@std@@@2@$0A@@std@@@std@@IAE?AV?$_Tree_iterator@V?$_Tree_val@U?$_Tree_simple_types@U?$pair@$$CBEH@std@@@std@@@std@@@1@V?$_Tree_const_iterator@V?$_Tree_val@U?$_Tree_simple_types@U?$pair@$$CBEH@std@@@std@@@std@@@1@AAU?$pair@$$CBEH@1@PAU?$_Tree_node@U?$pair@$$CBEH@std@@PAX@1@@Z
	??$_Insert_hint@AAU?$pair@$$CBEI@std@@PAU?$_Tree_node@U?$pair@$$CBEI@std@@PAX@2@@?$_Tree@V?$_Tmap_traits@EIU?$less@E@std@@V?$allocator@U?$pair@$$CBEI@std@@@2@$0A@@std@@@std@@IAE?AV?$_Tree_iterator@V?$_Tree_val@U?$_Tree_simple_types@U?$pair@$$CBEI@std@@@std@@@std@@@1@V?$_Tree_const_iterator@V?$_Tree_val@U?$_Tree_simple_types@U?$pair@$$CBEI@std@@@std@@@std@@@1@AAU?$pair@$$CBEI@1@PAU?$_Tree_node@U?$pair@$$CBEI@std@@PAX@1@@Z
	??$_Insert_hint@AAU?$pair@$$CBEV?$shared_ptr@VItem@Core@@@boost@@@std@@PAU?$_Tree_node@U?$pair@$$CBEV?$shared_ptr@VItem@Core@@@boost@@@std@@PAX@2@@?$_Tree@V?$_Tmap_traits@EV?$shared_ptr@VItem@Core@@@boost@@U?$less@E@std@@V?$allocator@U?$pair@$$CBEV?$shared_ptr@VItem@Core@@@boost@@@std@@@4@$0A@@std@@@std@@IAE?AV?$_Tree_iterator@V?$_Tree_val@U?$_Tree_simple_types@U?$pair@$$CBEV?$shared_ptr@VItem@Core@@@boost@@@std@@@std@@@std@@@1@V?$_Tree_const_iterator@V?$_Tree_val@U?$_Tree_simple_types@U?$pair@$$CBEV?$shared_ptr@VItem@Core@@@boost@@@std@@@std@@@std@@@1@AAU?$pair@$$CBEV?$shared_ptr@VItem@Core@@@boost@@@1@PAU?$_Tree_node@U?$pair@$$CBEV?$shared_ptr@VItem@Core@@@boost@@@std@@PAX@1@@Z
	??$_Insert_hint@AAU?$pair@$$CBEV?$shared_ptr@VStatusEffect@1Core@@@boost@@@std@@PAU?$_Tree_node@U?$pair@$$CBEV?$shared_ptr@VStatusEffect@1Core@@@boost@@@std@@PAX@2@@?$_Tree@V?$_Tmap_traits@EV?$shared_ptr@VStatusEffect@1Core@@@boost@@U?$less@E@std@@V?$allocator@U?$pair@$$CBEV?$shared_ptr@VStatusEffect@1Core@@@boost@@@std@@@4@$0A@@std@@@std@@IAE?AV?$_Tree_iterator@V?$_Tree_val@U?$_Tree_simple_types@U?$pair@$$CBEV?$shared_ptr@VStatusEffect@1Core@@@boost@@@std@@@std@@@std@@@1@V?$_Tree_const_iterator@V?$_Tree_val@U?$_Tree_simple_types@U?$pair@$$CBEV?$shared_ptr@VStatusEffect@1Core@@@boost@@@std@@@std@@@std@@@1@AAU?$pair@$$CBEV?$shared_ptr@VStatusEffect@1Core@@@boost@@@1@PAU?$_Tree_node@U?$pair@$$CBEV?$shared_ptr@VStatusEffect@1Core@@@boost@@@std@@PAX@1@@Z
	??$_Insert_hint@AAU?$pair@$$CBGP8GameConnection@Network@Core@@AEXABVGamePacket@Packets@23@AAVPlayer@Entity@3@@Z@std@@PAU?$_Tree_node@U?$pair@$$CBGP8GameConnection@Network@Core@@AEXABVGamePacket@Packets@23@AAVPlayer@Entity@3@@Z@std@@PAX@2@@?$_Tree@V?$_Tmap_traits@GP8GameConnection@Network@Core@@AEXABVGamePacket@Packets@23@AAVPlayer@Entity@3@@ZU?$less@G@std@@V?$allocator@U?$pair@$$CBGP8GameConnection@Network@Core@@AEXABVGamePacket@Packets@23@AAVPlayer@Entity@3@@Z@std@@@9@$0A@@std@@@std@@IAE?AV?$_Tree_iterator@V?$_Tree_val@U?$_Tree_simple_types@U?$pair@$$CBGP8GameConnection@Network@Core@@AEXABVGamePacket@Packets@23@AAVPlayer@Entity@3@@Z@std@@@std@@@std@@@1@V?$_Tree_const_iterator@V?$_Tree_val@U?$_Tree_simple_types@U?$pair@$$CBGP8GameConnection@Network@Core@@AEXABVGamePacket@Packets@23@AAVPlayer@Entity@3@@Z@std@@@std@@@std@@@1@AAU?$pair@$$CBGP8GameConnection@Network@Core@@AEXABVGamePacket@Packets@23@AAVPlayer@Entity@3@@Z@1@PAU?$_Tree_node@U?$pair@$$CBGP8GameConnection@Network@Core@@AEXABVGamePacket@Packets@23@AAVPlayer@Entity@3@@Z@std@@PAX@1@@Z
	??$_Insert_hint@AAU?$pair@$$CBGV?$basic_string@DU?$char_traits@D@std@@V?$allocator@D@2@@std@@@std@@PAU?$_Tree_node@U?$pair@$$CBGV?$basic_string@DU?$char_traits@D@std@@V?$allocator@D@2@@std@@@std@@PAX@2@@?$_Tree@V?$_Tmap_traits@GV?$basic_string@DU?$char_traits@D@std@@V?$allocator@D@2@@std@@U?$less@G@2@V?$allocator@U?$pair@$$CBGV?$basic_string@DU?$char_traits@D@std@@V?$allocator@D@2@@std@@@std@@@2@$0A@@std@@@std@@IAE?AV?$_Tree_iterator@V?$_Tree_val@U?$_Tree_simple_types@U?$pair@$$CBGV?$basic_string@DU?$char_traits@D@std@@V?$allocator@D@2@@std@@@std@@@std@@@std@@@1@V?$_Tree_const_iterator@V?$_Tree_val@U?$_Tree_simple_types@U?$pair@$$CBGV?$basic_string@DU?$char_traits@D@std@@V?$allocator@D@2@@std@@@std@@@std@@@std@@@1@AAU?$pair@$$CBGV?$basic_string@DU?$char_traits@D@std@@V?$allocator@D@2@@std@@@1@PAU?$_Tree_node@U?$pair@$$CBGV?$basic_string@DU?$char_traits@D@std@@V?$allocator@D@2@@std@@@std@@PAX@1@@Z
	??$_Insert_hint@AAU?$pair@$$CBGV?$shared_ptr@VItemContainer@Core@@@boost@@@std@@PAU?$_Tree_node@U?$pair@$$CBGV?$shared_ptr@VItemContainer@Core@@@boost@@@std@@PAX@2@@?$_Tree@V?$_Tmap_traits@GV?$shared_ptr@VItemContainer@Core@@@boost@@U?$less@G@std@@V?$allocator@U?$pair@$$CBGV?$shared_ptr@VItemContainer@Core@@@boost@@@std@@@4@$0A@@std@@@std@@IAE?AV?$_Tree_iterator@V?$_Tree_val@U?$_Tree_simple_types@U?$pair@$$CBGV?$shared_ptr@VItemContainer@Core@@@boost@@@std@@@std@@@std@@@1@V?$_Tree_const_iterator@V?$_Tree_val@U?$_Tree_simple_types@U?$pair@$$CBGV?$shared_ptr@VItemContainer@Core@@@boost@@@std@@@std@@@std@@@1@AAU?$pair@$$CBGV?$shared_ptr@VItemContainer@Core@@@boost@@@1@PAU?$_Tree_node@U?$pair@$$CBGV?$shared_ptr@VItemContainer@Core@@@boost@@@std@@PAX@1@@Z
	??$_Insert_hint@AAU?$pair@$$CBIE@std@@PAU?$_Tree_node@U?$pair@$$CBIE@std@@PAX@2@@?$_Tree@V?$_Tmap_traits@IEU?$less@I@std@@V?$allocator@U?$pair@$$CBIE@std@@@2@$0A@@std@@@std@@IAE?AV?$_Tree_iterator@V?$_Tree_val@U?$_Tree_simple_types@U?$pair@$$CBIE@std@@@std@@@std@@@1@V?$_Tree_const_iterator@V?$_Tree_val@U?$_Tree_simple_types@U?$pair@$$CBIE@std@@@std@@@std@@@1@AAU?$pair@$$CBIE@1@PAU?$_Tree_node@U?$pair@$$CBIE@std@@PAX@1@@Z
	??$_Insert_hint@AAU?$pair@$$CBIV?$shared_ptr@VEventHandler@Event@Core@@@boost@@@std@@PAU?$_Tree_node@U?$pair@$$CBIV?$shared_ptr@VEventHandler@Event@Core@@@boost@@@std@@PAX@2@@?$_Tree@V?$_Tmap_traits@IV?$shared_ptr@VEventHandler@Event@Core@@@boost@@U?$less@I@std@@V?$allocator@U?$pair@$$CBIV?$shared_ptr@VEventHandler@Event@Core@@@boost@@@std@@@4@$0A@@std@@@std@@IAE?AV?$_Tree_iterator@V?$_Tree_val@U?$_Tree_simple_types@U?$pair@$$CBIV?$shared_ptr@VEventHandler@Event@Core@@@boost@@@std@@@std@@@std@@@1@V?$_Tree_const_iterator@V?$_Tree_val@U?$_Tree_simple_types@U?$pair@$$CBIV?$shared_ptr@VEventHandler@Event@Core@@@boost@@@std@@@std@@@std@@@1@AAU?$pair@$$CBIV?$shared_ptr@VEventHandler@Event@Core@@@boost@@@1@PAU?$_Tree_node@U?$pair@$$CBIV?$shared_ptr@VEventHandler@Event@Core@@@boost@@@std@@PAX@1@@Z
	??$_Insert_hint@AAU?$pair@$$CBIV?$shared_ptr@VSession@Core@@@boost@@@std@@PAU?$_Tree_node@U?$pair@$$CBIV?$shared_ptr@VSession@Core@@@boost@@@std@@PAX@2@@?$_Tree@V?$_Tmap_traits@IV?$shared_ptr@VSession@Core@@@boost@@U?$less@I@std@@V?$allocator@U?$pair@$$CBIV?$shared_ptr@VSession@Core@@@boost@@@std@@@4@$0A@@std@@@std@@IAE?AV?$_Tree_iterator@V?$_Tree_val@U?$_Tree_simple_types@U?$pair@$$CBIV?$shared_ptr@VSession@Core@@@boost@@@std@@@std@@@std@@@1@V?$_Tree_const_iterator@V?$_Tree_val@U?$_Tree_simple_types@U?$pair@$$CBIV?$shared_ptr@VSession@Core@@@boost@@@std@@@std@@@std@@@1@AAU?$pair@$$CBIV?$shared_ptr@VSession@Core@@@boost@@@1@PAU?$_Tree_node@U?$pair@$$CBIV?$shared_ptr@VSession@Core@@@boost@@@std@@PAX@1@@Z
	??$_Insert_hint@AAU?$pair@$$CBV?$basic_string@DU?$char_traits@D@std@@V?$allocator@D@2@@std@@V?$shared_ptr@VDebugCommand@Core@@@boost@@@std@@PAU?$_Tree_node@U?$pair@$$CBV?$basic_string@DU?$char_traits@D@std@@V?$allocator@D@2@@std@@V?$shared_ptr@VDebugCommand@Core@@@boost@@@std@@PAX@2@@?$_Tree@V?$_Tmap_traits@V?$basic_string@DU?$char_traits@D@std@@V?$allocator@D@2@@std@@V?$shared_ptr@VDebugCommand@Core@@@boost@@U?$less@V?$basic_string@DU?$char_traits@D@std@@V?$allocator@D@2@@std@@@2@V?$allocator@U?$pair@$$CBV?$basic_string@DU?$char_traits@D@std@@V?$allocator@D@2@@std@@V?$shared_ptr@VDebugCommand@Core@@@boost@@@std@@@2@$0A@@std@@@std@@IAE?AV?$_Tree_iterator@V?$_Tree_val@U?$_Tree_simple_types@U?$pair@$$CBV?$basic_string@DU?$char_traits@D@std@@V?$allocator@D@2@@std@@V?$shared_ptr@VDebugCommand@Core@@@boost@@@std@@@std@@@std@@@1@V?$_Tree_const_iterator@V?$_Tree_val@U?$_Tree_simple_types@U?$pair@$$CBV?$basic_string@DU?$char_traits@D@std@@V?$allocator@D@2@@std@@V?$shared_ptr@VDebugCommand@Core@@@boost@@@std@@@std@@@std@@@1@AAU?$pair@$$CBV?$basic_string@DU?$char_traits@D@std@@V?$allocator@D@2@@std@@V?$shared_ptr@VDebugCommand@Core@@@boost@@@1@PAU?$_Tree_node@U?$pair@$$CBV?$basic_string@DU?$char_traits@D@std@@V?$allocator@D@2@@std@@V?$shared_ptr@VDebugCommand@Core@@@boost@@@std@@PAX@1@@Z
	??$_Insert_hint@AAU?$pair@$$CBV?$basic_string@DU?$char_traits@D@std@@V?$allocator@D@2@@std@@V?$shared_ptr@VEventObject@Entity@Core@@@boost@@@std@@PAU?$_Tree_node@U?$pair@$$CBV?$basic_string@DU?$char_traits@D@std@@V?$allocator@D@2@@std@@V?$shared_ptr@VEventObject@Entity@Core@@@boost@@@std@@PAX@2@@?$_Tree@V?$_Tmap_traits@V?$basic_string@DU?$char_traits@D@std@@V?$allocator@D@2@@std@@V?$shared_ptr@VEventObject@Entity@Core@@@boost@@U?$less@V?$basic_string@DU?$char_traits@D@std@@V?$allocator@D@2@@std@@@2@V?$allocator@U?$pair@$$CBV?$basic_string@DU?$char_traits@D@std@@V?$allocator@D@2@@std@@V?$shared_ptr@VEventObject@Entity@Core@@@boost@@@std@@@2@$0A@@std@@@std@@IAE?AV?$_Tree_iterator@V?$_Tree_val@U?$_Tree_simple_types@U?$pair@$$CBV?$basic_string@DU?$char_traits@D@std@@V?$allocator@D@2@@std@@V?$shared_ptr@VEventObject@Entity@Core@@@boost@@@std@@@std@@@std@@@1@V?$_Tree_const_iterator@V?$_Tree_val@U?$_Tree_simple_types@U?$pair@$$CBV?$basic_string@DU?$char_traits@D@std@@V?$allocator@D@2@@std@@V?$shared_ptr@VEventObject@Entity@Core@@@boost@@@std@@@std@@@std@@@1@AAU?$pair@$$CBV?$basic_string@DU?$char_traits@D@std@@V?$allocator@D@2@@std@@V?$shared_ptr@VEventObject@Entity@Core@@@boost@@@1@PAU?$_Tree_node@U?$pair@$$CBV?$basic_string@DU?$char_traits@D@std@@V?$allocator@D@2@@std@@V?$shared_ptr@VEventObject@Entity@Core@@@boost@@@std@@PAX@1@@Z
	??$_Insert_hint@AAU?$pair@$$CBV?$basic_string@DU?$char_traits@D@std@@V?$allocator@D@2@@std@@V?$shared_ptr@VLinkshell@Core@@@boost@@@std@@PAU?$_Tree_node@U?$pair@$$CBV?$basic_string@DU?$char_traits@D@std@@V?$allocator@D@2@@std@@V?$shared_ptr@VLinkshell@Core@@@boost@@@std@@PAX@2@@?$_Tree@V?$_Tmap_traits@V?$basic_string@DU?$char_traits@D@std@@V?$allocator@D@2@@std@@V?$shared_ptr@VLinkshell@Core@@@boost@@U?$less@V?$basic_string@DU?$char_traits@D@std@@V?$allocator@D@2@@std@@@2@V?$allocator@U?$pair@$$CBV?$basic_string@DU?$char_traits@D@std@@V?$allocator@D@2@@std@@V?$shared_ptr@VLinkshell@Core@@@boost@@@std@@@2@$0A@@std@@@std@@IAE?AV?$_Tree_iterator@V?$_Tree_val@U?$_Tree_simple_types@U?$pair@$$CBV?$basic_string@DU?$char_traits@D@std@@V?$allocator@D@2@@std@@V?$shared_ptr@VLinkshell@Core@@@boost@@@std@@@std@@@std@@@1@V?$_Tree_const_iterator@V?$_Tree_val@U?$_Tree_simple_types@U?$pair@$$CBV?$basic_string@DU?$char_traits@D@std@@V?$allocator@D@2@@std@@V?$shared_ptr@VLinkshell@Core@@@boost@@@std@@@std@@@std@@@1@AAU?$pair@$$CBV?$basic_string@DU?$char_traits@D@std@@V?$allocator@D@2@@std@@V?$shared_ptr@VLinkshell@Core@@@boost@@@1@PAU?$_Tree_node@U?$pair@$$CBV?$basic_string@DU?$char_traits@D@std@@V?$allocator@D@2@@std@@V?$shared_ptr@VLinkshell@Core@@@boost@@@std@@PAX@1@@Z
	??$_Insert_hint@AAU?$pair@$$CBV?$basic_string@DU?$char_traits@D@std@@V?$allocator@D@2@@std@@V?$shared_ptr@VSession@Core@@@boost@@@std@@PAU?$_Tree_node@U?$pair@$$CBV?$basic_string@DU?$char_traits@D@std@@V?$allocator@D@2@@std@@V?$shared_ptr@VSession@Core@@@boost@@@std@@PAX@2@@?$_Tree@V?$_Tmap_traits@V?$basic_string@DU?$char_traits@D@std@@V?$allocator@D@2@@std@@V?$shared_ptr@VSession@Core@@@boost@@U?$less@V?$basic_string@DU?$char_traits@D@std@@V?$allocator@D@2@@std@@@2@V?$allocator@U?$pair@$$CBV?$basic_string@DU?$char_traits@D@std@@V?$allocator@D@2@@std@@V?$shared_ptr@VSession@Core@@@boost@@@std@@@2@$0A@@std@@@std@@IAE?AV?$_Tree_iterator@V?$_Tree_val@U?$_Tree_simple_types@U?$pair@$$CBV?$basic_string@DU?$char_traits@D@std@@V?$allocator@D@2@@std@@V?$shared_ptr@VSession@Core@@@boost@@@std@@@std@@@std@@@1@V?$_Tree_const_iterator@V?$_Tree_val@U?$_Tree_simple_types@U?$pair@$$CBV?$basic_string@DU?$char_traits@D@std@@V?$allocator@D@2@@std@@V?$shared_ptr@VSession@Core@@@boost@@@std@@@std@@@std@@@1@AAU?$pair@$$CBV?$basic_string@DU?$char_traits@D@std@@V?$allocator@D@2@@std@@V?$shared_ptr@VSession@Core@@@boost@@@1@PAU?$_Tree_node@U?$pair@$$CBV?$basic_string@DU?$char_traits@D@std@@V?$allocator@D@2@@std@@V?$shared_ptr@VSession@Core@@@boost@@@std@@PAX@1@@Z
	??$_Insert_hint@AAU?$pair@$$CBV?$basic_string@DU?$char_traits@D@std@@V?$allocator@D@2@@std@@_J@std@@PAU?$_Tree_node@U?$pair@$$CBV?$basic_string@DU?$char_traits@D@std@@V?$allocator@D@2@@std@@_J@std@@PAX@2@@?$_Tree@V?$_Tmap_traits@V?$basic_string@DU?$char_traits@D@std@@V?$allocator@D@2@@std@@_JU?$less@V?$basic_string@DU?$char_traits@D@std@@V?$allocator@D@2@@std@@@2@V?$allocator@U?$pair@$$CBV?$basic_string@DU?$char_traits@D@std@@V?$allocator@D@2@@std@@_J@std@@@2@$0A@@std@@@std@@IAE?AV?$_Tree_iterator@V?$_Tree_val@U?$_Tree_simple_types@U?$pair@$$CBV?$basic_string@DU?$char_traits@D@std@@V?$allocator@D@2@@std@@_J@std@@@std@@@std@@@1@V?$_Tree_const_iterator@V?$_Tree_val@U?$_Tree_simple_types@U?$pair@$$CBV?$basic_string@DU?$char_traits@D@std@@V?$allocator@D@2@@std@@_J@std@@@std@@@std@@@1@AAU?$pair@$$CBV?$basic_string@DU?$char_traits@D@std@@V?$allocator@D@2@@std@@_J@1@PAU?$_Tree_node@U?$pair@$$CBV?$basic_string@DU?$char_traits@D@std@@V?$allocator@D@2@@std@@_J@std@@PAX@1@@Z
	??$_Insert_hint@AAU?$pair@$$CBVtype_index@std@@V?$shared_ptr@X@boost@@@std@@PAU?$_Tree_node@U?$pair@$$CBVtype_index@std@@V?$shared_ptr@X@boost@@@std@@PAX@2@@?$_Tree@V?$_Tmap_traits@Vtype_index@std@@V?$shared_ptr@X@boost@@U?$less@Vtype_index@std@@@2@V?$allocator@U?$pair@$$CBVtype_index@std@@V?$shared_ptr@X@boost@@@std@@@2@$0A@@std@@@std@@IAE?AV?$_Tree_iterator@V?$_Tree_val@U?$_Tree_simple_types@U?$pair@$$CBVtype_index@std@@V?$shared_ptr@X@boost@@@std@@@std@@@std@@@1@V?$_Tree_const_iterator@V?$_Tree_val@U?$_Tree_simple_types@U?$pair@$$CBVtype_index@std@@V?$shared_ptr@X@boost@@@std@@@std@@@std@@@1@AAU?$pair@$$CBVtype_index@std@@V?$shared_ptr@X@boost@@@1@PAU?$_Tree_node@U?$pair@$$CBVtype_index@std@@V?$shared_ptr@X@boost@@@std@@PAX@1@@Z
	??$_Insert_hint@AAU?$pair@$$CB_KV?$shared_ptr@VLinkshell@Core@@@boost@@@std@@PAU?$_Tree_node@U?$pair@$$CB_KV?$shared_ptr@VLinkshell@Core@@@boost@@@std@@PAX@2@@?$_Tree@V?$_Tmap_traits@_KV?$shared_ptr@VLinkshell@Core@@@boost@@U?$less@_K@std@@V?$allocator@U?$pair@$$CB_KV?$shared_ptr@VLinkshell@Core@@@boost@@@std@@@4@$0A@@std@@@std@@IAE?AV?$_Tree_iterator@V?$_Tree_val@U?$_Tree_simple_types@U?$pair@$$CB_KV?$shared_ptr@VLinkshell@Core@@@boost@@@std@@@std@@@std@@@1@V?$_Tree_const_iterator@V?$_Tree_val@U?$_Tree_simple_types@U?$pair@$$CB_KV?$shared_ptr@VLinkshell@Core@@@boost@@@std@@@std@@@std@@@1@AAU?$pair@$$CB_KV?$shared_ptr@VLinkshell@Core@@@boost@@@1@PAU?$_Tree_node@U?$pair@$$CB_KV?$shared_ptr@VLinkshell@Core@@@boost@@@std@@PAX@1@@Z
	??$_Insert_hint@AAV?$shared_ptr@VZone@Core@@@boost@@PAU?$_Tree_node@V?$shared_ptr@VZone@Core@@@boost@@PAX@std@@@?$_Tree@V?$_Tset_traits@V?$shared_ptr@VZone@Core@@@boost@@U?$less@V?$shared_ptr@VZone@Core@@@boost@@@std@@V?$allocator@V?$shared_ptr@VZone@Core@@@boost@@@4@$0A@@std@@@std@@IAE?AV?$_Tree_const_iterator@V?$_Tree_val@U?$_Tree_simple_types@V?$shared_ptr@VZone@Core@@@boost@@@std@@@std@@@1@V21@AAV?$shared_ptr@VZone@Core@@@boost@@PAU?$_Tree_node@V?$shared_ptr@VZone@Core@@@boost@@PAX@1@@Z
	??$_Insert_hint@AA_KPAU?$_Tree_node@_KPAX@std@@@?$_Tree@V?$_Tset_traits@_KU?$less@_K@std@@V?$allocator@_K@2@$0A@@std@@@std@@IAE?AV?$_Tree_const_iterator@V?$_Tree_val@U?$_Tree_simple_types@_K@std@@@std@@@1@V21@AA_KPAU?$_Tree_node@_KPAX@1@@Z
	??$_Insert_nohint@AAU?$pair@$$CBEH@std@@PAU?$_Tree_node@U?$pair@$$CBEH@std@@PAX@2@@?$_Tree@V?$_Tmap_traits@EHU?$less@E@std@@V?$allocator@U?$pair@$$CBEH@std@@@2@$0A@@std@@@std@@IAE?AU?$pair@V?$_Tree_iterator@V?$_Tree_val@U?$_Tree_simple_types@U?$pair@$$CBEH@std@@@std@@@std@@@std@@_N@1@_NAAU?$pair@$$CBEH@1@PAU?$_Tree_node@U?$pair@$$CBEH@std@@PAX@1@@Z
	??$_Insert_nohint@AAU?$pair@$$CBEI@std@@PAU?$_Tree_node@U?$pair@$$CBEI@std@@PAX@2@@?$_Tree@V?$_Tmap_traits@EIU?$less@E@std@@V?$allocator@U?$pair@$$CBEI@std@@@2@$0A@@std@@@std@@IAE?AU?$pair@V?$_Tree_iterator@V?$_Tree_val@U?$_Tree_simple_types@U?$pair@$$CBEI@std@@@std@@@std@@@std@@_N@1@_NAAU?$pair@$$CBEI@1@PAU?$_Tree_node@U?$pair@$$CBEI@std@@PAX@1@@Z
	??$_Insert_nohint@AAU?$pair@$$CBEV?$shared_ptr@VItem@Core@@@boost@@@std@@PAU?$_Tree_node@U?$pair@$$CBEV?$shared_ptr@VItem@Core@@@boost@@@std@@PAX@2@@?$_Tree@V?$_Tmap_traits@EV?$shared_ptr@VItem@Core@@@boost@@U?$less@E@std@@V?$allocator@U?$pair@$$CBEV?$shared_ptr@VItem@Core@@@boost@@@std@@@4@$0A@@std@@@std@@IAE?AU?$pair@V?$_Tree_iterator@V?$_Tree_val@U?$_Tree_simple_types@U?$pair@$$CBEV?$shared_ptr@VItem@Core@@@boost@@@std@@@std@@@std@@@std@@_N@1@_NAAU?$pair@$$CBEV?$shared_ptr@VItem@Core@@@boost@@@1@PAU?$_Tree_node@U?$pair@$$CBEV?$shared_ptr@VItem@Core@@@boost@@@std@@PAX@1@@Z
	??$_Insert_nohint@AAU?$pair@$$CBEV?$shared_ptr@VStatusEffect@1Core@@@boost@@@std@@PAU?$_Tree_node@U?$pair@$$CBEV?$shared_ptr@VStatusEffect@1Core@@@boost@@@std@@PAX@2@@?$_Tree@V?$_Tmap_traits@EV?$shared_ptr@VStatusEffect@1Core@@@boost@@U?$less@E@std@@V?$allocator@U?$pair@$$CBEV?$shared_ptr@VStatusEffect@1Core@@@boost@@@std@@@4@$0A@@std@@@std@@IAE?AU?$pair@V?$_Tree_iterator@V?$_Tree_val@U?$_Tree_simple_types@U?$pair@$$CBEV?$shared_ptr@VStatusEffect@1Core@@@boost@@@std@@@std@@@std@@@std@@_N@1@_NAAU?$pair@$$CBEV?$shared_ptr@VStatusEffect@1Core@@@boost@@@1@PAU?$_Tree_node@U?$pair@$$CBEV?$shared_ptr@VStatusEffect@1Core@@@boost@@@std@@PAX@1@@Z
	??$_Insert_nohint@AAU?$pair@$$CBGP8GameConnection@Network@Core@@AEXABVGamePacket@Packets@23@AAVPlayer@Entity@3@@Z@std@@PAU?$_Tree_node@U?$pair@$$CBGP8GameConnection@Network@Core@@AEXABVGamePacket@Packets@23@AAVPlayer@Entity@3@@Z@std@@PAX@2@@?$_Tree@V?$_Tmap_traits@GP8GameConnection@Network@Core@@AEXABVGamePacket@Packets@23@AAVPlayer@Entity@3@@ZU?$less@G@std@@V?$allocator@U?$pair@$$CBGP8GameConnection@Network@Core@@AEXABVGamePacket@Packets@23@AAVPlayer@Entity@3@@Z@std@@@9@$0A@@std@@@std@@IAE?AU?$pair@V?$_Tree_iterator@V?$_Tree_val@U?$_Tree_simple_types@U?$pair@$$CBGP8GameConnection@Network@Core@@AEXABVGamePacket@Packets@23@AAVPlayer@Entity@3@@Z@std@@@std@@@std@@@std@@_N@1@_NAAU?$pair@$$CBGP8GameConnection@Network@Core@@AEXABVGamePacket@Packets@23@AAVPlayer@Entity@3@@Z@1@PAU?$_Tree_node@U?$pair@$$CBGP8GameConnection@Network@Core@@AEXABVGamePacket@Packets@23@AAVPlayer@Entity@3@@Z@std@@PAX@1@@Z
	??$_Insert_nohint@AAU?$pair@$$CBGV?$basic_string@DU?$char_traits@D@std@@V?$allocator@D@2@@std@@@std@@PAU?$_Tree_node@U?$pair@$$CBGV?$basic_string@DU?$char_traits@D@std@@V?$allocator@D@2@@std@@@std@@PAX@2@@?$_Tree@V?$_Tmap_traits@GV?$basic_string@DU?$char_traits@D@std@@V?$allocator@D@2@@std@@U?$less@G@2@V?$allocator@U?$pair@$$CBGV?$basic_string@DU?$char_traits@D@std@@V?$allocator@D@2@@std@@@std@@@2@$0A@@std@@@std@@IAE?AU?$pair@V?$_Tree_iterator@V?$_Tree_val@U?$_Tree_simple_types@U?$pair@$$CBGV?$basic_string@DU?$char_traits@D@std@@V?$allocator@D@2@@std@@@std@@@std@@@std@@@std@@_N@1@_NAAU?$pair@$$CBGV?$basic_string@DU?$char_traits@D@std@@V?$allocator@D@2@@std@@@1@PAU?$_Tree_node@U?$pair@$$CBGV?$basic_string@DU?$char_traits@D@std@@V?$allocator@D@2@@std@@@std@@PAX@1@@Z
	??$_Insert_nohint@AAU?$pair@$$CBGV?$shared_ptr@VItemContainer@Core@@@boost@@@std@@PAU?$_Tree_node@U?$pair@$$CBGV?$shared_ptr@VItemContainer@Core@@@boost@@@std@@PAX@2@@?$_Tree@V?$_Tmap_traits@GV?$shared_ptr@VItemContainer@Core@@@boost@@U?$less@G@std@@V?$allocator@U?$pair@$$CBGV?$shared_ptr@VItemContainer@Core@@@boost@@@std@@@4@$0A@@std@@@std@@IAE?AU?$pair@V?$_Tree_iterator@V?$_Tree_val@U?$_Tree_simple_types@U?$pair@$$CBGV?$shared_ptr@VItemContainer@Core@@@boost@@@std@@@std@@@std@@@std@@_N@1@_NAAU?$pair@$$CBGV?$shared_ptr@VItemContainer@Core@@@boost@@@1@PAU?$_Tree_node@U?$pair@$$CBGV?$shared_ptr@VItemContainer@Core@@@boost@@@std@@PAX@1@@Z
	??$_Insert_nohint@AAU?$pair@$$CBIE@std@@PAU?$_Tree_node@U?$pair@$$CBIE@std@@PAX@2@@?$_Tree@V?$_Tmap_traits@IEU?$less@I@std@@V?$allocator@U?$pair@$$CBIE@std@@@2@$0A@@std@@@std@@IAE?AU?$pair@V?$_Tree_iterator@V?$_Tree_val@U?$_Tree_simple_types@U?$pair@$$CBIE@std@@@std@@@std@@@std@@_N@1@_NAAU?$pair@$$CBIE@1@PAU?$_Tree_node@U?$pair@$$CBIE@std@@PAX@1@@Z
	??$_Insert_nohint@AAU?$pair@$$CBIV?$shared_ptr@VEventHandler@Event@Core@@@boost@@@std@@PAU?$_Tree_node@U?$pair@$$CBIV?$shared_ptr@VEventHandler@Event@Core@@@boost@@@std@@PAX@2@@?$_Tree@V?$_Tmap_traits@IV?$shared_ptr@VEventHandler@Event@Core@@@boost@@U?$less@I@std@@V?$allocator@U?$pair@$$CBIV?$shared_ptr@VEventHandler@Event@Core@@@boost@@@std@@@4@$0A@@std@@@std@@IAE?AU?$pair@V?$_Tree_iterator@V?$_Tree_val@U?$_Tree_simple_types@U?$pair@$$CBIV?$shared_ptr@VEventHandler@Event@Core@@@boost@@@std@@@std@@@std@@@std@@_N@1@_NAAU?$pair@$$CBIV?$shared_ptr@VEventHandler@Event@Core@@@boost@@@1@PAU?$_Tree_node@U?$pair@$$CBIV?$shared_ptr@VEventHandler@Event@Core@@@boost@@@std@@PAX@1@@Z
	??$_Insert_nohint@AAU?$pair@$$CBIV?$shared_ptr@VSession@Core@@@boost@@@std@@PAU?$_Tree_node@U?$pair@$$CBIV?$shared_ptr@VSession@Core@@@boost@@@std@@PAX@2@@?$_Tree@V?$_Tmap_traits@IV?$shared_ptr@VSession@Core@@@boost@@U?$less@I@std@@V?$allocator@U?$pair@$$CBIV?$shared_ptr@VSession@Core@@@boost@@@std@@@4@$0A@@std@@@std@@IAE?AU?$pair@V?$_Tree_iterator@V?$_Tree_val@U?$_Tree_simple_types@U?$pair@$$CBIV?$shared_ptr@VSession@Core@@@boost@@@std@@@std@@@std@@@std@@_N@1@_NAAU?$pair@$$CBIV?$shared_ptr@VSession@Core@@@boost@@@1@PAU?$_Tree_node@U?$pair@$$CBIV?$shared_ptr@VSession@Core@@@boost@@@std@@PAX@1@@Z
	??$_Insert_nohint@AAU?$pair@$$CBV?$basic_string@DU?$char_traits@D@std@@V?$allocator@D@2@@std@@V?$shared_ptr@VDebugCommand@Core@@@boost@@@std@@PAU?$_Tree_node@U?$pair@$$CBV?$basic_string@DU?$char_traits@D@std@@V?$allocator@D@2@@std@@V?$shared_ptr@VDebugCommand@Core@@@boost@@@std@@PAX@2@@?$_Tree@V?$_Tmap_traits@V?$basic_string@DU?$char_traits@D@std@@V?$allocator@D@2@@std@@V?$shared_ptr@VDebugCommand@Core@@@boost@@U?$less@V?$basic_string@DU?$char_traits@D@std@@V?$allocator@D@2@@std@@@2@V?$allocator@U?$pair@$$CBV?$basic_string@DU?$char_traits@D@std@@V?$allocator@D@2@@std@@V?$shared_ptr@VDebugCommand@Core@@@boost@@@std@@@2@$0A@@std@@@std@@IAE?AU?$pair@V?$_Tree_iterator@V?$_Tree_val@U?$_Tree_simple_types@U?$pair@$$CBV?$basic_string@DU?$char_traits@D@std@@V?$allocator@D@2@@std@@V?$shared_ptr@VDebugCommand@Core@@@boost@@@std@@@std@@@std@@@std@@_N@1@_NAAU?$pair@$$CBV?$basic_string@DU?$char_traits@D@std@@V?$allocator@D@2@@std@@V?$shared_ptr@VDebugCommand@Core@@@boost@@@1@PAU?$_Tree_node@U?$pair@$$CBV?$basic_string@DU?$char_traits@D@std@@V?$allocator@D@2@@std@@V?$shared_ptr@VDebugCommand@Core@@@boost@@@std@@PAX@1@@Z
	??$_Insert_nohint@AAU?$pair@$$CBV?$basic_string@DU?$char_traits@D@std@@V?$allocator@D@2@@std@@V?$shared_ptr@VEventObject@Entity@Core@@@boost@@@std@@PAU?$_Tree_node@U?$pair@$$CBV?$basic_string@DU?$char_traits@D@std@@V?$allocator@D@2@@std@@V?$shared_ptr@VEventObject@Entity@Core@@@boost@@@std@@PAX@2@@?$_Tree@V?$_Tmap_traits@V?$basic_string@DU?$char_traits@D@std@@V?$allocator@D@2@@std@@V?$shared_ptr@VEventObject@Entity@Core@@@boost@@U?$less@V?$basic_string@DU?$char_traits@D@std@@V?$allocator@D@2@@std@@@2@V?$allocator@U?$pair@$$CBV?$basic_string@DU?$char_traits@D@std@@V?$allocator@D@2@@std@@V?$shared_ptr@VEventObject@Entity@Core@@@boost@@@std@@@2@$0A@@std@@@std@@IAE?AU?$pair@V?$_Tree_iterator@V?$_Tree_val@U?$_Tree_simple_types@U?$pair@$$CBV?$basic_string@DU?$char_traits@D@std@@V?$allocator@D@2@@std@@V?$shared_ptr@VEventObject@Entity@Core@@@boost@@@std@@@std@@@std@@@std@@_N@1@_NAAU?$pair@$$CBV?$basic_string@DU?$char_traits@D@std@@V?$allocator@D@2@@std@@V?$shared_ptr@VEventObject@Entity@Core@@@boost@@@1@PAU?$_Tree_node@U?$pair@$$CBV?$basic_string@DU?$char_traits@D@std@@V?$allocator@D@2@@std@@V?$shared_ptr@VEventObject@Entity@Core@@@boost@@@std@@PAX@1@@Z
	??$_Insert_nohint@AAU?$pair@$$CBV?$basic_string@DU?$char_traits@D@std@@V?$allocator@D@2@@std@@V?$shared_ptr@VLinkshell@Core@@@boost@@@std@@PAU?$_Tree_node@U?$pair@$$CBV?$basic_string@DU?$char_traits@D@std@@V?$allocator@D@2@@std@@V?$shared_ptr@VLinkshell@Core@@@boost@@@std@@PAX@2@@?$_Tree@V?$_Tmap_traits@V?$basic_string@DU?$char_traits@D@std@@V?$allocator@D@2@@std@@V?$shared_ptr@VLinkshell@Core@@@boost@@U?$less@V?$basic_string@DU?$char_traits@D@std@@V?$allocator@D@2@@std@@@2@V?$allocator@U?$pair@$$CBV?$basic_string@DU?$char_traits@D@std@@V?$allocator@D@2@@std@@V?$shared_ptr@VLinkshell@Core@@@boost@@@std@@@2@$0A@@std@@@std@@IAE?AU?$pair@V?$_Tree_iterator@V?$_Tree_val@U?$_Tree_simple_types@U?$pair@$$CBV?$basic_string@DU?$char_traits@D@std@@V?$allocator@D@2@@std@@V?$shared_ptr@VLinkshell@Core@@@boost@@@std@@@std@@@std@@@std@@_N@1@_NAAU?$pair@$$CBV?$basic_string@DU?$char_traits@D@std@@V?$allocator@D@2@@std@@V?$shared_ptr@VLinkshell@Core@@@boost@@@1@PAU?$_Tree_node@U?$pair@$$CBV?$basic_string@DU?$char_traits@D@std@@V?$allocator@D@2@@std@@V?$shared_ptr@VLinkshell@Core@@@boost@@@std@@PAX@1@@Z
	??$_Insert_nohint@AAU?$pair@$$CBV?$basic_string@DU?$char_traits@D@std@@V?$allocator@D@2@@std@@V?$shared_ptr@VSession@Core@@@boost@@@std@@PAU?$_Tree_node@U?$pair@$$CBV?$basic_string@DU?$char_traits@D@std@@V?$allocator@D@2@@std@@V?$shared_ptr@VSession@Core@@@boost@@@std@@PAX@2@@?$_Tree@V?$_Tmap_traits@V?$basic_string@DU?$char_traits@D@std@@V?$allocator@D@2@@std@@V?$shared_ptr@VSession@Core@@@boost@@U?$less@V?$basic_string@DU?$char_traits@D@std@@V?$allocator@D@2@@std@@@2@V?$allocator@U?$pair@$$CBV?$basic_string@DU?$char_traits@D@std@@V?$allocator@D@2@@std@@V?$shared_ptr@VSession@Core@@@boost@@@std@@@2@$0A@@std@@@std@@IAE?AU?$pair@V?$_Tree_iterator@V?$_Tree_val@U?$_Tree_simple_types@U?$pair@$$CBV?$basic_string@DU?$char_traits@D@std@@V?$allocator@D@2@@std@@V?$shared_ptr@VSession@Core@@@boost@@@std@@@std@@@std@@@std@@_N@1@_NAAU?$pair@$$CBV?$basic_string@DU?$char_traits@D@std@@V?$allocator@D@2@@std@@V?$shared_ptr@VSession@Core@@@boost@@@1@PAU?$_Tree_node@U?$pair@$$CBV?$basic_string@DU?$char_traits@D@std@@V?$allocator@D@2@@std@@V?$shared_ptr@VSession@Core@@@boost@@@std@@PAX@1@@Z
	??$_Insert_nohint@AAU?$pair@$$CBV?$basic_string@DU?$char_traits@D@std@@V?$allocator@D@2@@std@@VWatcher@Watchdog@@@std@@PAU?$_Tree_node@U?$pair@$$CBV?$basic_string@DU?$char_traits@D@std@@V?$allocator@D@2@@std@@VWatcher@Watchdog@@@std@@PAX@2@@?$_Tree@V?$_Tmap_traits@V?$basic_string@DU?$char_traits@D@std@@V?$allocator@D@2@@std@@VWatcher@Watchdog@@U?$less@V?$basic_string@DU?$char_traits@D@std@@V?$allocator@D@2@@std@@@2@V?$allocator@U?$pair@$$CBV?$basic_string@DU?$char_traits@D@std@@V?$allocator@D@2@@std@@VWatcher@Watchdog@@@std@@@2@$0A@@std@@@std@@IAE?AU?$pair@V?$_Tree_iterator@V?$_Tree_val@U?$_Tree_simple_types@U?$pair@$$CBV?$basic_string@DU?$char_traits@D@std@@V?$allocator@D@2@@std@@VWatcher@Watchdog@@@std@@@std@@@std@@@std@@_N@1@_NAAU?$pair@$$CBV?$basic_string@DU?$char_traits@D@std@@V?$allocator@D@2@@std@@VWatcher@Watchdog@@@1@PAU?$_Tree_node@U?$pair@$$CBV?$basic_string@DU?$char_traits@D@std@@V?$allocator@D@2@@std@@VWatcher@Watchdog@@@std@@PAX@1@@Z
	??$_Insert_nohint@AAU?$pair@$$CBV?$basic_string@DU?$char_traits@D@std@@V?$allocator@D@2@@std@@_J@std@@PAU?$_Tree_node@U?$pair@$$CBV?$basic_string@DU?$char_traits@D@std@@V?$allocator@D@2@@std@@_J@std@@PAX@2@@?$_Tree@V?$_Tmap_traits@V?$basic_string@DU?$char_traits@D@std@@V?$allocator@D@2@@std@@_JU?$less@V?$basic_string@DU?$char_traits@D@std@@V?$allocator@D@2@@std@@@2@V?$allocator@U?$pair@$$CBV?$basic_string@DU?$char_traits@D@std@@V?$allocator@D@2@@std@@_J@std@@@2@$0A@@std@@@std@@IAE?AU?$pair@V?$_Tree_iterator@V?$_Tree_val@U?$_Tree_simple_types@U?$pair@$$CBV?$basic_string@DU?$char_traits@D@std@@V?$allocator@D@2@@std@@_J@std@@@std@@@std@@@std@@_N@1@_NAAU?$pair@$$CBV?$basic_string@DU?$char_traits@D@std@@V?$allocator@D@2@@std@@_J@1@PAU?$_Tree_node@U?$pair@$$CBV?$basic_string@DU?$char_traits@D@std@@V?$allocator@D@2@@std@@_J@std@@PAX@1@@Z
	??$_Insert_nohint@AAU?$pair@$$CBVtype_index@std@@V?$shared_ptr@X@boost@@@std@@PAU?$_Tree_node@U?$pair@$$CBVtype_index@std@@V?$shared_ptr@X@boost@@@std@@PAX@2@@?$_Tree@V?$_Tmap_traits@Vtype_index@std@@V?$shared_ptr@X@boost@@U?$less@Vtype_index@std@@@2@V?$allocator@U?$pair@$$CBVtype_index@std@@V?$shared_ptr@X@boost@@@std@@@2@$0A@@std@@@std@@IAE?AU?$pair@V?$_Tree_iterator@V?$_Tree_val@U?$_Tree_simple_types@U?$pair@$$CBVtype_index@std@@V?$shared_ptr@X@boost@@@std@@@std@@@std@@@std@@_N@1@_NAAU?$pair@$$CBVtype_index@std@@V?$shared_ptr@X@boost@@@1@PAU?$_Tree_node@U?$pair@$$CBVtype_index@std@@V?$shared_ptr@X@boost@@@std@@PAX@1@@Z
	??$_Insert_nohint@AAU?$pair@$$CB_KV?$shared_ptr@VLinkshell@Core@@@boost@@@std@@PAU?$_Tree_node@U?$pair@$$CB_KV?$shared_ptr@VLinkshell@Core@@@boost@@@std@@PAX@2@@?$_Tree@V?$_Tmap_traits@_KV?$shared_ptr@VLinkshell@Core@@@boost@@U?$less@_K@std@@V?$allocator@U?$pair@$$CB_KV?$shared_ptr@VLinkshell@Core@@@boost@@@std@@@4@$0A@@std@@@std@@IAE?AU?$pair@V?$_Tree_iterator@V?$_Tree_val@U?$_Tree_simple_types@U?$pair@$$CB_KV?$shared_ptr@VLinkshell@Core@@@boost@@@std@@@std@@@std@@@std@@_N@1@_NAAU?$pair@$$CB_KV?$shared_ptr@VLinkshell@Core@@@boost@@@1@PAU?$_Tree_node@U?$pair@$$CB_KV?$shared_ptr@VLinkshell@Core@@@boost@@@std@@PAX@1@@Z
	??$_Insert_nohint@AAV?$shared_ptr@VZone@Core@@@boost@@PAU?$_Tree_node@V?$shared_ptr@VZone@Core@@@boost@@PAX@std@@@?$_Tree@V?$_Tset_traits@V?$shared_ptr@VZone@Core@@@boost@@U?$less@V?$shared_ptr@VZone@Core@@@boost@@@std@@V?$allocator@V?$shared_ptr@VZone@Core@@@boost@@@4@$0A@@std@@@std@@IAE?AU?$pair@V?$_Tree_const_iterator@V?$_Tree_val@U?$_Tree_simple_types@V?$shared_ptr@VZone@Core@@@boost@@@std@@@std@@@std@@_N@1@_NAAV?$shared_ptr@VZone@Core@@@boost@@PAU?$_Tree_node@V?$shared_ptr@VZone@Core@@@boost@@PAX@1@@Z
	??$_Insert_nohint@AA_KPAU?$_Tree_node@_KPAX@std@@@?$_Tree@V?$_Tset_traits@_KU?$less@_K@std@@V?$allocator@_K@2@$0A@@std@@@std@@IAE?AU?$pair@V?$_Tree_const_iterator@V?$_Tree_val@U?$_Tree_simple_types@_K@std@@@std@@@std@@_N@1@_NAA_KPAU?$_Tree_node@_KPAX@1@@Z
	??$_Insert_nohint@ABIU_Nil@std@@@?$_Tree@V?$_Tset_traits@IU?$less@I@std@@V?$allocator@I@2@$0A@@std@@@std@@IAE?AU?$pair@V?$_Tree_const_iterator@V?$_Tree_val@U?$_Tree_simple_types@I@std@@@std@@@std@@_N@1@_NABIU_Nil@1@@Z
	??$_Insert_nohint@ABQAVScriptInfo@Scripting@Core@@U_Nil@std@@@?$_Tree@V?$_Tset_traits@PAVScriptInfo@Scripting@Core@@U?$less@PAVScriptInfo@Scripting@Core@@@std@@V?$allocator@PAVScriptInfo@Scripting@Core@@@5@$0A@@std@@@std@@IAE?AU?$pair@V?$_Tree_const_iterator@V?$_Tree_val@U?$_Tree_simple_types@PAVScriptInfo@Scripting@Core@@@std@@@std@@@std@@_N@1@_NABQAVScriptInfo@Scripting@Core@@U_Nil@1@@Z
	??$_Insert_nohint@ABV?$basic_string@DU?$char_traits@D@std@@V?$allocator@D@2@@std@@U_Nil@2@@?$_Tree@V?$_Tset_traits@V?$basic_string@DU?$char_traits@D@std@@V?$allocator@D@2@@std@@U?$less@V?$basic_string@DU?$char_traits@D@std@@V?$allocator@D@2@@std@@@2@V?$allocator@V?$basic_string@DU?$char_traits@D@std@@V?$allocator@D@2@@std@@@2@$0A@@std@@@std@@IAE?AU?$pair@V?$_Tree_const_iterator@V?$_Tree_val@U?$_Tree_simple_types@V?$basic_string@DU?$char_traits@D@std@@V?$allocator@D@2@@std@@@std@@@std@@@std@@_N@1@_NABV?$basic_string@DU?$char_traits@D@std@@V?$allocator@D@2@@1@U_Nil@1@@Z
	??$_Insert_nohint@ABV?$shared_ptr@VActor@Entity@Core@@@boost@@U_Nil@std@@@?$_Tree@V?$_Tset_traits@V?$shared_ptr@VActor@Entity@Core@@@boost@@U?$less@V?$shared_ptr@VActor@Entity@Core@@@boost@@@std@@V?$allocator@V?$shared_ptr@VActor@Entity@Core@@@boost@@@4@$0A@@std@@@std@@IAE?AU?$pair@V?$_Tree_const_iterator@V?$_Tree_val@U?$_Tree_simple_types@V?$shared_ptr@VActor@Entity@Core@@@boost@@@std@@@std@@@std@@_N@1@_NABV?$shared_ptr@VActor@Entity@Core@@@boost@@U_Nil@1@@Z
	??$_Insert_nohint@ABV?$shared_ptr@VPlayer@Entity@Core@@@boost@@U_Nil@std@@@?$_Tree@V?$_Tset_traits@V?$shared_ptr@VPlayer@Entity@Core@@@boost@@U?$less@V?$shared_ptr@VPlayer@Entity@Core@@@boost@@@std@@V?$allocator@V?$shared_ptr@VPlayer@Entity@Core@@@boost@@@4@$0A@@std@@@std@@IAE?AU?$pair@V?$_Tree_const_iterator@V?$_Tree_val@U?$_Tree_simple_types@V?$shared_ptr@VPlayer@Entity@Core@@@boost@@@std@@@std@@@std@@_N@1@_NABV?$shared_ptr@VPlayer@Entity@Core@@@boost@@U_Nil@1@@Z
	??$_Insert_nohint@ABV?$shared_ptr@VSession@Core@@@boost@@U_Nil@std@@@?$_Tree@V?$_Tset_traits@V?$shared_ptr@VSession@Core@@@boost@@U?$less@V?$shared_ptr@VSession@Core@@@boost@@@std@@V?$allocator@V?$shared_ptr@VSession@Core@@@boost@@@4@$0A@@std@@@std@@IAE?AU?$pair@V?$_Tree_const_iterator@V?$_Tree_val@U?$_Tree_simple_types@V?$shared_ptr@VSession@Core@@@boost@@@std@@@std@@@std@@_N@1@_NABV?$shared_ptr@VSession@Core@@@boost@@U_Nil@1@@Z
	??$_Insert_nohint@AB_KU_Nil@std@@@?$_Tree@V?$_Tset_traits@_KU?$less@_K@std@@V?$allocator@_K@2@$0A@@std@@@std@@IAE?AU?$pair@V?$_Tree_const_iterator@V?$_Tree_val@U?$_Tree_simple_types@_K@std@@@std@@@std@@_N@1@_NAB_KU_Nil@1@@Z
	??$_Insert_nohint@IU_Nil@std@@@?$_Tree@V?$_Tset_traits@IU?$less@I@std@@V?$allocator@I@2@$0A@@std@@@std@@IAE?AU?$pair@V?$_Tree_const_iterator@V?$_Tree_val@U?$_Tree_simple_types@I@std@@@std@@@std@@_N@1@_N$$QAIU_Nil@1@@Z
	??$_Insert_nohint@V?$shared_ptr@VActor@Entity@Core@@@boost@@U_Nil@std@@@?$_Tree@V?$_Tset_traits@V?$shared_ptr@VActor@Entity@Core@@@boost@@U?$less@V?$shared_ptr@VActor@Entity@Core@@@boost@@@std@@V?$allocator@V?$shared_ptr@VActor@Entity@Core@@@boost@@@4@$0A@@std@@@std@@IAE?AU?$pair@V?$_Tree_const_iterator@V?$_Tree_val@U?$_Tree_simple_types@V?$shared_ptr@VActor@Entity@Core@@@boost@@@std@@@std@@@std@@_N@1@_N$$QAV?$shared_ptr@VActor@Entity@Core@@@boost@@U_Nil@1@@Z
	??$_Insert_nohint@V?$shared_ptr@VZone@Core@@@boost@@U_Nil@std@@@?$_Tree@V?$_Tset_traits@V?$shared_ptr@VZone@Core@@@boost@@U?$less@V?$shared_ptr@VZone@Core@@@boost@@@std@@V?$allocator@V?$shared_ptr@VZone@Core@@@boost@@@4@$0A@@std@@@std@@IAE?AU?$pair@V?$_Tree_const_iterator@V?$_Tree_val@U?$_Tree_simple_types@V?$shared_ptr@VZone@Core@@@boost@@@std@@@std@@@std@@_N@1@_N$$QAV?$shared_ptr@VZone@Core@@@boost@@U_Nil@1@@Z
	??$_Insertion_sort_unchecked@PADU?$less@X@std@@@std@@YAXPAD0AAU?$less@X@0@@Z
	??$_Insertion_sort_unchecked@PAU?$copy_map_entry@U?$sequenced_index_node@U?$ordered_index_node@Unull_augment_policy@detail@multi_index@boost@@U?$index_node_base@U?$pair@$$CBV?$basic_string@DU?$char_traits@D@std@@V?$allocator@D@2@@std@@V?$basic_ptree@V?$basic_string@DU?$char_traits@D@std@@V?$allocator@D@2@@std@@V12@U?$less@V?$basic_string@DU?$char_traits@D@std@@V?$allocator@D@2@@std@@@2@@property_tree@boost@@@std@@V?$allocator@U?$pair@$$CBV?$basic_string@DU?$char_traits@D@std@@V?$allocator@D@2@@std@@V?$basic_ptree@V?$basic_string@DU?$char_traits@D@std@@V?$allocator@D@2@@std@@V12@U?$less@V?$basic_string@DU?$char_traits@D@std@@V?$allocator@D@2@@std@@@2@@property_tree@boost@@@std@@@2@@234@@detail@multi_index@boost@@@detail@multi_index@boost@@@detail@multi_index@boost@@U?$less@X@std@@@std@@YAXPAU?$copy_map_entry@U?$sequenced_index_node@U?$ordered_index_node@Unull_augment_policy@detail@multi_index@boost@@U?$index_node_base@U?$pair@$$CBV?$basic_string@DU?$char_traits@D@std@@V?$allocator@D@2@@std@@V?$basic_ptree@V?$basic_string@DU?$char_traits@D@std@@V?$allocator@D@2@@std@@V12@U?$less@V?$basic_string@DU?$char_traits@D@std@@V?$allocator@D@2@@std@@@2@@property_tree@boost@@@std@@V?$allocator@U?$pair@$$CBV?$basic_string@DU?$char_traits@D@std@@V?$allocator@D@2@@std@@V?$basic_ptree@V?$basic_string@DU?$char_traits@D@std@@V?$allocator@D@2@@std@@V12@U?$less@V?$basic_string@DU?$char_traits@D@std@@V?$allocator@D@2@@std@@@2@@property_tree@boost@@@std@@@2@@234@@detail@multi_index@boost@@@detail@multi_index@boost@@@detail@multi_index@boost@@0AAU?$less@X@0@@Z
	??$_Integral_to_string@DH@std@@YA?AV?$basic_string@DU?$char_traits@D@std@@V?$allocator@D@2@@0@H@Z
	??$_Integral_to_string@DI@std@@YA?AV?$basic_string@DU?$char_traits@D@std@@V?$allocator@D@2@@0@I@Z
	??$_Integral_to_string@D_K@std@@YA?AV?$basic_string@DU?$char_traits@D@std@@V?$allocator@D@2@@0@_K@Z
	??$_Is_checked@PAD@std@@YA?AU?$integral_constant@_N$0A@@0@PAD@Z
	??$_Is_checked@V?$_String_iterator@V?$_String_val@U?$_Simple_types@D@std@@@std@@@std@@@std@@YA?AU?$integral_constant@_N$00@0@V?$_String_iterator@V?$_String_val@U?$_Simple_types@D@std@@@std@@@0@@Z
	??$_Is_checked@V?$_Vb_iterator@U?$_Wrap_alloc@V?$allocator@I@std@@@std@@@std@@@std@@YA?AU?$integral_constant@_N$00@0@V?$_Vb_iterator@U?$_Wrap_alloc@V?$allocator@I@std@@@std@@@0@@Z
	??$_Kfn@$$CBEH@?$_Tmap_traits@EHU?$less@E@std@@V?$allocator@U?$pair@$$CBEH@std@@@2@$0A@@std@@SAABEABU?$pair@$$CBEH@1@@Z
	??$_Kfn@$$CBEI@?$_Tmap_traits@EIU?$less@E@std@@V?$allocator@U?$pair@$$CBEI@std@@@2@$0A@@std@@SAABEABU?$pair@$$CBEI@1@@Z
	??$_Kfn@$$CBEV?$shared_ptr@VItem@Core@@@boost@@@?$_Tmap_traits@EV?$shared_ptr@VItem@Core@@@boost@@U?$less@E@std@@V?$allocator@U?$pair@$$CBEV?$shared_ptr@VItem@Core@@@boost@@@std@@@4@$0A@@std@@SAABEABU?$pair@$$CBEV?$shared_ptr@VItem@Core@@@boost@@@1@@Z
	??$_Kfn@$$CBEV?$shared_ptr@VStatusEffect@1Core@@@boost@@@?$_Tmap_traits@EV?$shared_ptr@VStatusEffect@1Core@@@boost@@U?$less@E@std@@V?$allocator@U?$pair@$$CBEV?$shared_ptr@VStatusEffect@1Core@@@boost@@@std@@@4@$0A@@std@@SAABEABU?$pair@$$CBEV?$shared_ptr@VStatusEffect@1Core@@@boost@@@1@@Z
	??$_Kfn@$$CBGP8GameConnection@Network@Core@@AEXABVGamePacket@Packets@23@AAVPlayer@Entity@3@@Z@?$_Tmap_traits@GP8GameConnection@Network@Core@@AEXABVGamePacket@Packets@23@AAVPlayer@Entity@3@@ZU?$less@G@std@@V?$allocator@U?$pair@$$CBGP8GameConnection@Network@Core@@AEXABVGamePacket@Packets@23@AAVPlayer@Entity@3@@Z@std@@@9@$0A@@std@@SAABGABU?$pair@$$CBGP8GameConnection@Network@Core@@AEXABVGamePacket@Packets@23@AAVPlayer@Entity@3@@Z@1@@Z
	??$_Kfn@$$CBGV?$basic_string@DU?$char_traits@D@std@@V?$allocator@D@2@@std@@@?$_Tmap_traits@GV?$basic_string@DU?$char_traits@D@std@@V?$allocator@D@2@@std@@U?$less@G@2@V?$allocator@U?$pair@$$CBGV?$basic_string@DU?$char_traits@D@std@@V?$allocator@D@2@@std@@@std@@@2@$0A@@std@@SAABGABU?$pair@$$CBGV?$basic_string@DU?$char_traits@D@std@@V?$allocator@D@2@@std@@@1@@Z
	??$_Kfn@$$CBGV?$shared_ptr@UTerritoryType@Data@Core@@@boost@@@?$_Umap_traits@GV?$shared_ptr@UTerritoryType@Data@Core@@@boost@@V?$_Uhash_compare@GU?$hash@G@std@@U?$equal_to@G@2@@std@@V?$allocator@U?$pair@$$CBGV?$shared_ptr@UTerritoryType@Data@Core@@@boost@@@std@@@4@$0A@@std@@SAABGABU?$pair@$$CBGV?$shared_ptr@UTerritoryType@Data@Core@@@boost@@@1@@Z
	??$_Kfn@$$CBGV?$shared_ptr@VItemContainer@Core@@@boost@@@?$_Tmap_traits@GV?$shared_ptr@VItemContainer@Core@@@boost@@U?$less@G@std@@V?$allocator@U?$pair@$$CBGV?$shared_ptr@VItemContainer@Core@@@boost@@@std@@@4@$0A@@std@@SAABGABU?$pair@$$CBGV?$shared_ptr@VItemContainer@Core@@@boost@@@1@@Z
